
duck.elf:     file format elf32-avr32

Sections:
Idx Name          Size      VMA       LMA       File off  Algn
  0 .reset        00002004  80000000  80000000  00000400  2**2
                  CONTENTS, ALLOC, LOAD, READONLY, CODE
  1 .rela.got     00000000  80002004  80002004  00002404  2**2
                  CONTENTS, ALLOC, LOAD, READONLY, DATA
  2 .text         00005dfc  80002004  80002004  00002404  2**2
                  CONTENTS, ALLOC, LOAD, READONLY, CODE
  3 .exception    00000200  80007e00  80007e00  00008200  2**9
                  CONTENTS, ALLOC, LOAD, READONLY, CODE
  4 .rodata       00000288  80008000  80008000  00008400  2**2
                  CONTENTS, ALLOC, LOAD, READONLY, DATA
  5 .dalign       00000004  00000004  00000004  00000000  2**0
                  ALLOC
  6 .data         000000e0  00000008  80008288  00008808  2**2
                  CONTENTS, ALLOC, LOAD, DATA
  7 .bss          000006e0  000000e8  000000e8  00000000  2**2
                  ALLOC
  8 .heap         00006838  000007c8  000007c8  00000000  2**0
                  ALLOC
  9 .comment      00000030  00000000  00000000  000088e8  2**0
                  CONTENTS, READONLY
 10 .debug_aranges 00000e78  00000000  00000000  00008918  2**0
                  CONTENTS, READONLY, DEBUGGING
 11 .debug_pubnames 00002a19  00000000  00000000  00009790  2**0
                  CONTENTS, READONLY, DEBUGGING
 12 .debug_info   0001bc25  00000000  00000000  0000c1a9  2**0
                  CONTENTS, READONLY, DEBUGGING
 13 .debug_abbrev 00002e5d  00000000  00000000  00027dce  2**0
                  CONTENTS, READONLY, DEBUGGING
 14 .debug_line   0000c366  00000000  00000000  0002ac2b  2**0
                  CONTENTS, READONLY, DEBUGGING
 15 .debug_frame  000029bc  00000000  00000000  00036f94  2**2
                  CONTENTS, READONLY, DEBUGGING
 16 .debug_str    000086d1  00000000  00000000  00039950  2**0
                  CONTENTS, READONLY, DEBUGGING
 17 .debug_loc    0000711c  00000000  00000000  00042021  2**0
                  CONTENTS, READONLY, DEBUGGING
 18 .debug_macinfo 0118233a  00000000  00000000  0004913d  2**0
                  CONTENTS, READONLY, DEBUGGING
 19 .stack        00001000  00007000  00007000  00000000  2**0
                  ALLOC
 20 .debug_ranges 00000e48  00000000  00000000  011cb477  2**0
                  CONTENTS, READONLY, DEBUGGING

Disassembly of section .reset:

80000000 <_trampoline>:
80000000:	e0 8f 10 00 	bral	80002000 <program_start>
	...

80002000 <program_start>:
80002000:	fe cf b4 6c 	sub	pc,pc,-19348

Disassembly of section .text:

80002004 <board_init>:
80002004:	d4 01       	pushm	lr
80002006:	30 3b       	mov	r11,3
80002008:	30 7c       	mov	r12,7
8000200a:	f0 1f 00 14 	mcall	80002058 <board_init+0x54>
8000200e:	30 3b       	mov	r11,3
80002010:	30 8c       	mov	r12,8
80002012:	f0 1f 00 12 	mcall	80002058 <board_init+0x54>
80002016:	30 3b       	mov	r11,3
80002018:	31 5c       	mov	r12,21
8000201a:	f0 1f 00 10 	mcall	80002058 <board_init+0x54>
8000201e:	30 3b       	mov	r11,3
80002020:	31 6c       	mov	r12,22
80002022:	f0 1f 00 0e 	mcall	80002058 <board_init+0x54>
80002026:	30 0b       	mov	r11,0
80002028:	32 2c       	mov	r12,34
8000202a:	f0 1f 00 0c 	mcall	80002058 <board_init+0x54>
8000202e:	30 0b       	mov	r11,0
80002030:	32 3c       	mov	r12,35
80002032:	f0 1f 00 0a 	mcall	80002058 <board_init+0x54>
80002036:	30 0b       	mov	r11,0
80002038:	30 dc       	mov	r12,13
8000203a:	f0 1f 00 08 	mcall	80002058 <board_init+0x54>
8000203e:	30 0b       	mov	r11,0
80002040:	32 6c       	mov	r12,38
80002042:	f0 1f 00 06 	mcall	80002058 <board_init+0x54>
80002046:	30 0b       	mov	r11,0
80002048:	32 7c       	mov	r12,39
8000204a:	f0 1f 00 04 	mcall	80002058 <board_init+0x54>
8000204e:	30 0b       	mov	r11,0
80002050:	32 8c       	mov	r12,40
80002052:	f0 1f 00 02 	mcall	80002058 <board_init+0x54>
80002056:	d8 02       	popm	pc
80002058:	80 00       	ld.sh	r0,r0[0x0]
8000205a:	2f 28       	sub	r8,-14

8000205c <LED_Set_Intensity>:
8000205c:	eb cd 40 f8 	pushm	r3-r7,lr
80002060:	f9 dc c0 04 	bfextu	r12,r12,0x0,0x4
80002064:	c4 70       	breq	800020f2 <LED_Set_Intensity+0x96>
80002066:	4a 58       	lddpc	r8,800020f8 <LED_Set_Intensity+0x9c>
80002068:	21 08       	sub	r8,16
8000206a:	fe 7a 30 00 	mov	r10,-53248
8000206e:	30 15       	mov	r5,1
80002070:	30 03       	mov	r3,0
80002072:	e0 64 00 ff 	mov	r4,255
80002076:	18 97       	mov	r7,r12
80002078:	5c 97       	brev	r7
8000207a:	ee 07 12 00 	clz	r7,r7
8000207e:	2f f7       	sub	r7,-1
80002080:	ee 09 15 04 	lsl	r9,r7,0x4
80002084:	12 08       	add	r8,r9
80002086:	70 2e       	ld.w	lr,r8[0x8]
80002088:	58 0e       	cp.w	lr,0
8000208a:	c3 15       	brlt	800020ec <LED_Set_Intensity+0x90>
8000208c:	fc 06 15 05 	lsl	r6,lr,0x5
80002090:	e0 26 ce 00 	sub	r6,52736
80002094:	74 39       	ld.w	r9,r10[0xc]
80002096:	ea 0e 09 4e 	lsl	lr,r5,lr
8000209a:	fd e9 00 09 	and	r9,lr,r9
8000209e:	c0 91       	brne	800020b0 <LED_Set_Intensity+0x54>
800020a0:	8d 03       	st.w	r6[0x0],r3
800020a2:	8d 24       	st.w	r6[0x8],r4
800020a4:	8d 1b       	st.w	r6[0x4],r11
800020a6:	70 29       	ld.w	r9,r8[0x8]
800020a8:	ea 09 09 49 	lsl	r9,r5,r9
800020ac:	95 19       	st.w	r10[0x4],r9
800020ae:	c0 78       	rjmp	800020bc <LED_Set_Intensity+0x60>
800020b0:	74 79       	ld.w	r9,r10[0x1c]
800020b2:	74 79       	ld.w	r9,r10[0x1c]
800020b4:	fd e9 00 09 	and	r9,lr,r9
800020b8:	cf d0       	breq	800020b2 <LED_Set_Intensity+0x56>
800020ba:	8d 4b       	st.w	r6[0x10],r11
800020bc:	70 09       	ld.w	r9,r8[0x0]
800020be:	a9 69       	lsl	r9,0x8
800020c0:	e0 29 f0 00 	sub	r9,61440
800020c4:	70 3e       	ld.w	lr,r8[0xc]
800020c6:	fd de c0 01 	bfextu	lr,lr,0x0,0x1
800020ca:	c0 40       	breq	800020d2 <LED_Set_Intensity+0x76>
800020cc:	70 1e       	ld.w	lr,r8[0x4]
800020ce:	93 5e       	st.w	r9[0x14],lr
800020d0:	c0 38       	rjmp	800020d6 <LED_Set_Intensity+0x7a>
800020d2:	70 1e       	ld.w	lr,r8[0x4]
800020d4:	93 6e       	st.w	r9[0x18],lr
800020d6:	70 3e       	ld.w	lr,r8[0xc]
800020d8:	e2 1e 00 02 	andl	lr,0x2,COH
800020dc:	c0 40       	breq	800020e4 <LED_Set_Intensity+0x88>
800020de:	70 1e       	ld.w	lr,r8[0x4]
800020e0:	93 9e       	st.w	r9[0x24],lr
800020e2:	c0 38       	rjmp	800020e8 <LED_Set_Intensity+0x8c>
800020e4:	70 1e       	ld.w	lr,r8[0x4]
800020e6:	93 ae       	st.w	r9[0x28],lr
800020e8:	70 1e       	ld.w	lr,r8[0x4]
800020ea:	93 2e       	st.w	r9[0x8],lr
800020ec:	f8 07 0a 4c 	lsr	r12,r12,r7
800020f0:	cc 31       	brne	80002076 <LED_Set_Intensity+0x1a>
800020f2:	e3 cd 80 f8 	ldm	sp++,r3-r7,pc
800020f6:	00 00       	add	r0,r0
800020f8:	80 00       	ld.sh	r0,r0[0x0]
800020fa:	80 00       	ld.sh	r0,r0[0x0]

800020fc <LED_On>:
800020fc:	f9 dc c0 04 	bfextu	r12,r12,0x0,0x4
80002100:	49 18       	lddpc	r8,80002144 <LED_On+0x48>
80002102:	70 09       	ld.w	r9,r8[0x0]
80002104:	f9 e9 10 09 	or	r9,r12,r9
80002108:	91 09       	st.w	r8[0x0],r9
8000210a:	58 0c       	cp.w	r12,0
8000210c:	5e 0c       	reteq	r12
8000210e:	48 f8       	lddpc	r8,80002148 <LED_On+0x4c>
80002110:	21 08       	sub	r8,16
80002112:	18 9a       	mov	r10,r12
80002114:	5c 9a       	brev	r10
80002116:	f4 0a 12 00 	clz	r10,r10
8000211a:	2f fa       	sub	r10,-1
8000211c:	f4 09 15 04 	lsl	r9,r10,0x4
80002120:	12 08       	add	r8,r9
80002122:	70 09       	ld.w	r9,r8[0x0]
80002124:	a9 69       	lsl	r9,0x8
80002126:	e0 29 f0 00 	sub	r9,61440
8000212a:	70 1b       	ld.w	r11,r8[0x4]
8000212c:	f3 4b 00 58 	st.w	r9[88],r11
80002130:	70 1b       	ld.w	r11,r8[0x4]
80002132:	f3 4b 00 44 	st.w	r9[68],r11
80002136:	70 1b       	ld.w	r11,r8[0x4]
80002138:	93 1b       	st.w	r9[0x4],r11
8000213a:	f8 0a 0a 4c 	lsr	r12,r12,r10
8000213e:	ce a1       	brne	80002112 <LED_On+0x16>
80002140:	5e fc       	retal	r12
80002142:	00 00       	add	r0,r0
80002144:	00 00       	add	r0,r0
80002146:	00 08       	add	r8,r0
80002148:	80 00       	ld.sh	r0,r0[0x0]
8000214a:	80 00       	ld.sh	r0,r0[0x0]

8000214c <LED_Off>:
8000214c:	f9 dc c0 04 	bfextu	r12,r12,0x0,0x4
80002150:	49 28       	lddpc	r8,80002198 <LED_Off+0x4c>
80002152:	70 09       	ld.w	r9,r8[0x0]
80002154:	f8 0a 11 ff 	rsub	r10,r12,-1
80002158:	f5 e9 00 09 	and	r9,r10,r9
8000215c:	91 09       	st.w	r8[0x0],r9
8000215e:	58 0c       	cp.w	r12,0
80002160:	5e 0c       	reteq	r12
80002162:	48 f8       	lddpc	r8,8000219c <LED_Off+0x50>
80002164:	21 08       	sub	r8,16
80002166:	18 9a       	mov	r10,r12
80002168:	5c 9a       	brev	r10
8000216a:	f4 0a 12 00 	clz	r10,r10
8000216e:	2f fa       	sub	r10,-1
80002170:	f4 09 15 04 	lsl	r9,r10,0x4
80002174:	12 08       	add	r8,r9
80002176:	70 09       	ld.w	r9,r8[0x0]
80002178:	a9 69       	lsl	r9,0x8
8000217a:	e0 29 f0 00 	sub	r9,61440
8000217e:	70 1b       	ld.w	r11,r8[0x4]
80002180:	f3 4b 00 54 	st.w	r9[84],r11
80002184:	70 1b       	ld.w	r11,r8[0x4]
80002186:	f3 4b 00 44 	st.w	r9[68],r11
8000218a:	70 1b       	ld.w	r11,r8[0x4]
8000218c:	93 1b       	st.w	r9[0x4],r11
8000218e:	f8 0a 0a 4c 	lsr	r12,r12,r10
80002192:	ce a1       	brne	80002166 <LED_Off+0x1a>
80002194:	5e fc       	retal	r12
80002196:	00 00       	add	r0,r0
80002198:	00 00       	add	r0,r0
8000219a:	00 08       	add	r8,r0
8000219c:	80 00       	ld.sh	r0,r0[0x0]
8000219e:	80 00       	ld.sh	r0,r0[0x0]

800021a0 <sd_mmc_spi_get_capacity>:
800021a0:	d4 01       	pushm	lr
800021a2:	4b c8       	lddpc	r8,80002290 <sd_mmc_spi_get_capacity+0xf0>
800021a4:	11 dc       	ld.ub	r12,r8[0x5]
800021a6:	4b c9       	lddpc	r9,80002294 <sd_mmc_spi_get_capacity+0xf4>
800021a8:	13 89       	ld.ub	r9,r9[0x0]
800021aa:	30 3a       	mov	r10,3
800021ac:	f4 09 18 00 	cp.b	r9,r10
800021b0:	c1 e1       	brne	800021ec <sd_mmc_spi_get_capacity+0x4c>
800021b2:	f1 3a 00 08 	ld.ub	r10,r8[8]
800021b6:	f1 39 00 09 	ld.ub	r9,r8[9]
800021ba:	f3 ea 10 89 	or	r9,r9,r10<<0x8
800021be:	11 f8       	ld.ub	r8,r8[0x7]
800021c0:	f1 d8 c0 06 	bfextu	r8,r8,0x0,0x6
800021c4:	f3 e8 11 08 	or	r8,r9,r8<<0x10
800021c8:	2f f8       	sub	r8,-1
800021ca:	f0 0a 15 13 	lsl	r10,r8,0x13
800021ce:	4b 39       	lddpc	r9,80002298 <sd_mmc_spi_get_capacity+0xf8>
800021d0:	93 0a       	st.w	r9[0x0],r10
800021d2:	f5 d8 c1 a9 	bfextu	r10,r8,0xd,0x9
800021d6:	4b 28       	lddpc	r8,8000229c <sd_mmc_spi_get_capacity+0xfc>
800021d8:	b0 0a       	st.h	r8[0x0],r10
800021da:	72 09       	ld.w	r9,r9[0x0]
800021dc:	90 08       	ld.sh	r8,r8[0x0]
800021de:	a9 99       	lsr	r9,0x9
800021e0:	20 19       	sub	r9,1
800021e2:	b7 78       	lsl	r8,0x17
800021e4:	10 09       	add	r9,r8
800021e6:	4a f8       	lddpc	r8,800022a0 <sd_mmc_spi_get_capacity+0x100>
800021e8:	91 09       	st.w	r8[0x0],r9
800021ea:	c4 28       	rjmp	8000226e <sd_mmc_spi_get_capacity+0xce>
800021ec:	4a 98       	lddpc	r8,80002290 <sd_mmc_spi_get_capacity+0xf0>
800021ee:	f1 3a 00 0a 	ld.ub	r10,r8[10]
800021f2:	f1 3b 00 08 	ld.ub	r11,r8[8]
800021f6:	a7 8b       	lsr	r11,0x6
800021f8:	11 fe       	ld.ub	lr,r8[0x7]
800021fa:	f6 0e 00 2b 	add	r11,r11,lr<<0x2
800021fe:	11 ee       	ld.ub	lr,r8[0x6]
80002200:	fd de c0 02 	bfextu	lr,lr,0x0,0x2
80002204:	ab 6e       	lsl	lr,0xa
80002206:	1c 0b       	add	r11,lr
80002208:	2f fb       	sub	r11,-1
8000220a:	f1 38 00 09 	ld.ub	r8,r8[9]
8000220e:	f1 d8 c0 02 	bfextu	r8,r8,0x0,0x2
80002212:	f4 0e 16 07 	lsr	lr,r10,0x7
80002216:	fc 08 00 18 	add	r8,lr,r8<<0x1
8000221a:	2f e8       	sub	r8,-2
8000221c:	f6 08 09 48 	lsl	r8,r11,r8
80002220:	20 18       	sub	r8,1
80002222:	4a 0b       	lddpc	r11,800022a0 <sd_mmc_spi_get_capacity+0x100>
80002224:	97 08       	st.w	r11[0x0],r8
80002226:	76 0b       	ld.w	r11,r11[0x0]
80002228:	f1 dc c0 04 	bfextu	r8,r12,0x0,0x4
8000222c:	f6 cc ff ff 	sub	r12,r11,-1
80002230:	f8 08 09 4c 	lsl	r12,r12,r8
80002234:	49 9b       	lddpc	r11,80002298 <sd_mmc_spi_get_capacity+0xf8>
80002236:	97 0c       	st.w	r11[0x0],r12
80002238:	30 0c       	mov	r12,0
8000223a:	49 9b       	lddpc	r11,8000229c <sd_mmc_spi_get_capacity+0xfc>
8000223c:	b6 0c       	st.h	r11[0x0],r12
8000223e:	30 9b       	mov	r11,9
80002240:	f6 08 18 00 	cp.b	r8,r11
80002244:	e0 88 00 08 	brls	80002254 <sd_mmc_spi_get_capacity+0xb4>
80002248:	49 6b       	lddpc	r11,800022a0 <sd_mmc_spi_get_capacity+0x100>
8000224a:	76 0c       	ld.w	r12,r11[0x0]
8000224c:	20 98       	sub	r8,9
8000224e:	f8 08 09 48 	lsl	r8,r12,r8
80002252:	97 08       	st.w	r11[0x0],r8
80002254:	58 09       	cp.w	r9,0
80002256:	c0 c1       	brne	8000226e <sd_mmc_spi_get_capacity+0xce>
80002258:	f1 da c0 45 	bfextu	r8,r10,0x2,0x5
8000225c:	f5 da c0 02 	bfextu	r10,r10,0x0,0x2
80002260:	48 c9       	lddpc	r9,80002290 <sd_mmc_spi_get_capacity+0xf0>
80002262:	f3 39 00 0b 	ld.ub	r9,r9[11]
80002266:	a3 7a       	lsl	r10,0x3
80002268:	f5 e9 12 59 	or	r9,r10,r9>>0x5
8000226c:	c0 c8       	rjmp	80002284 <sd_mmc_spi_get_capacity+0xe4>
8000226e:	48 9a       	lddpc	r10,80002290 <sd_mmc_spi_get_capacity+0xf0>
80002270:	f5 39 00 0a 	ld.ub	r9,r10[10]
80002274:	f3 d9 c0 06 	bfextu	r9,r9,0x0,0x6
80002278:	f5 38 00 0b 	ld.ub	r8,r10[11]
8000227c:	a7 98       	lsr	r8,0x7
8000227e:	f0 09 00 18 	add	r8,r8,r9<<0x1
80002282:	30 09       	mov	r9,0
80002284:	2f f9       	sub	r9,-1
80002286:	2f f8       	sub	r8,-1
80002288:	b1 39       	mul	r9,r8
8000228a:	48 78       	lddpc	r8,800022a4 <sd_mmc_spi_get_capacity+0x104>
8000228c:	b0 09       	st.h	r8[0x0],r9
8000228e:	d8 02       	popm	pc
80002290:	00 00       	add	r0,r0
80002292:	04 7c       	tst	r12,r2
80002294:	00 00       	add	r0,r0
80002296:	04 7a       	tst	r10,r2
80002298:	00 00       	add	r0,r0
8000229a:	04 6c       	and	r12,r2
8000229c:	00 00       	add	r0,r0
8000229e:	04 70       	tst	r0,r2
800022a0:	00 00       	add	r0,r0
800022a2:	04 74       	tst	r4,r2
800022a4:	00 00       	add	r0,r0
800022a6:	04 72       	tst	r2,r2

800022a8 <sd_mmc_spi_write_close>:
800022a8:	5e fc       	retal	r12
800022aa:	d7 03       	nop

800022ac <sd_mmc_spi_send_and_read>:
800022ac:	d4 01       	pushm	lr
800022ae:	20 1d       	sub	sp,4
800022b0:	18 9b       	mov	r11,r12
800022b2:	fe 7c 24 00 	mov	r12,-56320
800022b6:	f0 1f 00 09 	mcall	800022d8 <sd_mmc_spi_send_and_read+0x2c>
800022ba:	fa cb ff fe 	sub	r11,sp,-2
800022be:	fe 7c 24 00 	mov	r12,-56320
800022c2:	f0 1f 00 07 	mcall	800022dc <sd_mmc_spi_send_and_read+0x30>
800022c6:	58 1c       	cp.w	r12,1
800022c8:	c0 41       	brne	800022d0 <sd_mmc_spi_send_and_read+0x24>
800022ca:	e0 6c 00 ff 	mov	r12,255
800022ce:	c0 28       	rjmp	800022d2 <sd_mmc_spi_send_and_read+0x26>
800022d0:	1b bc       	ld.ub	r12,sp[0x3]
800022d2:	2f fd       	sub	sp,-4
800022d4:	d8 02       	popm	pc
800022d6:	00 00       	add	r0,r0
800022d8:	80 00       	ld.sh	r0,r0[0x0]
800022da:	32 66       	mov	r6,38
800022dc:	80 00       	ld.sh	r0,r0[0x0]
800022de:	32 82       	mov	r2,40

800022e0 <sd_mmc_spi_wait_not_busy>:
800022e0:	d4 21       	pushm	r4-r7,lr
800022e2:	30 1b       	mov	r11,1
800022e4:	fe 7c 24 00 	mov	r12,-56320
800022e8:	f0 1f 00 10 	mcall	80002328 <sd_mmc_spi_wait_not_busy+0x48>
800022ec:	30 07       	mov	r7,0
800022ee:	e0 65 00 ff 	mov	r5,255
800022f2:	48 f4       	lddpc	r4,8000232c <sd_mmc_spi_wait_not_busy+0x4c>
800022f4:	3f f6       	mov	r6,-1
800022f6:	c0 b8       	rjmp	8000230c <sd_mmc_spi_wait_not_busy+0x2c>
800022f8:	2f f7       	sub	r7,-1
800022fa:	e2 57 0d 40 	cp.w	r7,200000
800022fe:	c0 71       	brne	8000230c <sd_mmc_spi_wait_not_busy+0x2c>
80002300:	30 1b       	mov	r11,1
80002302:	fe 7c 24 00 	mov	r12,-56320
80002306:	f0 1f 00 0b 	mcall	80002330 <sd_mmc_spi_wait_not_busy+0x50>
8000230a:	d8 2a       	popm	r4-r7,pc,r12=0
8000230c:	0a 9c       	mov	r12,r5
8000230e:	f0 1f 00 0a 	mcall	80002334 <sd_mmc_spi_wait_not_busy+0x54>
80002312:	a8 8c       	st.b	r4[0x0],r12
80002314:	ec 0c 18 00 	cp.b	r12,r6
80002318:	cf 01       	brne	800022f8 <sd_mmc_spi_wait_not_busy+0x18>
8000231a:	30 1b       	mov	r11,1
8000231c:	fe 7c 24 00 	mov	r12,-56320
80002320:	f0 1f 00 04 	mcall	80002330 <sd_mmc_spi_wait_not_busy+0x50>
80002324:	da 2a       	popm	r4-r7,pc,r12=1
80002326:	00 00       	add	r0,r0
80002328:	80 00       	ld.sh	r0,r0[0x0]
8000232a:	31 32       	mov	r2,19
8000232c:	00 00       	add	r0,r0
8000232e:	04 8c       	andn	r12,r2
80002330:	80 00       	ld.sh	r0,r0[0x0]
80002332:	31 7e       	mov	lr,23
80002334:	80 00       	ld.sh	r0,r0[0x0]
80002336:	22 ac       	sub	r12,42

80002338 <sd_mmc_spi_write_open>:
80002338:	d4 01       	pushm	lr
8000233a:	a9 7c       	lsl	r12,0x9
8000233c:	48 38       	lddpc	r8,80002348 <sd_mmc_spi_write_open+0x10>
8000233e:	91 0c       	st.w	r8[0x0],r12
80002340:	f0 1f 00 03 	mcall	8000234c <sd_mmc_spi_write_open+0x14>
80002344:	d8 02       	popm	pc
80002346:	00 00       	add	r0,r0
80002348:	00 00       	add	r0,r0
8000234a:	00 e8       	st.h	--r0,r8
8000234c:	80 00       	ld.sh	r0,r0[0x0]
8000234e:	22 e0       	sub	r0,46

80002350 <sd_mmc_spi_read_close>:
80002350:	d4 01       	pushm	lr
80002352:	f0 1f 00 03 	mcall	8000235c <sd_mmc_spi_read_close+0xc>
80002356:	5f 1c       	srne	r12
80002358:	d8 02       	popm	pc
8000235a:	00 00       	add	r0,r0
8000235c:	80 00       	ld.sh	r0,r0[0x0]
8000235e:	22 e0       	sub	r0,46

80002360 <sd_mmc_spi_read_open>:
80002360:	d4 01       	pushm	lr
80002362:	a9 7c       	lsl	r12,0x9
80002364:	48 38       	lddpc	r8,80002370 <sd_mmc_spi_read_open+0x10>
80002366:	91 0c       	st.w	r8[0x0],r12
80002368:	f0 1f 00 03 	mcall	80002374 <sd_mmc_spi_read_open+0x14>
8000236c:	d8 02       	popm	pc
8000236e:	00 00       	add	r0,r0
80002370:	00 00       	add	r0,r0
80002372:	00 e8       	st.h	--r0,r8
80002374:	80 00       	ld.sh	r0,r0[0x0]
80002376:	22 e0       	sub	r0,46

80002378 <sd_mmc_spi_command>:
80002378:	eb cd 40 f8 	pushm	r3-r7,lr
8000237c:	18 96       	mov	r6,r12
8000237e:	16 97       	mov	r7,r11
80002380:	e0 6b 00 ff 	mov	r11,255
80002384:	fe 7c 24 00 	mov	r12,-56320
80002388:	f0 1f 00 2b 	mcall	80002434 <sd_mmc_spi_command+0xbc>
8000238c:	0c 9b       	mov	r11,r6
8000238e:	a7 ab       	sbr	r11,0x6
80002390:	5c 5b       	castu.b	r11
80002392:	fe 7c 24 00 	mov	r12,-56320
80002396:	f0 1f 00 28 	mcall	80002434 <sd_mmc_spi_command+0xbc>
8000239a:	ee 0b 16 18 	lsr	r11,r7,0x18
8000239e:	fe 7c 24 00 	mov	r12,-56320
800023a2:	f0 1f 00 25 	mcall	80002434 <sd_mmc_spi_command+0xbc>
800023a6:	ee 0b 16 10 	lsr	r11,r7,0x10
800023aa:	fe 7c 24 00 	mov	r12,-56320
800023ae:	f0 1f 00 22 	mcall	80002434 <sd_mmc_spi_command+0xbc>
800023b2:	f7 d7 c1 10 	bfextu	r11,r7,0x8,0x10
800023b6:	fe 7c 24 00 	mov	r12,-56320
800023ba:	f0 1f 00 1f 	mcall	80002434 <sd_mmc_spi_command+0xbc>
800023be:	0e 9b       	mov	r11,r7
800023c0:	5c 7b       	castu.h	r11
800023c2:	fe 7c 24 00 	mov	r12,-56320
800023c6:	f0 1f 00 1c 	mcall	80002434 <sd_mmc_spi_command+0xbc>
800023ca:	30 08       	mov	r8,0
800023cc:	f0 06 18 00 	cp.b	r6,r8
800023d0:	c0 60       	breq	800023dc <sd_mmc_spi_command+0x64>
800023d2:	30 88       	mov	r8,8
800023d4:	f0 06 18 00 	cp.b	r6,r8
800023d8:	c1 01       	brne	800023f8 <sd_mmc_spi_command+0x80>
800023da:	c0 88       	rjmp	800023ea <sd_mmc_spi_command+0x72>
800023dc:	e0 6b 00 95 	mov	r11,149
800023e0:	fe 7c 24 00 	mov	r12,-56320
800023e4:	f0 1f 00 14 	mcall	80002434 <sd_mmc_spi_command+0xbc>
800023e8:	c0 e8       	rjmp	80002404 <sd_mmc_spi_command+0x8c>
800023ea:	e0 6b 00 87 	mov	r11,135
800023ee:	fe 7c 24 00 	mov	r12,-56320
800023f2:	f0 1f 00 11 	mcall	80002434 <sd_mmc_spi_command+0xbc>
800023f6:	c0 78       	rjmp	80002404 <sd_mmc_spi_command+0x8c>
800023f8:	e0 6b 00 ff 	mov	r11,255
800023fc:	fe 7c 24 00 	mov	r12,-56320
80002400:	f0 1f 00 0d 	mcall	80002434 <sd_mmc_spi_command+0xbc>
80002404:	3f f9       	mov	r9,-1
80002406:	48 d8       	lddpc	r8,80002438 <sd_mmc_spi_command+0xc0>
80002408:	b0 89       	st.b	r8[0x0],r9
8000240a:	30 07       	mov	r7,0
8000240c:	e0 64 00 ff 	mov	r4,255
80002410:	10 93       	mov	r3,r8
80002412:	12 96       	mov	r6,r9
80002414:	30 b5       	mov	r5,11
80002416:	c0 68       	rjmp	80002422 <sd_mmc_spi_command+0xaa>
80002418:	2f f7       	sub	r7,-1
8000241a:	5c 57       	castu.b	r7
8000241c:	ea 07 18 00 	cp.b	r7,r5
80002420:	c0 80       	breq	80002430 <sd_mmc_spi_command+0xb8>
80002422:	08 9c       	mov	r12,r4
80002424:	f0 1f 00 06 	mcall	8000243c <sd_mmc_spi_command+0xc4>
80002428:	a6 8c       	st.b	r3[0x0],r12
8000242a:	ec 0c 18 00 	cp.b	r12,r6
8000242e:	cf 50       	breq	80002418 <sd_mmc_spi_command+0xa0>
80002430:	e3 cd 80 f8 	ldm	sp++,r3-r7,pc
80002434:	80 00       	ld.sh	r0,r0[0x0]
80002436:	32 66       	mov	r6,38
80002438:	00 00       	add	r0,r0
8000243a:	04 8c       	andn	r12,r2
8000243c:	80 00       	ld.sh	r0,r0[0x0]
8000243e:	22 ac       	sub	r12,42

80002440 <sd_mmc_spi_send_command>:
80002440:	eb cd 40 c0 	pushm	r6-r7,lr
80002444:	18 97       	mov	r7,r12
80002446:	16 96       	mov	r6,r11
80002448:	30 1b       	mov	r11,1
8000244a:	fe 7c 24 00 	mov	r12,-56320
8000244e:	f0 1f 00 09 	mcall	80002470 <sd_mmc_spi_send_command+0x30>
80002452:	0c 9b       	mov	r11,r6
80002454:	0e 9c       	mov	r12,r7
80002456:	f0 1f 00 08 	mcall	80002474 <sd_mmc_spi_send_command+0x34>
8000245a:	48 87       	lddpc	r7,80002478 <sd_mmc_spi_send_command+0x38>
8000245c:	ae 8c       	st.b	r7[0x0],r12
8000245e:	30 1b       	mov	r11,1
80002460:	fe 7c 24 00 	mov	r12,-56320
80002464:	f0 1f 00 06 	mcall	8000247c <sd_mmc_spi_send_command+0x3c>
80002468:	0f 8c       	ld.ub	r12,r7[0x0]
8000246a:	e3 cd 80 c0 	ldm	sp++,r6-r7,pc
8000246e:	00 00       	add	r0,r0
80002470:	80 00       	ld.sh	r0,r0[0x0]
80002472:	31 32       	mov	r2,19
80002474:	80 00       	ld.sh	r0,r0[0x0]
80002476:	23 78       	sub	r8,55
80002478:	00 00       	add	r0,r0
8000247a:	04 8c       	andn	r12,r2
8000247c:	80 00       	ld.sh	r0,r0[0x0]
8000247e:	31 7e       	mov	lr,23

80002480 <sd_mmc_spi_check_presence>:
80002480:	eb cd 40 fe 	pushm	r1-r7,lr
80002484:	49 a8       	lddpc	r8,800024ec <sd_mmc_spi_check_presence+0x6c>
80002486:	11 89       	ld.ub	r9,r8[0x0]
80002488:	30 08       	mov	r8,0
8000248a:	f0 09 18 00 	cp.b	r9,r8
8000248e:	c1 f1       	brne	800024cc <sd_mmc_spi_check_presence+0x4c>
80002490:	30 07       	mov	r7,0
80002492:	0e 94       	mov	r4,r7
80002494:	49 73       	lddpc	r3,800024f0 <sd_mmc_spi_check_presence+0x70>
80002496:	30 16       	mov	r6,1
80002498:	e0 62 00 ff 	mov	r2,255
8000249c:	fe 71 24 00 	mov	r1,-56320
800024a0:	30 b5       	mov	r5,11
800024a2:	c0 c8       	rjmp	800024ba <sd_mmc_spi_check_presence+0x3a>
800024a4:	04 9b       	mov	r11,r2
800024a6:	02 9c       	mov	r12,r1
800024a8:	f0 1f 00 13 	mcall	800024f4 <sd_mmc_spi_check_presence+0x74>
800024ac:	2f f7       	sub	r7,-1
800024ae:	5c 87       	casts.h	r7
800024b0:	ea 07 19 00 	cp.h	r7,r5
800024b4:	c0 31       	brne	800024ba <sd_mmc_spi_check_presence+0x3a>
800024b6:	e3 cf 80 fe 	ldm	sp++,r1-r7,pc,r12=0
800024ba:	08 9b       	mov	r11,r4
800024bc:	08 9c       	mov	r12,r4
800024be:	f0 1f 00 0f 	mcall	800024f8 <sd_mmc_spi_check_presence+0x78>
800024c2:	a6 8c       	st.b	r3[0x0],r12
800024c4:	ec 0c 18 00 	cp.b	r12,r6
800024c8:	ce e1       	brne	800024a4 <sd_mmc_spi_check_presence+0x24>
800024ca:	c0 e8       	rjmp	800024e6 <sd_mmc_spi_check_presence+0x66>
800024cc:	30 0b       	mov	r11,0
800024ce:	33 bc       	mov	r12,59
800024d0:	f0 1f 00 0a 	mcall	800024f8 <sd_mmc_spi_check_presence+0x78>
800024d4:	48 78       	lddpc	r8,800024f0 <sd_mmc_spi_check_presence+0x70>
800024d6:	b0 8c       	st.b	r8[0x0],r12
800024d8:	58 0c       	cp.w	r12,0
800024da:	c0 60       	breq	800024e6 <sd_mmc_spi_check_presence+0x66>
800024dc:	30 09       	mov	r9,0
800024de:	48 48       	lddpc	r8,800024ec <sd_mmc_spi_check_presence+0x6c>
800024e0:	b0 89       	st.b	r8[0x0],r9
800024e2:	e3 cf 80 fe 	ldm	sp++,r1-r7,pc,r12=0
800024e6:	e3 cf 90 fe 	ldm	sp++,r1-r7,pc,r12=1
800024ea:	00 00       	add	r0,r0
800024ec:	00 00       	add	r0,r0
800024ee:	01 00       	ld.w	r0,r0++
800024f0:	00 00       	add	r0,r0
800024f2:	04 8c       	andn	r12,r2
800024f4:	80 00       	ld.sh	r0,r0[0x0]
800024f6:	32 66       	mov	r6,38
800024f8:	80 00       	ld.sh	r0,r0[0x0]
800024fa:	24 40       	sub	r0,68

800024fc <sd_mmc_spi_write_sector_from_ram>:
800024fc:	eb cd 40 e0 	pushm	r5-r7,lr
80002500:	18 97       	mov	r7,r12
80002502:	f0 1f 00 49 	mcall	80002624 <sd_mmc_spi_write_sector_from_ram+0x128>
80002506:	e0 80 00 8c 	breq	8000261e <sd_mmc_spi_write_sector_from_ram+0x122>
8000250a:	30 1b       	mov	r11,1
8000250c:	fe 7c 24 00 	mov	r12,-56320
80002510:	f0 1f 00 46 	mcall	80002628 <sd_mmc_spi_write_sector_from_ram+0x12c>
80002514:	4c 68       	lddpc	r8,8000262c <sd_mmc_spi_write_sector_from_ram+0x130>
80002516:	11 89       	ld.ub	r9,r8[0x0]
80002518:	30 38       	mov	r8,3
8000251a:	f0 09 18 00 	cp.b	r9,r8
8000251e:	c0 a1       	brne	80002532 <sd_mmc_spi_write_sector_from_ram+0x36>
80002520:	4c 48       	lddpc	r8,80002630 <sd_mmc_spi_write_sector_from_ram+0x134>
80002522:	70 0b       	ld.w	r11,r8[0x0]
80002524:	a9 9b       	lsr	r11,0x9
80002526:	31 8c       	mov	r12,24
80002528:	f0 1f 00 43 	mcall	80002634 <sd_mmc_spi_write_sector_from_ram+0x138>
8000252c:	4c 38       	lddpc	r8,80002638 <sd_mmc_spi_write_sector_from_ram+0x13c>
8000252e:	b0 8c       	st.b	r8[0x0],r12
80002530:	c0 88       	rjmp	80002540 <sd_mmc_spi_write_sector_from_ram+0x44>
80002532:	4c 08       	lddpc	r8,80002630 <sd_mmc_spi_write_sector_from_ram+0x134>
80002534:	70 0b       	ld.w	r11,r8[0x0]
80002536:	31 8c       	mov	r12,24
80002538:	f0 1f 00 3f 	mcall	80002634 <sd_mmc_spi_write_sector_from_ram+0x138>
8000253c:	4b f8       	lddpc	r8,80002638 <sd_mmc_spi_write_sector_from_ram+0x13c>
8000253e:	b0 8c       	st.b	r8[0x0],r12
80002540:	4b e8       	lddpc	r8,80002638 <sd_mmc_spi_write_sector_from_ram+0x13c>
80002542:	11 89       	ld.ub	r9,r8[0x0]
80002544:	30 08       	mov	r8,0
80002546:	f0 09 18 00 	cp.b	r9,r8
8000254a:	c0 80       	breq	8000255a <sd_mmc_spi_write_sector_from_ram+0x5e>
8000254c:	30 1b       	mov	r11,1
8000254e:	fe 7c 24 00 	mov	r12,-56320
80002552:	f0 1f 00 3b 	mcall	8000263c <sd_mmc_spi_write_sector_from_ram+0x140>
80002556:	e3 cf 80 e0 	ldm	sp++,r5-r7,pc,r12=0
8000255a:	e0 6b 00 ff 	mov	r11,255
8000255e:	fe 7c 24 00 	mov	r12,-56320
80002562:	f0 1f 00 38 	mcall	80002640 <sd_mmc_spi_write_sector_from_ram+0x144>
80002566:	e0 6b 00 fe 	mov	r11,254
8000256a:	fe 7c 24 00 	mov	r12,-56320
8000256e:	f0 1f 00 35 	mcall	80002640 <sd_mmc_spi_write_sector_from_ram+0x144>
80002572:	ee c6 fe 00 	sub	r6,r7,-512
80002576:	fe 75 24 00 	mov	r5,-56320
8000257a:	0f 3b       	ld.ub	r11,r7++
8000257c:	0a 9c       	mov	r12,r5
8000257e:	f0 1f 00 31 	mcall	80002640 <sd_mmc_spi_write_sector_from_ram+0x144>
80002582:	0c 37       	cp.w	r7,r6
80002584:	cf b1       	brne	8000257a <sd_mmc_spi_write_sector_from_ram+0x7e>
80002586:	e0 6b 00 ff 	mov	r11,255
8000258a:	fe 7c 24 00 	mov	r12,-56320
8000258e:	f0 1f 00 2d 	mcall	80002640 <sd_mmc_spi_write_sector_from_ram+0x144>
80002592:	e0 6b 00 ff 	mov	r11,255
80002596:	fe 7c 24 00 	mov	r12,-56320
8000259a:	f0 1f 00 2a 	mcall	80002640 <sd_mmc_spi_write_sector_from_ram+0x144>
8000259e:	e0 6c 00 ff 	mov	r12,255
800025a2:	f0 1f 00 29 	mcall	80002644 <sd_mmc_spi_write_sector_from_ram+0x148>
800025a6:	4a 58       	lddpc	r8,80002638 <sd_mmc_spi_write_sector_from_ram+0x13c>
800025a8:	b0 8c       	st.b	r8[0x0],r12
800025aa:	f9 dc c0 05 	bfextu	r12,r12,0x0,0x5
800025ae:	58 5c       	cp.w	r12,5
800025b0:	c1 40       	breq	800025d8 <sd_mmc_spi_write_sector_from_ram+0xdc>
800025b2:	e0 6b 00 ff 	mov	r11,255
800025b6:	fe 7c 24 00 	mov	r12,-56320
800025ba:	f0 1f 00 22 	mcall	80002640 <sd_mmc_spi_write_sector_from_ram+0x144>
800025be:	e0 6b 00 ff 	mov	r11,255
800025c2:	fe 7c 24 00 	mov	r12,-56320
800025c6:	f0 1f 00 1f 	mcall	80002640 <sd_mmc_spi_write_sector_from_ram+0x144>
800025ca:	30 1b       	mov	r11,1
800025cc:	fe 7c 24 00 	mov	r12,-56320
800025d0:	f0 1f 00 1b 	mcall	8000263c <sd_mmc_spi_write_sector_from_ram+0x140>
800025d4:	e3 cf 80 e0 	ldm	sp++,r5-r7,pc,r12=0
800025d8:	e0 6b 00 ff 	mov	r11,255
800025dc:	fe 7c 24 00 	mov	r12,-56320
800025e0:	f0 1f 00 18 	mcall	80002640 <sd_mmc_spi_write_sector_from_ram+0x144>
800025e4:	e0 6b 00 ff 	mov	r11,255
800025e8:	fe 7c 24 00 	mov	r12,-56320
800025ec:	f0 1f 00 15 	mcall	80002640 <sd_mmc_spi_write_sector_from_ram+0x144>
800025f0:	30 1b       	mov	r11,1
800025f2:	fe 7c 24 00 	mov	r12,-56320
800025f6:	f0 1f 00 12 	mcall	8000263c <sd_mmc_spi_write_sector_from_ram+0x140>
800025fa:	48 e8       	lddpc	r8,80002630 <sd_mmc_spi_write_sector_from_ram+0x134>
800025fc:	70 09       	ld.w	r9,r8[0x0]
800025fe:	f2 c9 fe 00 	sub	r9,r9,-512
80002602:	91 09       	st.w	r8[0x0],r9
80002604:	30 07       	mov	r7,0
80002606:	30 a6       	mov	r6,10
80002608:	c0 68       	rjmp	80002614 <sd_mmc_spi_write_sector_from_ram+0x118>
8000260a:	2f f7       	sub	r7,-1
8000260c:	5c 87       	casts.h	r7
8000260e:	ec 07 19 00 	cp.h	r7,r6
80002612:	c0 60       	breq	8000261e <sd_mmc_spi_write_sector_from_ram+0x122>
80002614:	f0 1f 00 04 	mcall	80002624 <sd_mmc_spi_write_sector_from_ram+0x128>
80002618:	cf 90       	breq	8000260a <sd_mmc_spi_write_sector_from_ram+0x10e>
8000261a:	e3 cf 90 e0 	ldm	sp++,r5-r7,pc,r12=1
8000261e:	e3 cf 80 e0 	ldm	sp++,r5-r7,pc,r12=0
80002622:	00 00       	add	r0,r0
80002624:	80 00       	ld.sh	r0,r0[0x0]
80002626:	22 e0       	sub	r0,46
80002628:	80 00       	ld.sh	r0,r0[0x0]
8000262a:	31 32       	mov	r2,19
8000262c:	00 00       	add	r0,r0
8000262e:	04 7a       	tst	r10,r2
80002630:	00 00       	add	r0,r0
80002632:	00 e8       	st.h	--r0,r8
80002634:	80 00       	ld.sh	r0,r0[0x0]
80002636:	23 78       	sub	r8,55
80002638:	00 00       	add	r0,r0
8000263a:	04 8c       	andn	r12,r2
8000263c:	80 00       	ld.sh	r0,r0[0x0]
8000263e:	31 7e       	mov	lr,23
80002640:	80 00       	ld.sh	r0,r0[0x0]
80002642:	32 66       	mov	r6,38
80002644:	80 00       	ld.sh	r0,r0[0x0]
80002646:	22 ac       	sub	r12,42

80002648 <sd_mmc_spi_check_hc>:
80002648:	eb cd 40 c0 	pushm	r6-r7,lr
8000264c:	f0 1f 00 1c 	mcall	800026bc <sd_mmc_spi_check_hc+0x74>
80002650:	c0 31       	brne	80002656 <sd_mmc_spi_check_hc+0xe>
80002652:	e3 cf c0 c0 	ldm	sp++,r6-r7,pc,r12=-1
80002656:	30 1b       	mov	r11,1
80002658:	fe 7c 24 00 	mov	r12,-56320
8000265c:	f0 1f 00 19 	mcall	800026c0 <sd_mmc_spi_check_hc+0x78>
80002660:	30 0b       	mov	r11,0
80002662:	33 ac       	mov	r12,58
80002664:	f0 1f 00 18 	mcall	800026c4 <sd_mmc_spi_check_hc+0x7c>
80002668:	49 88       	lddpc	r8,800026c8 <sd_mmc_spi_check_hc+0x80>
8000266a:	b0 8c       	st.b	r8[0x0],r12
8000266c:	58 0c       	cp.w	r12,0
8000266e:	c0 80       	breq	8000267e <sd_mmc_spi_check_hc+0x36>
80002670:	30 1b       	mov	r11,1
80002672:	fe 7c 24 00 	mov	r12,-56320
80002676:	f0 1f 00 16 	mcall	800026cc <sd_mmc_spi_check_hc+0x84>
8000267a:	e3 cf c0 c0 	ldm	sp++,r6-r7,pc,r12=-1
8000267e:	e0 6c 00 ff 	mov	r12,255
80002682:	f0 1f 00 14 	mcall	800026d0 <sd_mmc_spi_check_hc+0x88>
80002686:	18 96       	mov	r6,r12
80002688:	e0 6c 00 ff 	mov	r12,255
8000268c:	f0 1f 00 11 	mcall	800026d0 <sd_mmc_spi_check_hc+0x88>
80002690:	48 e7       	lddpc	r7,800026c8 <sd_mmc_spi_check_hc+0x80>
80002692:	ae 8c       	st.b	r7[0x0],r12
80002694:	e0 6c 00 ff 	mov	r12,255
80002698:	f0 1f 00 0e 	mcall	800026d0 <sd_mmc_spi_check_hc+0x88>
8000269c:	ae 8c       	st.b	r7[0x0],r12
8000269e:	e0 6c 00 ff 	mov	r12,255
800026a2:	f0 1f 00 0c 	mcall	800026d0 <sd_mmc_spi_check_hc+0x88>
800026a6:	ae 8c       	st.b	r7[0x0],r12
800026a8:	30 1b       	mov	r11,1
800026aa:	fe 7c 24 00 	mov	r12,-56320
800026ae:	f0 1f 00 08 	mcall	800026cc <sd_mmc_spi_check_hc+0x84>
800026b2:	f9 d6 c0 c1 	bfextu	r12,r6,0x6,0x1
800026b6:	e3 cd 80 c0 	ldm	sp++,r6-r7,pc
800026ba:	00 00       	add	r0,r0
800026bc:	80 00       	ld.sh	r0,r0[0x0]
800026be:	22 e0       	sub	r0,46
800026c0:	80 00       	ld.sh	r0,r0[0x0]
800026c2:	31 32       	mov	r2,19
800026c4:	80 00       	ld.sh	r0,r0[0x0]
800026c6:	23 78       	sub	r8,55
800026c8:	00 00       	add	r0,r0
800026ca:	04 8c       	andn	r12,r2
800026cc:	80 00       	ld.sh	r0,r0[0x0]
800026ce:	31 7e       	mov	lr,23
800026d0:	80 00       	ld.sh	r0,r0[0x0]
800026d2:	22 ac       	sub	r12,42

800026d4 <sd_mmc_spi_get_if>:
800026d4:	eb cd 40 80 	pushm	r7,lr
800026d8:	f0 1f 00 27 	mcall	80002774 <sd_mmc_spi_get_if+0xa0>
800026dc:	c0 31       	brne	800026e2 <sd_mmc_spi_get_if+0xe>
800026de:	e3 cf c0 80 	ldm	sp++,r7,pc,r12=-1
800026e2:	30 1b       	mov	r11,1
800026e4:	fe 7c 24 00 	mov	r12,-56320
800026e8:	f0 1f 00 24 	mcall	80002778 <sd_mmc_spi_get_if+0xa4>
800026ec:	e0 6b 01 aa 	mov	r11,426
800026f0:	30 8c       	mov	r12,8
800026f2:	f0 1f 00 23 	mcall	8000277c <sd_mmc_spi_get_if+0xa8>
800026f6:	4a 38       	lddpc	r8,80002780 <sd_mmc_spi_get_if+0xac>
800026f8:	b0 8c       	st.b	r8[0x0],r12
800026fa:	e2 1c 00 04 	andl	r12,0x4,COH
800026fe:	c0 80       	breq	8000270e <sd_mmc_spi_get_if+0x3a>
80002700:	30 1b       	mov	r11,1
80002702:	fe 7c 24 00 	mov	r12,-56320
80002706:	f0 1f 00 20 	mcall	80002784 <sd_mmc_spi_get_if+0xb0>
8000270a:	e3 cf 80 80 	ldm	sp++,r7,pc,r12=0
8000270e:	e0 6c 00 ff 	mov	r12,255
80002712:	f0 1f 00 1e 	mcall	80002788 <sd_mmc_spi_get_if+0xb4>
80002716:	49 b7       	lddpc	r7,80002780 <sd_mmc_spi_get_if+0xac>
80002718:	ae 8c       	st.b	r7[0x0],r12
8000271a:	e0 6c 00 ff 	mov	r12,255
8000271e:	f0 1f 00 1b 	mcall	80002788 <sd_mmc_spi_get_if+0xb4>
80002722:	ae 8c       	st.b	r7[0x0],r12
80002724:	e0 6c 00 ff 	mov	r12,255
80002728:	f0 1f 00 18 	mcall	80002788 <sd_mmc_spi_get_if+0xb4>
8000272c:	ae 8c       	st.b	r7[0x0],r12
8000272e:	f9 dc c0 01 	bfextu	r12,r12,0x0,0x1
80002732:	c0 81       	brne	80002742 <sd_mmc_spi_get_if+0x6e>
80002734:	30 1b       	mov	r11,1
80002736:	fe 7c 24 00 	mov	r12,-56320
8000273a:	f0 1f 00 13 	mcall	80002784 <sd_mmc_spi_get_if+0xb0>
8000273e:	e3 cf c0 80 	ldm	sp++,r7,pc,r12=-1
80002742:	e0 6c 00 ff 	mov	r12,255
80002746:	f0 1f 00 11 	mcall	80002788 <sd_mmc_spi_get_if+0xb4>
8000274a:	48 e8       	lddpc	r8,80002780 <sd_mmc_spi_get_if+0xac>
8000274c:	b0 8c       	st.b	r8[0x0],r12
8000274e:	3a a8       	mov	r8,-86
80002750:	f0 0c 18 00 	cp.b	r12,r8
80002754:	c0 80       	breq	80002764 <sd_mmc_spi_get_if+0x90>
80002756:	30 1b       	mov	r11,1
80002758:	fe 7c 24 00 	mov	r12,-56320
8000275c:	f0 1f 00 0a 	mcall	80002784 <sd_mmc_spi_get_if+0xb0>
80002760:	e3 cf c0 80 	ldm	sp++,r7,pc,r12=-1
80002764:	30 1b       	mov	r11,1
80002766:	fe 7c 24 00 	mov	r12,-56320
8000276a:	f0 1f 00 07 	mcall	80002784 <sd_mmc_spi_get_if+0xb0>
8000276e:	e3 cf 90 80 	ldm	sp++,r7,pc,r12=1
80002772:	00 00       	add	r0,r0
80002774:	80 00       	ld.sh	r0,r0[0x0]
80002776:	22 e0       	sub	r0,46
80002778:	80 00       	ld.sh	r0,r0[0x0]
8000277a:	31 32       	mov	r2,19
8000277c:	80 00       	ld.sh	r0,r0[0x0]
8000277e:	23 78       	sub	r8,55
80002780:	00 00       	add	r0,r0
80002782:	04 8c       	andn	r12,r2
80002784:	80 00       	ld.sh	r0,r0[0x0]
80002786:	31 7e       	mov	lr,23
80002788:	80 00       	ld.sh	r0,r0[0x0]
8000278a:	22 ac       	sub	r12,42

8000278c <sd_mmc_spi_read_sector_to_ram>:
8000278c:	eb cd 40 f8 	pushm	r3-r7,lr
80002790:	20 1d       	sub	sp,4
80002792:	18 93       	mov	r3,r12
80002794:	f0 1f 00 48 	mcall	800028b4 <sd_mmc_spi_read_sector_to_ram+0x128>
80002798:	e0 80 00 8a 	breq	800028ac <sd_mmc_spi_read_sector_to_ram+0x120>
8000279c:	30 1b       	mov	r11,1
8000279e:	fe 7c 24 00 	mov	r12,-56320
800027a2:	f0 1f 00 46 	mcall	800028b8 <sd_mmc_spi_read_sector_to_ram+0x12c>
800027a6:	4c 68       	lddpc	r8,800028bc <sd_mmc_spi_read_sector_to_ram+0x130>
800027a8:	11 89       	ld.ub	r9,r8[0x0]
800027aa:	30 38       	mov	r8,3
800027ac:	f0 09 18 00 	cp.b	r9,r8
800027b0:	c0 a1       	brne	800027c4 <sd_mmc_spi_read_sector_to_ram+0x38>
800027b2:	4c 48       	lddpc	r8,800028c0 <sd_mmc_spi_read_sector_to_ram+0x134>
800027b4:	70 0b       	ld.w	r11,r8[0x0]
800027b6:	a9 9b       	lsr	r11,0x9
800027b8:	31 1c       	mov	r12,17
800027ba:	f0 1f 00 43 	mcall	800028c4 <sd_mmc_spi_read_sector_to_ram+0x138>
800027be:	4c 38       	lddpc	r8,800028c8 <sd_mmc_spi_read_sector_to_ram+0x13c>
800027c0:	b0 8c       	st.b	r8[0x0],r12
800027c2:	c0 88       	rjmp	800027d2 <sd_mmc_spi_read_sector_to_ram+0x46>
800027c4:	4b f8       	lddpc	r8,800028c0 <sd_mmc_spi_read_sector_to_ram+0x134>
800027c6:	70 0b       	ld.w	r11,r8[0x0]
800027c8:	31 1c       	mov	r12,17
800027ca:	f0 1f 00 3f 	mcall	800028c4 <sd_mmc_spi_read_sector_to_ram+0x138>
800027ce:	4b f8       	lddpc	r8,800028c8 <sd_mmc_spi_read_sector_to_ram+0x13c>
800027d0:	b0 8c       	st.b	r8[0x0],r12
800027d2:	4b e8       	lddpc	r8,800028c8 <sd_mmc_spi_read_sector_to_ram+0x13c>
800027d4:	11 89       	ld.ub	r9,r8[0x0]
800027d6:	30 08       	mov	r8,0
800027d8:	f0 09 18 00 	cp.b	r9,r8
800027dc:	c1 20       	breq	80002800 <sd_mmc_spi_read_sector_to_ram+0x74>
800027de:	30 1b       	mov	r11,1
800027e0:	fe 7c 24 00 	mov	r12,-56320
800027e4:	f0 1f 00 3a 	mcall	800028cc <sd_mmc_spi_read_sector_to_ram+0x140>
800027e8:	30 0c       	mov	r12,0
800027ea:	c6 18       	rjmp	800028ac <sd_mmc_spi_read_sector_to_ram+0x120>
800027ec:	20 17       	sub	r7,1
800027ee:	5c 87       	casts.h	r7
800027f0:	c0 e1       	brne	8000280c <sd_mmc_spi_read_sector_to_ram+0x80>
800027f2:	30 1b       	mov	r11,1
800027f4:	fe 7c 24 00 	mov	r12,-56320
800027f8:	f0 1f 00 35 	mcall	800028cc <sd_mmc_spi_read_sector_to_ram+0x140>
800027fc:	30 0c       	mov	r12,0
800027fe:	c5 78       	rjmp	800028ac <sd_mmc_spi_read_sector_to_ram+0x120>
80002800:	e0 67 75 30 	mov	r7,30000
80002804:	e0 65 00 ff 	mov	r5,255
80002808:	4b 04       	lddpc	r4,800028c8 <sd_mmc_spi_read_sector_to_ram+0x13c>
8000280a:	3f f6       	mov	r6,-1
8000280c:	0a 9c       	mov	r12,r5
8000280e:	f0 1f 00 31 	mcall	800028d0 <sd_mmc_spi_read_sector_to_ram+0x144>
80002812:	a8 8c       	st.b	r4[0x0],r12
80002814:	ec 0c 18 00 	cp.b	r12,r6
80002818:	ce a0       	breq	800027ec <sd_mmc_spi_read_sector_to_ram+0x60>
8000281a:	3f e8       	mov	r8,-2
8000281c:	f0 0c 18 00 	cp.b	r12,r8
80002820:	c0 e0       	breq	8000283c <sd_mmc_spi_read_sector_to_ram+0xb0>
80002822:	e0 6b 00 ff 	mov	r11,255
80002826:	fe 7c 24 00 	mov	r12,-56320
8000282a:	f0 1f 00 2b 	mcall	800028d4 <sd_mmc_spi_read_sector_to_ram+0x148>
8000282e:	30 1b       	mov	r11,1
80002830:	fe 7c 24 00 	mov	r12,-56320
80002834:	f0 1f 00 26 	mcall	800028cc <sd_mmc_spi_read_sector_to_ram+0x140>
80002838:	30 0c       	mov	r12,0
8000283a:	c3 98       	rjmp	800028ac <sd_mmc_spi_read_sector_to_ram+0x120>
8000283c:	06 97       	mov	r7,r3
8000283e:	e6 c5 fe 00 	sub	r5,r3,-512
80002842:	e0 64 00 ff 	mov	r4,255
80002846:	fe 76 24 00 	mov	r6,-56320
8000284a:	fa c3 ff fe 	sub	r3,sp,-2
8000284e:	08 9b       	mov	r11,r4
80002850:	0c 9c       	mov	r12,r6
80002852:	f0 1f 00 21 	mcall	800028d4 <sd_mmc_spi_read_sector_to_ram+0x148>
80002856:	06 9b       	mov	r11,r3
80002858:	0c 9c       	mov	r12,r6
8000285a:	f0 1f 00 20 	mcall	800028d8 <sd_mmc_spi_read_sector_to_ram+0x14c>
8000285e:	9a 18       	ld.sh	r8,sp[0x2]
80002860:	0e c8       	st.b	r7++,r8
80002862:	0a 37       	cp.w	r7,r5
80002864:	cf 51       	brne	8000284e <sd_mmc_spi_read_sector_to_ram+0xc2>
80002866:	49 78       	lddpc	r8,800028c0 <sd_mmc_spi_read_sector_to_ram+0x134>
80002868:	70 09       	ld.w	r9,r8[0x0]
8000286a:	f2 c9 fe 00 	sub	r9,r9,-512
8000286e:	91 09       	st.w	r8[0x0],r9
80002870:	e0 6b 00 ff 	mov	r11,255
80002874:	fe 7c 24 00 	mov	r12,-56320
80002878:	f0 1f 00 17 	mcall	800028d4 <sd_mmc_spi_read_sector_to_ram+0x148>
8000287c:	e0 6b 00 ff 	mov	r11,255
80002880:	fe 7c 24 00 	mov	r12,-56320
80002884:	f0 1f 00 14 	mcall	800028d4 <sd_mmc_spi_read_sector_to_ram+0x148>
80002888:	e0 6b 00 ff 	mov	r11,255
8000288c:	fe 7c 24 00 	mov	r12,-56320
80002890:	f0 1f 00 11 	mcall	800028d4 <sd_mmc_spi_read_sector_to_ram+0x148>
80002894:	e0 6b 00 ff 	mov	r11,255
80002898:	fe 7c 24 00 	mov	r12,-56320
8000289c:	f0 1f 00 0e 	mcall	800028d4 <sd_mmc_spi_read_sector_to_ram+0x148>
800028a0:	30 1b       	mov	r11,1
800028a2:	fe 7c 24 00 	mov	r12,-56320
800028a6:	f0 1f 00 0a 	mcall	800028cc <sd_mmc_spi_read_sector_to_ram+0x140>
800028aa:	30 1c       	mov	r12,1
800028ac:	2f fd       	sub	sp,-4
800028ae:	e3 cd 80 f8 	ldm	sp++,r3-r7,pc
800028b2:	00 00       	add	r0,r0
800028b4:	80 00       	ld.sh	r0,r0[0x0]
800028b6:	22 e0       	sub	r0,46
800028b8:	80 00       	ld.sh	r0,r0[0x0]
800028ba:	31 32       	mov	r2,19
800028bc:	00 00       	add	r0,r0
800028be:	04 7a       	tst	r10,r2
800028c0:	00 00       	add	r0,r0
800028c2:	00 e8       	st.h	--r0,r8
800028c4:	80 00       	ld.sh	r0,r0[0x0]
800028c6:	23 78       	sub	r8,55
800028c8:	00 00       	add	r0,r0
800028ca:	04 8c       	andn	r12,r2
800028cc:	80 00       	ld.sh	r0,r0[0x0]
800028ce:	31 7e       	mov	lr,23
800028d0:	80 00       	ld.sh	r0,r0[0x0]
800028d2:	22 ac       	sub	r12,42
800028d4:	80 00       	ld.sh	r0,r0[0x0]
800028d6:	32 66       	mov	r6,38
800028d8:	80 00       	ld.sh	r0,r0[0x0]
800028da:	32 82       	mov	r2,40

800028dc <sd_mmc_spi_get_csd>:
800028dc:	eb cd 40 fc 	pushm	r2-r7,lr
800028e0:	20 1d       	sub	sp,4
800028e2:	18 92       	mov	r2,r12
800028e4:	f0 1f 00 32 	mcall	800029ac <sd_mmc_spi_get_csd+0xd0>
800028e8:	c5 f0       	breq	800029a6 <sd_mmc_spi_get_csd+0xca>
800028ea:	30 1b       	mov	r11,1
800028ec:	fe 7c 24 00 	mov	r12,-56320
800028f0:	f0 1f 00 30 	mcall	800029b0 <sd_mmc_spi_get_csd+0xd4>
800028f4:	30 0b       	mov	r11,0
800028f6:	30 9c       	mov	r12,9
800028f8:	f0 1f 00 2f 	mcall	800029b4 <sd_mmc_spi_get_csd+0xd8>
800028fc:	4a f8       	lddpc	r8,800029b8 <sd_mmc_spi_get_csd+0xdc>
800028fe:	b0 8c       	st.b	r8[0x0],r12
80002900:	58 0c       	cp.w	r12,0
80002902:	c0 81       	brne	80002912 <sd_mmc_spi_get_csd+0x36>
80002904:	30 07       	mov	r7,0
80002906:	e0 64 00 ff 	mov	r4,255
8000290a:	10 93       	mov	r3,r8
8000290c:	3f e6       	mov	r6,-2
8000290e:	30 95       	mov	r5,9
80002910:	c1 78       	rjmp	8000293e <sd_mmc_spi_get_csd+0x62>
80002912:	30 1b       	mov	r11,1
80002914:	fe 7c 24 00 	mov	r12,-56320
80002918:	f0 1f 00 29 	mcall	800029bc <sd_mmc_spi_get_csd+0xe0>
8000291c:	30 09       	mov	r9,0
8000291e:	4a 98       	lddpc	r8,800029c0 <sd_mmc_spi_get_csd+0xe4>
80002920:	b0 89       	st.b	r8[0x0],r9
80002922:	30 0c       	mov	r12,0
80002924:	c4 18       	rjmp	800029a6 <sd_mmc_spi_get_csd+0xca>
80002926:	ea 07 18 00 	cp.b	r7,r5
8000292a:	c0 81       	brne	8000293a <sd_mmc_spi_get_csd+0x5e>
8000292c:	30 1b       	mov	r11,1
8000292e:	fe 7c 24 00 	mov	r12,-56320
80002932:	f0 1f 00 23 	mcall	800029bc <sd_mmc_spi_get_csd+0xe0>
80002936:	30 0c       	mov	r12,0
80002938:	c3 78       	rjmp	800029a6 <sd_mmc_spi_get_csd+0xca>
8000293a:	2f f7       	sub	r7,-1
8000293c:	5c 57       	castu.b	r7
8000293e:	08 9c       	mov	r12,r4
80002940:	f0 1f 00 21 	mcall	800029c4 <sd_mmc_spi_get_csd+0xe8>
80002944:	a6 8c       	st.b	r3[0x0],r12
80002946:	ec 0c 18 00 	cp.b	r12,r6
8000294a:	ce e1       	brne	80002926 <sd_mmc_spi_get_csd+0x4a>
8000294c:	30 07       	mov	r7,0
8000294e:	e0 65 00 ff 	mov	r5,255
80002952:	fe 76 24 00 	mov	r6,-56320
80002956:	fa c4 ff fe 	sub	r4,sp,-2
8000295a:	0a 9b       	mov	r11,r5
8000295c:	0c 9c       	mov	r12,r6
8000295e:	f0 1f 00 1b 	mcall	800029c8 <sd_mmc_spi_get_csd+0xec>
80002962:	08 9b       	mov	r11,r4
80002964:	0c 9c       	mov	r12,r6
80002966:	f0 1f 00 1a 	mcall	800029cc <sd_mmc_spi_get_csd+0xf0>
8000296a:	9a 18       	ld.sh	r8,sp[0x2]
8000296c:	e4 07 0b 08 	st.b	r2[r7],r8
80002970:	2f f7       	sub	r7,-1
80002972:	59 07       	cp.w	r7,16
80002974:	cf 31       	brne	8000295a <sd_mmc_spi_get_csd+0x7e>
80002976:	e0 6b 00 ff 	mov	r11,255
8000297a:	fe 7c 24 00 	mov	r12,-56320
8000297e:	f0 1f 00 13 	mcall	800029c8 <sd_mmc_spi_get_csd+0xec>
80002982:	e0 6b 00 ff 	mov	r11,255
80002986:	fe 7c 24 00 	mov	r12,-56320
8000298a:	f0 1f 00 10 	mcall	800029c8 <sd_mmc_spi_get_csd+0xec>
8000298e:	e0 6b 00 ff 	mov	r11,255
80002992:	fe 7c 24 00 	mov	r12,-56320
80002996:	f0 1f 00 0d 	mcall	800029c8 <sd_mmc_spi_get_csd+0xec>
8000299a:	30 1b       	mov	r11,1
8000299c:	fe 7c 24 00 	mov	r12,-56320
800029a0:	f0 1f 00 07 	mcall	800029bc <sd_mmc_spi_get_csd+0xe0>
800029a4:	30 1c       	mov	r12,1
800029a6:	2f fd       	sub	sp,-4
800029a8:	e3 cd 80 fc 	ldm	sp++,r2-r7,pc
800029ac:	80 00       	ld.sh	r0,r0[0x0]
800029ae:	22 e0       	sub	r0,46
800029b0:	80 00       	ld.sh	r0,r0[0x0]
800029b2:	31 32       	mov	r2,19
800029b4:	80 00       	ld.sh	r0,r0[0x0]
800029b6:	23 78       	sub	r8,55
800029b8:	00 00       	add	r0,r0
800029ba:	04 8c       	andn	r12,r2
800029bc:	80 00       	ld.sh	r0,r0[0x0]
800029be:	31 7e       	mov	lr,23
800029c0:	00 00       	add	r0,r0
800029c2:	01 00       	ld.w	r0,r0++
800029c4:	80 00       	ld.sh	r0,r0[0x0]
800029c6:	22 ac       	sub	r12,42
800029c8:	80 00       	ld.sh	r0,r0[0x0]
800029ca:	32 66       	mov	r6,38
800029cc:	80 00       	ld.sh	r0,r0[0x0]
800029ce:	32 82       	mov	r2,40

800029d0 <sd_mmc_spi_internal_init>:
800029d0:	d4 31       	pushm	r0-r7,lr
800029d2:	fe fb 02 6a 	ld.w	r11,pc[618]
800029d6:	e6 68 1a 80 	mov	r8,400000
800029da:	97 18       	st.w	r11[0x4],r8
800029dc:	fe f8 02 64 	ld.w	r8,pc[612]
800029e0:	70 0a       	ld.w	r10,r8[0x0]
800029e2:	fe 7c 24 00 	mov	r12,-56320
800029e6:	f0 1f 00 98 	mcall	80002c44 <sd_mmc_spi_internal_init+0x274>
800029ea:	30 1b       	mov	r11,1
800029ec:	fe 7c 24 00 	mov	r12,-56320
800029f0:	f0 1f 00 96 	mcall	80002c48 <sd_mmc_spi_internal_init+0x278>
800029f4:	30 07       	mov	r7,0
800029f6:	e0 66 00 ff 	mov	r6,255
800029fa:	fe 75 24 00 	mov	r5,-56320
800029fe:	0c 9b       	mov	r11,r6
80002a00:	0a 9c       	mov	r12,r5
80002a02:	f0 1f 00 93 	mcall	80002c4c <sd_mmc_spi_internal_init+0x27c>
80002a06:	2f f7       	sub	r7,-1
80002a08:	58 a7       	cp.w	r7,10
80002a0a:	cf a1       	brne	800029fe <sd_mmc_spi_internal_init+0x2e>
80002a0c:	30 1b       	mov	r11,1
80002a0e:	fe 7c 24 00 	mov	r12,-56320
80002a12:	f0 1f 00 90 	mcall	80002c50 <sd_mmc_spi_internal_init+0x280>
80002a16:	30 08       	mov	r8,0
80002a18:	fe f9 02 3c 	ld.w	r9,pc[572]
80002a1c:	b2 88       	st.b	r9[0x0],r8
80002a1e:	fe f9 02 3a 	ld.w	r9,pc[570]
80002a22:	b2 88       	st.b	r9[0x0],r8
80002a24:	30 0b       	mov	r11,0
80002a26:	16 9c       	mov	r12,r11
80002a28:	f0 1f 00 8d 	mcall	80002c5c <sd_mmc_spi_internal_init+0x28c>
80002a2c:	fe f8 02 34 	ld.w	r8,pc[564]
80002a30:	b0 8c       	st.b	r8[0x0],r12
80002a32:	e0 6b 00 ff 	mov	r11,255
80002a36:	fe 7c 24 00 	mov	r12,-56320
80002a3a:	f0 1f 00 85 	mcall	80002c4c <sd_mmc_spi_internal_init+0x27c>
80002a3e:	30 17       	mov	r7,1
80002a40:	fe f6 02 20 	ld.w	r6,pc[544]
80002a44:	30 15       	mov	r5,1
80002a46:	30 03       	mov	r3,0
80002a48:	e0 62 00 ff 	mov	r2,255
80002a4c:	fe 71 24 00 	mov	r1,-56320
80002a50:	36 54       	mov	r4,101
80002a52:	c1 08       	rjmp	80002a72 <sd_mmc_spi_internal_init+0xa2>
80002a54:	06 9b       	mov	r11,r3
80002a56:	06 9c       	mov	r12,r3
80002a58:	f0 1f 00 81 	mcall	80002c5c <sd_mmc_spi_internal_init+0x28c>
80002a5c:	ac 8c       	st.b	r6[0x0],r12
80002a5e:	04 9b       	mov	r11,r2
80002a60:	02 9c       	mov	r12,r1
80002a62:	f0 1f 00 7b 	mcall	80002c4c <sd_mmc_spi_internal_init+0x27c>
80002a66:	2f f7       	sub	r7,-1
80002a68:	5c 87       	casts.h	r7
80002a6a:	e8 07 19 00 	cp.h	r7,r4
80002a6e:	e0 80 00 e5 	breq	80002c38 <sd_mmc_spi_internal_init+0x268>
80002a72:	0d 88       	ld.ub	r8,r6[0x0]
80002a74:	ea 08 18 00 	cp.b	r8,r5
80002a78:	ce e1       	brne	80002a54 <sd_mmc_spi_internal_init+0x84>
80002a7a:	f0 1f 00 7b 	mcall	80002c64 <sd_mmc_spi_internal_init+0x294>
80002a7e:	5b fc       	cp.w	r12,-1
80002a80:	e0 80 00 dc 	breq	80002c38 <sd_mmc_spi_internal_init+0x268>
80002a84:	58 1c       	cp.w	r12,1
80002a86:	c0 51       	brne	80002a90 <sd_mmc_spi_internal_init+0xc0>
80002a88:	30 29       	mov	r9,2
80002a8a:	4f 48       	lddpc	r8,80002c58 <sd_mmc_spi_internal_init+0x288>
80002a8c:	b0 89       	st.b	r8[0x0],r9
80002a8e:	c4 c8       	rjmp	80002b26 <sd_mmc_spi_internal_init+0x156>
80002a90:	30 0b       	mov	r11,0
80002a92:	33 7c       	mov	r12,55
80002a94:	f0 1f 00 72 	mcall	80002c5c <sd_mmc_spi_internal_init+0x28c>
80002a98:	4f 27       	lddpc	r7,80002c60 <sd_mmc_spi_internal_init+0x290>
80002a9a:	ae 8c       	st.b	r7[0x0],r12
80002a9c:	e0 6b 00 ff 	mov	r11,255
80002aa0:	fe 7c 24 00 	mov	r12,-56320
80002aa4:	f0 1f 00 6a 	mcall	80002c4c <sd_mmc_spi_internal_init+0x27c>
80002aa8:	30 0b       	mov	r11,0
80002aaa:	32 9c       	mov	r12,41
80002aac:	f0 1f 00 6c 	mcall	80002c5c <sd_mmc_spi_internal_init+0x28c>
80002ab0:	ae 8c       	st.b	r7[0x0],r12
80002ab2:	e0 6b 00 ff 	mov	r11,255
80002ab6:	fe 7c 24 00 	mov	r12,-56320
80002aba:	f0 1f 00 65 	mcall	80002c4c <sd_mmc_spi_internal_init+0x27c>
80002abe:	0f 88       	ld.ub	r8,r7[0x0]
80002ac0:	e2 18 00 fe 	andl	r8,0xfe,COH
80002ac4:	c0 51       	brne	80002ace <sd_mmc_spi_internal_init+0xfe>
80002ac6:	30 19       	mov	r9,1
80002ac8:	4e 48       	lddpc	r8,80002c58 <sd_mmc_spi_internal_init+0x288>
80002aca:	b0 89       	st.b	r8[0x0],r9
80002acc:	c2 d8       	rjmp	80002b26 <sd_mmc_spi_internal_init+0x156>
80002ace:	30 09       	mov	r9,0
80002ad0:	4e 28       	lddpc	r8,80002c58 <sd_mmc_spi_internal_init+0x288>
80002ad2:	b0 89       	st.b	r8[0x0],r9
80002ad4:	30 0b       	mov	r11,0
80002ad6:	16 9c       	mov	r12,r11
80002ad8:	f0 1f 00 61 	mcall	80002c5c <sd_mmc_spi_internal_init+0x28c>
80002adc:	4e 18       	lddpc	r8,80002c60 <sd_mmc_spi_internal_init+0x290>
80002ade:	b0 8c       	st.b	r8[0x0],r12
80002ae0:	e0 6b 00 ff 	mov	r11,255
80002ae4:	fe 7c 24 00 	mov	r12,-56320
80002ae8:	f0 1f 00 59 	mcall	80002c4c <sd_mmc_spi_internal_init+0x27c>
80002aec:	30 17       	mov	r7,1
80002aee:	4d d6       	lddpc	r6,80002c60 <sd_mmc_spi_internal_init+0x290>
80002af0:	30 15       	mov	r5,1
80002af2:	30 03       	mov	r3,0
80002af4:	e0 62 00 ff 	mov	r2,255
80002af8:	fe 71 24 00 	mov	r1,-56320
80002afc:	36 54       	mov	r4,101
80002afe:	c1 08       	rjmp	80002b1e <sd_mmc_spi_internal_init+0x14e>
80002b00:	06 9b       	mov	r11,r3
80002b02:	06 9c       	mov	r12,r3
80002b04:	f0 1f 00 56 	mcall	80002c5c <sd_mmc_spi_internal_init+0x28c>
80002b08:	ac 8c       	st.b	r6[0x0],r12
80002b0a:	04 9b       	mov	r11,r2
80002b0c:	02 9c       	mov	r12,r1
80002b0e:	f0 1f 00 50 	mcall	80002c4c <sd_mmc_spi_internal_init+0x27c>
80002b12:	2f f7       	sub	r7,-1
80002b14:	5c 87       	casts.h	r7
80002b16:	e8 07 19 00 	cp.h	r7,r4
80002b1a:	e0 80 00 8f 	breq	80002c38 <sd_mmc_spi_internal_init+0x268>
80002b1e:	0d 88       	ld.ub	r8,r6[0x0]
80002b20:	ea 08 18 00 	cp.b	r8,r5
80002b24:	ce e1       	brne	80002b00 <sd_mmc_spi_internal_init+0x130>
80002b26:	30 07       	mov	r7,0
80002b28:	4c c4       	lddpc	r4,80002c58 <sd_mmc_spi_internal_init+0x288>
80002b2a:	30 15       	mov	r5,1
80002b2c:	0e 93       	mov	r3,r7
80002b2e:	33 70       	mov	r0,55
80002b30:	4c c6       	lddpc	r6,80002c60 <sd_mmc_spi_internal_init+0x290>
80002b32:	e0 62 00 ff 	mov	r2,255
80002b36:	fe 71 24 00 	mov	r1,-56320
80002b3a:	09 88       	ld.ub	r8,r4[0x0]
80002b3c:	ea 08 18 00 	cp.b	r8,r5
80002b40:	c1 10       	breq	80002b62 <sd_mmc_spi_internal_init+0x192>
80002b42:	c0 63       	brcs	80002b4e <sd_mmc_spi_internal_init+0x17e>
80002b44:	30 29       	mov	r9,2
80002b46:	f2 08 18 00 	cp.b	r8,r9
80002b4a:	c2 91       	brne	80002b9c <sd_mmc_spi_internal_init+0x1cc>
80002b4c:	c1 98       	rjmp	80002b7e <sd_mmc_spi_internal_init+0x1ae>
80002b4e:	06 9b       	mov	r11,r3
80002b50:	30 1c       	mov	r12,1
80002b52:	f0 1f 00 43 	mcall	80002c5c <sd_mmc_spi_internal_init+0x28c>
80002b56:	ac 8c       	st.b	r6[0x0],r12
80002b58:	04 9b       	mov	r11,r2
80002b5a:	02 9c       	mov	r12,r1
80002b5c:	f0 1f 00 3c 	mcall	80002c4c <sd_mmc_spi_internal_init+0x27c>
80002b60:	c1 e8       	rjmp	80002b9c <sd_mmc_spi_internal_init+0x1cc>
80002b62:	06 9b       	mov	r11,r3
80002b64:	00 9c       	mov	r12,r0
80002b66:	f0 1f 00 3e 	mcall	80002c5c <sd_mmc_spi_internal_init+0x28c>
80002b6a:	06 9b       	mov	r11,r3
80002b6c:	32 9c       	mov	r12,41
80002b6e:	f0 1f 00 3c 	mcall	80002c5c <sd_mmc_spi_internal_init+0x28c>
80002b72:	ac 8c       	st.b	r6[0x0],r12
80002b74:	04 9b       	mov	r11,r2
80002b76:	02 9c       	mov	r12,r1
80002b78:	f0 1f 00 35 	mcall	80002c4c <sd_mmc_spi_internal_init+0x27c>
80002b7c:	c1 08       	rjmp	80002b9c <sd_mmc_spi_internal_init+0x1cc>
80002b7e:	06 9b       	mov	r11,r3
80002b80:	00 9c       	mov	r12,r0
80002b82:	f0 1f 00 37 	mcall	80002c5c <sd_mmc_spi_internal_init+0x28c>
80002b86:	30 0b       	mov	r11,0
80002b88:	ea 1b 40 00 	orh	r11,0x4000
80002b8c:	32 9c       	mov	r12,41
80002b8e:	f0 1f 00 34 	mcall	80002c5c <sd_mmc_spi_internal_init+0x28c>
80002b92:	ac 8c       	st.b	r6[0x0],r12
80002b94:	04 9b       	mov	r11,r2
80002b96:	02 9c       	mov	r12,r1
80002b98:	f0 1f 00 2d 	mcall	80002c4c <sd_mmc_spi_internal_init+0x27c>
80002b9c:	2f f7       	sub	r7,-1
80002b9e:	5c 87       	casts.h	r7
80002ba0:	fe 78 c3 50 	mov	r8,-15536
80002ba4:	f0 07 19 00 	cp.h	r7,r8
80002ba8:	c4 80       	breq	80002c38 <sd_mmc_spi_internal_init+0x268>
80002baa:	0d 89       	ld.ub	r9,r6[0x0]
80002bac:	30 08       	mov	r8,0
80002bae:	f0 09 18 00 	cp.b	r9,r8
80002bb2:	cc 41       	brne	80002b3a <sd_mmc_spi_internal_init+0x16a>
80002bb4:	4a 98       	lddpc	r8,80002c58 <sd_mmc_spi_internal_init+0x288>
80002bb6:	11 89       	ld.ub	r9,r8[0x0]
80002bb8:	30 28       	mov	r8,2
80002bba:	f0 09 18 00 	cp.b	r9,r8
80002bbe:	c0 a1       	brne	80002bd2 <sd_mmc_spi_internal_init+0x202>
80002bc0:	f0 1f 00 2a 	mcall	80002c68 <sd_mmc_spi_internal_init+0x298>
80002bc4:	5b fc       	cp.w	r12,-1
80002bc6:	c3 90       	breq	80002c38 <sd_mmc_spi_internal_init+0x268>
80002bc8:	58 1c       	cp.w	r12,1
80002bca:	c0 41       	brne	80002bd2 <sd_mmc_spi_internal_init+0x202>
80002bcc:	30 39       	mov	r9,3
80002bce:	4a 38       	lddpc	r8,80002c58 <sd_mmc_spi_internal_init+0x288>
80002bd0:	b0 89       	st.b	r8[0x0],r9
80002bd2:	30 0b       	mov	r11,0
80002bd4:	33 bc       	mov	r12,59
80002bd6:	f0 1f 00 22 	mcall	80002c5c <sd_mmc_spi_internal_init+0x28c>
80002bda:	4a 27       	lddpc	r7,80002c60 <sd_mmc_spi_internal_init+0x290>
80002bdc:	ae 8c       	st.b	r7[0x0],r12
80002bde:	e0 6b 00 ff 	mov	r11,255
80002be2:	fe 7c 24 00 	mov	r12,-56320
80002be6:	f0 1f 00 1a 	mcall	80002c4c <sd_mmc_spi_internal_init+0x27c>
80002bea:	e0 6b 02 00 	mov	r11,512
80002bee:	31 0c       	mov	r12,16
80002bf0:	f0 1f 00 1b 	mcall	80002c5c <sd_mmc_spi_internal_init+0x28c>
80002bf4:	ae 8c       	st.b	r7[0x0],r12
80002bf6:	e0 6b 00 ff 	mov	r11,255
80002bfa:	fe 7c 24 00 	mov	r12,-56320
80002bfe:	f0 1f 00 14 	mcall	80002c4c <sd_mmc_spi_internal_init+0x27c>
80002c02:	0f 89       	ld.ub	r9,r7[0x0]
80002c04:	30 08       	mov	r8,0
80002c06:	f0 09 18 00 	cp.b	r9,r8
80002c0a:	c1 71       	brne	80002c38 <sd_mmc_spi_internal_init+0x268>
80002c0c:	49 8c       	lddpc	r12,80002c6c <sd_mmc_spi_internal_init+0x29c>
80002c0e:	f0 1f 00 19 	mcall	80002c70 <sd_mmc_spi_internal_init+0x2a0>
80002c12:	c1 30       	breq	80002c38 <sd_mmc_spi_internal_init+0x268>
80002c14:	f0 1f 00 18 	mcall	80002c74 <sd_mmc_spi_internal_init+0x2a4>
80002c18:	30 19       	mov	r9,1
80002c1a:	48 f8       	lddpc	r8,80002c54 <sd_mmc_spi_internal_init+0x284>
80002c1c:	b0 89       	st.b	r8[0x0],r9
80002c1e:	48 8b       	lddpc	r11,80002c3c <sd_mmc_spi_internal_init+0x26c>
80002c20:	e0 68 1b 00 	mov	r8,6912
80002c24:	ea 18 00 b7 	orh	r8,0xb7
80002c28:	97 18       	st.w	r11[0x4],r8
80002c2a:	48 68       	lddpc	r8,80002c40 <sd_mmc_spi_internal_init+0x270>
80002c2c:	70 0a       	ld.w	r10,r8[0x0]
80002c2e:	fe 7c 24 00 	mov	r12,-56320
80002c32:	f0 1f 00 05 	mcall	80002c44 <sd_mmc_spi_internal_init+0x274>
80002c36:	da 3a       	popm	r0-r7,pc,r12=1
80002c38:	d8 3a       	popm	r0-r7,pc,r12=0
80002c3a:	00 00       	add	r0,r0
80002c3c:	00 00       	add	r0,r0
80002c3e:	00 ec       	st.h	--r0,r12
80002c40:	00 00       	add	r0,r0
80002c42:	00 fc       	st.b	--r0,r12
80002c44:	80 00       	ld.sh	r0,r0[0x0]
80002c46:	31 a8       	mov	r8,26
80002c48:	80 00       	ld.sh	r0,r0[0x0]
80002c4a:	31 32       	mov	r2,19
80002c4c:	80 00       	ld.sh	r0,r0[0x0]
80002c4e:	32 66       	mov	r6,38
80002c50:	80 00       	ld.sh	r0,r0[0x0]
80002c52:	31 7e       	mov	lr,23
80002c54:	00 00       	add	r0,r0
80002c56:	01 00       	ld.w	r0,r0++
80002c58:	00 00       	add	r0,r0
80002c5a:	04 7a       	tst	r10,r2
80002c5c:	80 00       	ld.sh	r0,r0[0x0]
80002c5e:	24 40       	sub	r0,68
80002c60:	00 00       	add	r0,r0
80002c62:	04 8c       	andn	r12,r2
80002c64:	80 00       	ld.sh	r0,r0[0x0]
80002c66:	26 d4       	sub	r4,109
80002c68:	80 00       	ld.sh	r0,r0[0x0]
80002c6a:	26 48       	sub	r8,100
80002c6c:	00 00       	add	r0,r0
80002c6e:	04 7c       	tst	r12,r2
80002c70:	80 00       	ld.sh	r0,r0[0x0]
80002c72:	28 dc       	sub	r12,-115
80002c74:	80 00       	ld.sh	r0,r0[0x0]
80002c76:	21 a0       	sub	r0,26

80002c78 <sd_mmc_spi_mem_check>:
80002c78:	d4 01       	pushm	lr
80002c7a:	f0 1f 00 09 	mcall	80002c9c <sd_mmc_spi_mem_check+0x24>
80002c7e:	30 18       	mov	r8,1
80002c80:	f0 0c 18 00 	cp.b	r12,r8
80002c84:	c0 20       	breq	80002c88 <sd_mmc_spi_mem_check+0x10>
80002c86:	d8 0a       	popm	pc,r12=0
80002c88:	48 68       	lddpc	r8,80002ca0 <sd_mmc_spi_mem_check+0x28>
80002c8a:	11 89       	ld.ub	r9,r8[0x0]
80002c8c:	30 08       	mov	r8,0
80002c8e:	f0 09 18 00 	cp.b	r9,r8
80002c92:	c0 20       	breq	80002c96 <sd_mmc_spi_mem_check+0x1e>
80002c94:	da 0a       	popm	pc,r12=1
80002c96:	f0 1f 00 04 	mcall	80002ca4 <sd_mmc_spi_mem_check+0x2c>
80002c9a:	d8 02       	popm	pc
80002c9c:	80 00       	ld.sh	r0,r0[0x0]
80002c9e:	24 80       	sub	r0,72
80002ca0:	00 00       	add	r0,r0
80002ca2:	01 00       	ld.w	r0,r0++
80002ca4:	80 00       	ld.sh	r0,r0[0x0]
80002ca6:	29 d0       	sub	r0,-99

80002ca8 <sd_mmc_spi_init>:
80002ca8:	eb cd 40 10 	pushm	r4,lr
80002cac:	fa c4 ff f8 	sub	r4,sp,-8
80002cb0:	48 88       	lddpc	r8,80002cd0 <sd_mmc_spi_init+0x28>
80002cb2:	91 0c       	st.w	r8[0x0],r12
80002cb4:	48 88       	lddpc	r8,80002cd4 <sd_mmc_spi_init+0x2c>
80002cb6:	e8 ea 00 00 	ld.d	r10,r4[0]
80002cba:	f0 eb 00 00 	st.d	r8[0],r10
80002cbe:	e8 ea 00 08 	ld.d	r10,r4[8]
80002cc2:	f0 eb 00 08 	st.d	r8[8],r10
80002cc6:	f0 1f 00 05 	mcall	80002cd8 <sd_mmc_spi_init+0x30>
80002cca:	e3 cd 80 10 	ldm	sp++,r4,pc
80002cce:	00 00       	add	r0,r0
80002cd0:	00 00       	add	r0,r0
80002cd2:	00 fc       	st.b	--r0,r12
80002cd4:	00 00       	add	r0,r0
80002cd6:	00 ec       	st.h	--r0,r12
80002cd8:	80 00       	ld.sh	r0,r0[0x0]
80002cda:	29 d0       	sub	r0,-99

80002cdc <sd_mmc_spi_wr_protect>:
80002cdc:	5e fd       	retal	0

80002cde <sd_mmc_spi_removal>:
80002cde:	5e fd       	retal	0

80002ce0 <sd_mmc_spi_test_unit_ready>:
80002ce0:	d4 01       	pushm	lr
80002ce2:	49 b8       	lddpc	r8,80002d4c <sd_mmc_spi_test_unit_ready+0x6c>
80002ce4:	11 88       	ld.ub	r8,r8[0x0]
80002ce6:	30 19       	mov	r9,1
80002ce8:	f2 08 18 00 	cp.b	r8,r9
80002cec:	c1 70       	breq	80002d1a <sd_mmc_spi_test_unit_ready+0x3a>
80002cee:	c0 63       	brcs	80002cfa <sd_mmc_spi_test_unit_ready+0x1a>
80002cf0:	30 29       	mov	r9,2
80002cf2:	f2 08 18 00 	cp.b	r8,r9
80002cf6:	c2 61       	brne	80002d42 <sd_mmc_spi_test_unit_ready+0x62>
80002cf8:	c2 08       	rjmp	80002d38 <sd_mmc_spi_test_unit_ready+0x58>
80002cfa:	30 09       	mov	r9,0
80002cfc:	49 58       	lddpc	r8,80002d50 <sd_mmc_spi_test_unit_ready+0x70>
80002cfe:	b0 89       	st.b	r8[0x0],r9
80002d00:	f0 1f 00 15 	mcall	80002d54 <sd_mmc_spi_test_unit_ready+0x74>
80002d04:	30 18       	mov	r8,1
80002d06:	f0 0c 18 00 	cp.b	r12,r8
80002d0a:	c0 30       	breq	80002d10 <sd_mmc_spi_test_unit_ready+0x30>
80002d0c:	30 2c       	mov	r12,2
80002d0e:	d8 02       	popm	pc
80002d10:	30 19       	mov	r9,1
80002d12:	48 f8       	lddpc	r8,80002d4c <sd_mmc_spi_test_unit_ready+0x6c>
80002d14:	b0 89       	st.b	r8[0x0],r9
80002d16:	30 3c       	mov	r12,3
80002d18:	d8 02       	popm	pc
80002d1a:	f0 1f 00 0f 	mcall	80002d54 <sd_mmc_spi_test_unit_ready+0x74>
80002d1e:	30 18       	mov	r8,1
80002d20:	f0 0c 18 00 	cp.b	r12,r8
80002d24:	c0 21       	brne	80002d28 <sd_mmc_spi_test_unit_ready+0x48>
80002d26:	d8 0a       	popm	pc,r12=0
80002d28:	30 29       	mov	r9,2
80002d2a:	48 98       	lddpc	r8,80002d4c <sd_mmc_spi_test_unit_ready+0x6c>
80002d2c:	b0 89       	st.b	r8[0x0],r9
80002d2e:	30 09       	mov	r9,0
80002d30:	48 88       	lddpc	r8,80002d50 <sd_mmc_spi_test_unit_ready+0x70>
80002d32:	b0 89       	st.b	r8[0x0],r9
80002d34:	30 3c       	mov	r12,3
80002d36:	d8 02       	popm	pc
80002d38:	30 09       	mov	r9,0
80002d3a:	48 58       	lddpc	r8,80002d4c <sd_mmc_spi_test_unit_ready+0x6c>
80002d3c:	b0 89       	st.b	r8[0x0],r9
80002d3e:	30 2c       	mov	r12,2
80002d40:	d8 02       	popm	pc
80002d42:	30 09       	mov	r9,0
80002d44:	48 28       	lddpc	r8,80002d4c <sd_mmc_spi_test_unit_ready+0x6c>
80002d46:	b0 89       	st.b	r8[0x0],r9
80002d48:	30 3c       	mov	r12,3
80002d4a:	d8 02       	popm	pc
80002d4c:	00 00       	add	r0,r0
80002d4e:	00 0c       	add	r12,r0
80002d50:	00 00       	add	r0,r0
80002d52:	01 00       	ld.w	r0,r0++
80002d54:	80 00       	ld.sh	r0,r0[0x0]
80002d56:	2c 78       	sub	r8,-57

80002d58 <sd_mmc_spi_mem_init>:
80002d58:	d4 01       	pushm	lr
80002d5a:	f0 1f 00 02 	mcall	80002d60 <sd_mmc_spi_mem_init+0x8>
80002d5e:	d8 02       	popm	pc
80002d60:	80 00       	ld.sh	r0,r0[0x0]
80002d62:	29 d0       	sub	r0,-99

80002d64 <sd_mmc_spi_ram_2_mem>:
80002d64:	eb cd 40 c0 	pushm	r6-r7,lr
80002d68:	18 96       	mov	r6,r12
80002d6a:	16 97       	mov	r7,r11
80002d6c:	f0 1f 00 12 	mcall	80002db4 <sd_mmc_spi_ram_2_mem+0x50>
80002d70:	49 28       	lddpc	r8,80002db8 <sd_mmc_spi_ram_2_mem+0x54>
80002d72:	11 89       	ld.ub	r9,r8[0x0]
80002d74:	30 08       	mov	r8,0
80002d76:	f0 09 18 00 	cp.b	r9,r8
80002d7a:	c0 31       	brne	80002d80 <sd_mmc_spi_ram_2_mem+0x1c>
80002d7c:	f0 1f 00 10 	mcall	80002dbc <sd_mmc_spi_ram_2_mem+0x58>
80002d80:	48 e8       	lddpc	r8,80002db8 <sd_mmc_spi_ram_2_mem+0x54>
80002d82:	11 89       	ld.ub	r9,r8[0x0]
80002d84:	30 18       	mov	r8,1
80002d86:	f0 09 18 00 	cp.b	r9,r8
80002d8a:	c0 40       	breq	80002d92 <sd_mmc_spi_ram_2_mem+0x2e>
80002d8c:	30 2c       	mov	r12,2
80002d8e:	e3 cd 80 c0 	ldm	sp++,r6-r7,pc
80002d92:	0c 9c       	mov	r12,r6
80002d94:	f0 1f 00 0b 	mcall	80002dc0 <sd_mmc_spi_ram_2_mem+0x5c>
80002d98:	0e 9c       	mov	r12,r7
80002d9a:	f0 1f 00 0b 	mcall	80002dc4 <sd_mmc_spi_ram_2_mem+0x60>
80002d9e:	c0 61       	brne	80002daa <sd_mmc_spi_ram_2_mem+0x46>
80002da0:	f0 1f 00 0a 	mcall	80002dc8 <sd_mmc_spi_ram_2_mem+0x64>
80002da4:	30 2c       	mov	r12,2
80002da6:	e3 cd 80 c0 	ldm	sp++,r6-r7,pc
80002daa:	f0 1f 00 08 	mcall	80002dc8 <sd_mmc_spi_ram_2_mem+0x64>
80002dae:	e3 cf 80 c0 	ldm	sp++,r6-r7,pc,r12=0
80002db2:	00 00       	add	r0,r0
80002db4:	80 00       	ld.sh	r0,r0[0x0]
80002db6:	24 80       	sub	r0,72
80002db8:	00 00       	add	r0,r0
80002dba:	01 00       	ld.w	r0,r0++
80002dbc:	80 00       	ld.sh	r0,r0[0x0]
80002dbe:	2d 58       	sub	r8,-43
80002dc0:	80 00       	ld.sh	r0,r0[0x0]
80002dc2:	23 38       	sub	r8,51
80002dc4:	80 00       	ld.sh	r0,r0[0x0]
80002dc6:	24 fc       	sub	r12,79
80002dc8:	80 00       	ld.sh	r0,r0[0x0]
80002dca:	22 a8       	sub	r8,42

80002dcc <sd_mmc_spi_mem_2_ram>:
80002dcc:	eb cd 40 c0 	pushm	r6-r7,lr
80002dd0:	18 97       	mov	r7,r12
80002dd2:	16 96       	mov	r6,r11
80002dd4:	f0 1f 00 11 	mcall	80002e18 <sd_mmc_spi_mem_2_ram+0x4c>
80002dd8:	49 18       	lddpc	r8,80002e1c <sd_mmc_spi_mem_2_ram+0x50>
80002dda:	11 89       	ld.ub	r9,r8[0x0]
80002ddc:	30 08       	mov	r8,0
80002dde:	f0 09 18 00 	cp.b	r9,r8
80002de2:	c0 31       	brne	80002de8 <sd_mmc_spi_mem_2_ram+0x1c>
80002de4:	f0 1f 00 0f 	mcall	80002e20 <sd_mmc_spi_mem_2_ram+0x54>
80002de8:	48 d8       	lddpc	r8,80002e1c <sd_mmc_spi_mem_2_ram+0x50>
80002dea:	11 89       	ld.ub	r9,r8[0x0]
80002dec:	30 18       	mov	r8,1
80002dee:	f0 09 18 00 	cp.b	r9,r8
80002df2:	c0 40       	breq	80002dfa <sd_mmc_spi_mem_2_ram+0x2e>
80002df4:	30 2c       	mov	r12,2
80002df6:	e3 cd 80 c0 	ldm	sp++,r6-r7,pc
80002dfa:	0e 9c       	mov	r12,r7
80002dfc:	f0 1f 00 0a 	mcall	80002e24 <sd_mmc_spi_mem_2_ram+0x58>
80002e00:	c0 a0       	breq	80002e14 <sd_mmc_spi_mem_2_ram+0x48>
80002e02:	0c 9c       	mov	r12,r6
80002e04:	f0 1f 00 09 	mcall	80002e28 <sd_mmc_spi_mem_2_ram+0x5c>
80002e08:	c0 60       	breq	80002e14 <sd_mmc_spi_mem_2_ram+0x48>
80002e0a:	f0 1f 00 09 	mcall	80002e2c <sd_mmc_spi_mem_2_ram+0x60>
80002e0e:	5f 0c       	sreq	r12
80002e10:	e3 cd 80 c0 	ldm	sp++,r6-r7,pc
80002e14:	e3 cf 90 c0 	ldm	sp++,r6-r7,pc,r12=1
80002e18:	80 00       	ld.sh	r0,r0[0x0]
80002e1a:	24 80       	sub	r0,72
80002e1c:	00 00       	add	r0,r0
80002e1e:	01 00       	ld.w	r0,r0++
80002e20:	80 00       	ld.sh	r0,r0[0x0]
80002e22:	2d 58       	sub	r8,-43
80002e24:	80 00       	ld.sh	r0,r0[0x0]
80002e26:	23 60       	sub	r0,54
80002e28:	80 00       	ld.sh	r0,r0[0x0]
80002e2a:	27 8c       	sub	r12,120
80002e2c:	80 00       	ld.sh	r0,r0[0x0]
80002e2e:	23 50       	sub	r0,53

80002e30 <sd_mmc_spi_read_capacity>:
80002e30:	eb cd 40 80 	pushm	r7,lr
80002e34:	18 97       	mov	r7,r12
80002e36:	48 c8       	lddpc	r8,80002e64 <sd_mmc_spi_read_capacity+0x34>
80002e38:	11 89       	ld.ub	r9,r8[0x0]
80002e3a:	30 08       	mov	r8,0
80002e3c:	f0 09 18 00 	cp.b	r9,r8
80002e40:	c0 31       	brne	80002e46 <sd_mmc_spi_read_capacity+0x16>
80002e42:	f0 1f 00 0a 	mcall	80002e68 <sd_mmc_spi_read_capacity+0x38>
80002e46:	48 88       	lddpc	r8,80002e64 <sd_mmc_spi_read_capacity+0x34>
80002e48:	11 89       	ld.ub	r9,r8[0x0]
80002e4a:	30 18       	mov	r8,1
80002e4c:	f0 09 18 00 	cp.b	r9,r8
80002e50:	c0 40       	breq	80002e58 <sd_mmc_spi_read_capacity+0x28>
80002e52:	30 2c       	mov	r12,2
80002e54:	e3 cd 80 80 	ldm	sp++,r7,pc
80002e58:	48 58       	lddpc	r8,80002e6c <sd_mmc_spi_read_capacity+0x3c>
80002e5a:	70 08       	ld.w	r8,r8[0x0]
80002e5c:	2f f8       	sub	r8,-1
80002e5e:	8f 08       	st.w	r7[0x0],r8
80002e60:	e3 cf 80 80 	ldm	sp++,r7,pc,r12=0
80002e64:	00 00       	add	r0,r0
80002e66:	01 00       	ld.w	r0,r0++
80002e68:	80 00       	ld.sh	r0,r0[0x0]
80002e6a:	2d 58       	sub	r8,-43
80002e6c:	00 00       	add	r0,r0
80002e6e:	04 74       	tst	r4,r2

80002e70 <flashc_set_wait_state>:
80002e70:	fe 68 14 00 	mov	r8,-125952
80002e74:	70 09       	ld.w	r9,r8[0x0]
80002e76:	f3 dc d0 c1 	bfins	r9,r12,0x6,0x1
80002e7a:	91 09       	st.w	r8[0x0],r9
80002e7c:	5e fc       	retal	r12
80002e7e:	d7 03       	nop

80002e80 <flashc_set_bus_freq>:
80002e80:	d4 01       	pushm	lr
80002e82:	e0 68 8a 3f 	mov	r8,35391
80002e86:	ea 18 01 f7 	orh	r8,0x1f7
80002e8a:	10 3c       	cp.w	r12,r8
80002e8c:	e0 88 00 06 	brls	80002e98 <flashc_set_bus_freq+0x18>
80002e90:	30 1c       	mov	r12,1
80002e92:	f0 1f 00 04 	mcall	80002ea0 <flashc_set_bus_freq+0x20>
80002e96:	d8 02       	popm	pc
80002e98:	30 0c       	mov	r12,0
80002e9a:	f0 1f 00 02 	mcall	80002ea0 <flashc_set_bus_freq+0x20>
80002e9e:	d8 02       	popm	pc
80002ea0:	80 00       	ld.sh	r0,r0[0x0]
80002ea2:	2e 70       	sub	r0,-25

80002ea4 <gpio_enable_module_pin>:
80002ea4:	f8 08 16 05 	lsr	r8,r12,0x5
80002ea8:	a9 68       	lsl	r8,0x8
80002eaa:	e0 28 f0 00 	sub	r8,61440
80002eae:	58 1b       	cp.w	r11,1
80002eb0:	c0 d0       	breq	80002eca <gpio_enable_module_pin+0x26>
80002eb2:	c0 63       	brcs	80002ebe <gpio_enable_module_pin+0x1a>
80002eb4:	58 2b       	cp.w	r11,2
80002eb6:	c1 00       	breq	80002ed6 <gpio_enable_module_pin+0x32>
80002eb8:	58 3b       	cp.w	r11,3
80002eba:	c1 40       	breq	80002ee2 <gpio_enable_module_pin+0x3e>
80002ebc:	5e ff       	retal	1
80002ebe:	30 19       	mov	r9,1
80002ec0:	f2 0c 09 49 	lsl	r9,r9,r12
80002ec4:	91 69       	st.w	r8[0x18],r9
80002ec6:	91 a9       	st.w	r8[0x28],r9
80002ec8:	c1 28       	rjmp	80002eec <gpio_enable_module_pin+0x48>
80002eca:	30 19       	mov	r9,1
80002ecc:	f2 0c 09 49 	lsl	r9,r9,r12
80002ed0:	91 59       	st.w	r8[0x14],r9
80002ed2:	91 a9       	st.w	r8[0x28],r9
80002ed4:	c0 c8       	rjmp	80002eec <gpio_enable_module_pin+0x48>
80002ed6:	30 19       	mov	r9,1
80002ed8:	f2 0c 09 49 	lsl	r9,r9,r12
80002edc:	91 69       	st.w	r8[0x18],r9
80002ede:	91 99       	st.w	r8[0x24],r9
80002ee0:	c0 68       	rjmp	80002eec <gpio_enable_module_pin+0x48>
80002ee2:	30 19       	mov	r9,1
80002ee4:	f2 0c 09 49 	lsl	r9,r9,r12
80002ee8:	91 59       	st.w	r8[0x14],r9
80002eea:	91 99       	st.w	r8[0x24],r9
80002eec:	30 19       	mov	r9,1
80002eee:	f2 0c 09 4c 	lsl	r12,r9,r12
80002ef2:	91 2c       	st.w	r8[0x8],r12
80002ef4:	5e fd       	retal	0
80002ef6:	d7 03       	nop

80002ef8 <gpio_enable_module>:
80002ef8:	d4 21       	pushm	r4-r7,lr
80002efa:	18 97       	mov	r7,r12
80002efc:	16 94       	mov	r4,r11
80002efe:	58 0b       	cp.w	r11,0
80002f00:	c0 31       	brne	80002f06 <gpio_enable_module+0xe>
80002f02:	30 05       	mov	r5,0
80002f04:	c0 d8       	rjmp	80002f1e <gpio_enable_module+0x26>
80002f06:	30 06       	mov	r6,0
80002f08:	0c 95       	mov	r5,r6
80002f0a:	0f 9b       	ld.ub	r11,r7[0x1]
80002f0c:	0f 8c       	ld.ub	r12,r7[0x0]
80002f0e:	f0 1f 00 06 	mcall	80002f24 <gpio_enable_module+0x2c>
80002f12:	18 45       	or	r5,r12
80002f14:	2f e7       	sub	r7,-2
80002f16:	2f f6       	sub	r6,-1
80002f18:	0c 34       	cp.w	r4,r6
80002f1a:	fe 9b ff f8 	brhi	80002f0a <gpio_enable_module+0x12>
80002f1e:	0a 9c       	mov	r12,r5
80002f20:	d8 22       	popm	r4-r7,pc
80002f22:	00 00       	add	r0,r0
80002f24:	80 00       	ld.sh	r0,r0[0x0]
80002f26:	2e a4       	sub	r4,-22

80002f28 <gpio_configure_pin>:
80002f28:	f8 08 16 05 	lsr	r8,r12,0x5
80002f2c:	a9 68       	lsl	r8,0x8
80002f2e:	e0 28 f0 00 	sub	r8,61440
80002f32:	16 99       	mov	r9,r11
80002f34:	e2 19 00 04 	andl	r9,0x4,COH
80002f38:	c0 70       	breq	80002f46 <gpio_configure_pin+0x1e>
80002f3a:	30 19       	mov	r9,1
80002f3c:	f2 0c 09 49 	lsl	r9,r9,r12
80002f40:	f1 49 00 74 	st.w	r8[116],r9
80002f44:	c0 68       	rjmp	80002f50 <gpio_configure_pin+0x28>
80002f46:	30 19       	mov	r9,1
80002f48:	f2 0c 09 49 	lsl	r9,r9,r12
80002f4c:	f1 49 00 78 	st.w	r8[120],r9
80002f50:	16 99       	mov	r9,r11
80002f52:	e2 19 00 80 	andl	r9,0x80,COH
80002f56:	c2 40       	breq	80002f9e <gpio_configure_pin+0x76>
80002f58:	16 99       	mov	r9,r11
80002f5a:	e2 19 01 80 	andl	r9,0x180,COH
80002f5e:	c0 90       	breq	80002f70 <gpio_configure_pin+0x48>
80002f60:	30 19       	mov	r9,1
80002f62:	f2 0c 09 49 	lsl	r9,r9,r12
80002f66:	f1 49 00 a8 	st.w	r8[168],r9
80002f6a:	f1 49 00 b8 	st.w	r8[184],r9
80002f6e:	c1 88       	rjmp	80002f9e <gpio_configure_pin+0x76>
80002f70:	16 99       	mov	r9,r11
80002f72:	e2 19 02 80 	andl	r9,0x280,COH
80002f76:	c0 90       	breq	80002f88 <gpio_configure_pin+0x60>
80002f78:	30 19       	mov	r9,1
80002f7a:	f2 0c 09 49 	lsl	r9,r9,r12
80002f7e:	f1 49 00 a4 	st.w	r8[164],r9
80002f82:	f1 49 00 b8 	st.w	r8[184],r9
80002f86:	c0 c8       	rjmp	80002f9e <gpio_configure_pin+0x76>
80002f88:	16 99       	mov	r9,r11
80002f8a:	e2 19 03 80 	andl	r9,0x380,COH
80002f8e:	c0 80       	breq	80002f9e <gpio_configure_pin+0x76>
80002f90:	30 19       	mov	r9,1
80002f92:	f2 0c 09 49 	lsl	r9,r9,r12
80002f96:	f1 49 00 a8 	st.w	r8[168],r9
80002f9a:	f1 49 00 b4 	st.w	r8[180],r9
80002f9e:	f3 db c0 01 	bfextu	r9,r11,0x0,0x1
80002fa2:	c1 50       	breq	80002fcc <gpio_configure_pin+0xa4>
80002fa4:	e2 1b 00 02 	andl	r11,0x2,COH
80002fa8:	c0 70       	breq	80002fb6 <gpio_configure_pin+0x8e>
80002faa:	30 19       	mov	r9,1
80002fac:	f2 0c 09 49 	lsl	r9,r9,r12
80002fb0:	f1 49 00 54 	st.w	r8[84],r9
80002fb4:	c0 68       	rjmp	80002fc0 <gpio_configure_pin+0x98>
80002fb6:	30 19       	mov	r9,1
80002fb8:	f2 0c 09 49 	lsl	r9,r9,r12
80002fbc:	f1 49 00 58 	st.w	r8[88],r9
80002fc0:	30 19       	mov	r9,1
80002fc2:	f2 0c 09 49 	lsl	r9,r9,r12
80002fc6:	f1 49 00 44 	st.w	r8[68],r9
80002fca:	c0 68       	rjmp	80002fd6 <gpio_configure_pin+0xae>
80002fcc:	30 19       	mov	r9,1
80002fce:	f2 0c 09 49 	lsl	r9,r9,r12
80002fd2:	f1 49 00 48 	st.w	r8[72],r9
80002fd6:	30 19       	mov	r9,1
80002fd8:	f2 0c 09 4c 	lsl	r12,r9,r12
80002fdc:	91 1c       	st.w	r8[0x4],r12
80002fde:	5e fc       	retal	r12

80002fe0 <gpio_get_pin_value>:
80002fe0:	f8 08 16 05 	lsr	r8,r12,0x5
80002fe4:	a9 68       	lsl	r8,0x8
80002fe6:	e0 28 f0 00 	sub	r8,61440
80002fea:	71 88       	ld.w	r8,r8[0x60]
80002fec:	f0 0c 0a 4c 	lsr	r12,r8,r12
80002ff0:	f9 dc c0 01 	bfextu	r12,r12,0x0,0x1
80002ff4:	5e fc       	retal	r12

80002ff6 <_unhandled_interrupt>:
80002ff6:	c0 08       	rjmp	80002ff6 <_unhandled_interrupt>

80002ff8 <INTC_register_interrupt>:
80002ff8:	f6 08 16 05 	lsr	r8,r11,0x5
80002ffc:	48 99       	lddpc	r9,80003020 <INTC_register_interrupt+0x28>
80002ffe:	f2 08 00 39 	add	r9,r9,r8<<0x3
80003002:	f7 db c0 05 	bfextu	r11,r11,0x0,0x5
80003006:	72 19       	ld.w	r9,r9[0x4]
80003008:	f2 0b 09 2c 	st.w	r9[r11<<0x2],r12
8000300c:	f5 da c0 02 	bfextu	r10,r10,0x0,0x2
80003010:	48 59       	lddpc	r9,80003024 <INTC_register_interrupt+0x2c>
80003012:	f2 0a 03 2a 	ld.w	r10,r9[r10<<0x2]
80003016:	fe 79 08 00 	mov	r9,-63488
8000301a:	f2 08 09 2a 	st.w	r9[r8<<0x2],r10
8000301e:	5e fc       	retal	r12
80003020:	80 00       	ld.sh	r0,r0[0x0]
80003022:	80 40       	ld.sh	r0,r0[0x8]
80003024:	80 00       	ld.sh	r0,r0[0x0]
80003026:	7f 3c       	ld.w	r12,pc[0x4c]

80003028 <INTC_init_interrupts>:
80003028:	d4 21       	pushm	r4-r7,lr
8000302a:	49 18       	lddpc	r8,8000306c <INTC_init_interrupts+0x44>
8000302c:	e3 b8 00 01 	mtsr	0x4,r8
80003030:	49 0e       	lddpc	lr,80003070 <INTC_init_interrupts+0x48>
80003032:	30 07       	mov	r7,0
80003034:	0e 94       	mov	r4,r7
80003036:	49 0c       	lddpc	r12,80003074 <INTC_init_interrupts+0x4c>
80003038:	49 08       	lddpc	r8,80003078 <INTC_init_interrupts+0x50>
8000303a:	70 05       	ld.w	r5,r8[0x0]
8000303c:	fe 76 08 00 	mov	r6,-63488
80003040:	c1 08       	rjmp	80003060 <INTC_init_interrupts+0x38>
80003042:	08 98       	mov	r8,r4
80003044:	7c 1b       	ld.w	r11,lr[0x4]
80003046:	7c 0a       	ld.w	r10,lr[0x0]
80003048:	f6 08 09 2c 	st.w	r11[r8<<0x2],r12
8000304c:	2f f8       	sub	r8,-1
8000304e:	10 3a       	cp.w	r10,r8
80003050:	fe 9b ff fc 	brhi	80003048 <INTC_init_interrupts+0x20>
80003054:	ec 07 09 25 	st.w	r6[r7<<0x2],r5
80003058:	2f f7       	sub	r7,-1
8000305a:	2f 8e       	sub	lr,-8
8000305c:	59 27       	cp.w	r7,18
8000305e:	c0 50       	breq	80003068 <INTC_init_interrupts+0x40>
80003060:	7c 08       	ld.w	r8,lr[0x0]
80003062:	58 08       	cp.w	r8,0
80003064:	ce f1       	brne	80003042 <INTC_init_interrupts+0x1a>
80003066:	cf 7b       	rjmp	80003054 <INTC_init_interrupts+0x2c>
80003068:	d8 22       	popm	r4-r7,pc
8000306a:	00 00       	add	r0,r0
8000306c:	80 00       	ld.sh	r0,r0[0x0]
8000306e:	7e 00       	ld.w	r0,pc[0x0]
80003070:	80 00       	ld.sh	r0,r0[0x0]
80003072:	80 40       	ld.sh	r0,r0[0x8]
80003074:	80 00       	ld.sh	r0,r0[0x0]
80003076:	2f f6       	sub	r6,-1
80003078:	80 00       	ld.sh	r0,r0[0x0]
8000307a:	7f 3c       	ld.w	r12,pc[0x4c]

8000307c <_get_interrupt_handler>:
8000307c:	fe 78 08 00 	mov	r8,-63488
80003080:	e0 69 00 83 	mov	r9,131
80003084:	f2 0c 01 0c 	sub	r12,r9,r12
80003088:	f0 0c 03 29 	ld.w	r9,r8[r12<<0x2]
8000308c:	f2 ca ff c0 	sub	r10,r9,-64
80003090:	f0 0a 03 28 	ld.w	r8,r8[r10<<0x2]
80003094:	58 08       	cp.w	r8,0
80003096:	c0 21       	brne	8000309a <_get_interrupt_handler+0x1e>
80003098:	5e fd       	retal	0
8000309a:	f0 08 12 00 	clz	r8,r8
8000309e:	48 5a       	lddpc	r10,800030b0 <_get_interrupt_handler+0x34>
800030a0:	f4 09 00 39 	add	r9,r10,r9<<0x3
800030a4:	f0 08 11 1f 	rsub	r8,r8,31
800030a8:	72 19       	ld.w	r9,r9[0x4]
800030aa:	f2 08 03 2c 	ld.w	r12,r9[r8<<0x2]
800030ae:	5e fc       	retal	r12
800030b0:	80 00       	ld.sh	r0,r0[0x0]
800030b2:	80 40       	ld.sh	r0,r0[0x8]

800030b4 <getBaudDiv>:
800030b4:	f8 08 16 01 	lsr	r8,r12,0x1
800030b8:	10 0b       	add	r11,r8
800030ba:	f6 0c 0d 0a 	divu	r10,r11,r12
800030be:	14 9c       	mov	r12,r10
800030c0:	f4 c8 00 01 	sub	r8,r10,1
800030c4:	5c 8c       	casts.h	r12
800030c6:	e0 48 00 ff 	cp.w	r8,255
800030ca:	5e 3c       	retlo	r12
800030cc:	5e 2e       	reths	-1

800030ce <spi_initMaster>:
800030ce:	f7 39 00 0d 	ld.ub	r9,r11[13]
800030d2:	30 18       	mov	r8,1
800030d4:	f0 09 18 00 	cp.b	r9,r8
800030d8:	e0 88 00 04 	brls	800030e0 <spi_initMaster+0x12>
800030dc:	30 2c       	mov	r12,2
800030de:	5e fc       	retal	r12
800030e0:	e0 68 00 80 	mov	r8,128
800030e4:	99 08       	st.w	r12[0x0],r8
800030e6:	78 18       	ld.w	r8,r12[0x4]
800030e8:	30 19       	mov	r9,1
800030ea:	f1 d9 d0 01 	bfins	r8,r9,0x0,0x1
800030ee:	f7 39 00 0d 	ld.ub	r9,r11[13]
800030f2:	f1 d9 d0 81 	bfins	r8,r9,0x4,0x1
800030f6:	30 09       	mov	r9,0
800030f8:	f1 d9 d0 e1 	bfins	r8,r9,0x7,0x1
800030fc:	30 fa       	mov	r10,15
800030fe:	f1 da d2 04 	bfins	r8,r10,0x10,0x4
80003102:	99 18       	st.w	r12[0x4],r8
80003104:	5e f9       	retal	r9

80003106 <spi_selectionMode>:
80003106:	d4 01       	pushm	lr
80003108:	30 18       	mov	r8,1
8000310a:	f0 0b 18 00 	cp.b	r11,r8
8000310e:	5f be       	srhi	lr
80003110:	f0 0a 18 00 	cp.b	r10,r8
80003114:	5f b8       	srhi	r8
80003116:	fd e8 10 08 	or	r8,lr,r8
8000311a:	c0 30       	breq	80003120 <spi_selectionMode+0x1a>
8000311c:	30 2c       	mov	r12,2
8000311e:	d8 02       	popm	pc
80003120:	78 18       	ld.w	r8,r12[0x4]
80003122:	f1 db d0 21 	bfins	r8,r11,0x1,0x1
80003126:	f1 da d0 41 	bfins	r8,r10,0x2,0x1
8000312a:	f1 d9 d3 08 	bfins	r8,r9,0x18,0x8
8000312e:	99 18       	st.w	r12[0x4],r8
80003130:	d8 0a       	popm	pc,r12=0

80003132 <spi_selectChip>:
80003132:	78 18       	ld.w	r8,r12[0x4]
80003134:	ea 18 00 0f 	orh	r8,0xf
80003138:	99 18       	st.w	r12[0x4],r8
8000313a:	78 18       	ld.w	r8,r12[0x4]
8000313c:	e2 18 00 04 	andl	r8,0x4,COH
80003140:	c0 f0       	breq	8000315e <spi_selectChip+0x2c>
80003142:	30 e8       	mov	r8,14
80003144:	f0 0b 18 00 	cp.b	r11,r8
80003148:	e0 8b 00 19 	brhi	8000317a <spi_selectChip+0x48>
8000314c:	78 18       	ld.w	r8,r12[0x4]
8000314e:	b1 6b       	lsl	r11,0x10
80003150:	ea 1b ff f0 	orh	r11,0xfff0
80003154:	e8 1b ff ff 	orl	r11,0xffff
80003158:	10 6b       	and	r11,r8
8000315a:	99 1b       	st.w	r12[0x4],r11
8000315c:	5e fd       	retal	0
8000315e:	30 38       	mov	r8,3
80003160:	f0 0b 18 00 	cp.b	r11,r8
80003164:	e0 8b 00 0b 	brhi	8000317a <spi_selectChip+0x48>
80003168:	78 18       	ld.w	r8,r12[0x4]
8000316a:	2f 0b       	sub	r11,-16
8000316c:	30 19       	mov	r9,1
8000316e:	f2 0b 09 4b 	lsl	r11,r9,r11
80003172:	5c db       	com	r11
80003174:	10 6b       	and	r11,r8
80003176:	99 1b       	st.w	r12[0x4],r11
80003178:	5e fd       	retal	0
8000317a:	30 2c       	mov	r12,2
8000317c:	5e fc       	retal	r12

8000317e <spi_unselectChip>:
8000317e:	e0 68 3a 98 	mov	r8,15000
80003182:	c0 58       	rjmp	8000318c <spi_unselectChip+0xe>
80003184:	58 08       	cp.w	r8,0
80003186:	c0 21       	brne	8000318a <spi_unselectChip+0xc>
80003188:	5e ff       	retal	1
8000318a:	20 18       	sub	r8,1
8000318c:	78 49       	ld.w	r9,r12[0x10]
8000318e:	e2 19 02 00 	andl	r9,0x200,COH
80003192:	cf 90       	breq	80003184 <spi_unselectChip+0x6>
80003194:	78 18       	ld.w	r8,r12[0x4]
80003196:	ea 18 00 0f 	orh	r8,0xf
8000319a:	99 18       	st.w	r12[0x4],r8
8000319c:	30 08       	mov	r8,0
8000319e:	ea 18 01 00 	orh	r8,0x100
800031a2:	99 08       	st.w	r12[0x0],r8
800031a4:	5e fd       	retal	0
800031a6:	d7 03       	nop

800031a8 <spi_setupChipReg>:
800031a8:	eb cd 40 f8 	pushm	r3-r7,lr
800031ac:	18 95       	mov	r5,r12
800031ae:	16 97       	mov	r7,r11
800031b0:	f7 36 00 0c 	ld.ub	r6,r11[12]
800031b4:	30 38       	mov	r8,3
800031b6:	f0 06 18 00 	cp.b	r6,r8
800031ba:	e0 8b 00 4d 	brhi	80003254 <spi_setupChipReg+0xac>
800031be:	f7 34 00 0b 	ld.ub	r4,r11[11]
800031c2:	30 18       	mov	r8,1
800031c4:	f0 04 18 00 	cp.b	r4,r8
800031c8:	e0 8b 00 46 	brhi	80003254 <spi_setupChipReg+0xac>
800031cc:	f7 33 00 08 	ld.ub	r3,r11[8]
800031d0:	30 78       	mov	r8,7
800031d2:	f0 03 18 00 	cp.b	r3,r8
800031d6:	e0 88 00 3f 	brls	80003254 <spi_setupChipReg+0xac>
800031da:	31 08       	mov	r8,16
800031dc:	f0 03 18 00 	cp.b	r3,r8
800031e0:	e0 8b 00 3a 	brhi	80003254 <spi_setupChipReg+0xac>
800031e4:	14 9b       	mov	r11,r10
800031e6:	6e 1c       	ld.w	r12,r7[0x4]
800031e8:	f0 1f 00 1d 	mcall	8000325c <spi_setupChipReg+0xb4>
800031ec:	c3 45       	brlt	80003254 <spi_setupChipReg+0xac>
800031ee:	30 08       	mov	r8,0
800031f0:	ec 09 16 01 	lsr	r9,r6,0x1
800031f4:	f1 d9 d0 01 	bfins	r8,r9,0x0,0x1
800031f8:	ec 16 00 01 	eorl	r6,0x1
800031fc:	f1 d6 d0 21 	bfins	r8,r6,0x1,0x1
80003200:	f1 d4 d0 61 	bfins	r8,r4,0x3,0x1
80003204:	20 83       	sub	r3,8
80003206:	f1 d3 d0 84 	bfins	r8,r3,0x4,0x4
8000320a:	f1 dc d1 08 	bfins	r8,r12,0x8,0x8
8000320e:	ef 39 00 09 	ld.ub	r9,r7[9]
80003212:	f1 d9 d2 08 	bfins	r8,r9,0x10,0x8
80003216:	ef 39 00 0a 	ld.ub	r9,r7[10]
8000321a:	f1 d9 d3 08 	bfins	r8,r9,0x18,0x8
8000321e:	0f 89       	ld.ub	r9,r7[0x0]
80003220:	30 1a       	mov	r10,1
80003222:	f4 09 18 00 	cp.b	r9,r10
80003226:	c0 e0       	breq	80003242 <spi_setupChipReg+0x9a>
80003228:	c0 a3       	brcs	8000323c <spi_setupChipReg+0x94>
8000322a:	30 2a       	mov	r10,2
8000322c:	f4 09 18 00 	cp.b	r9,r10
80003230:	c0 c0       	breq	80003248 <spi_setupChipReg+0xa0>
80003232:	30 3a       	mov	r10,3
80003234:	f4 09 18 00 	cp.b	r9,r10
80003238:	c0 e1       	brne	80003254 <spi_setupChipReg+0xac>
8000323a:	c0 a8       	rjmp	8000324e <spi_setupChipReg+0xa6>
8000323c:	8b c8       	st.w	r5[0x30],r8
8000323e:	e3 cf 80 f8 	ldm	sp++,r3-r7,pc,r12=0
80003242:	8b d8       	st.w	r5[0x34],r8
80003244:	e3 cf 80 f8 	ldm	sp++,r3-r7,pc,r12=0
80003248:	8b e8       	st.w	r5[0x38],r8
8000324a:	e3 cf 80 f8 	ldm	sp++,r3-r7,pc,r12=0
8000324e:	8b f8       	st.w	r5[0x3c],r8
80003250:	e3 cf 80 f8 	ldm	sp++,r3-r7,pc,r12=0
80003254:	30 2c       	mov	r12,2
80003256:	e3 cd 80 f8 	ldm	sp++,r3-r7,pc
8000325a:	00 00       	add	r0,r0
8000325c:	80 00       	ld.sh	r0,r0[0x0]
8000325e:	30 b4       	mov	r4,11

80003260 <spi_enable>:
80003260:	30 18       	mov	r8,1
80003262:	99 08       	st.w	r12[0x0],r8
80003264:	5e fc       	retal	r12

80003266 <spi_write>:
80003266:	e0 68 3a 98 	mov	r8,15000
8000326a:	c0 58       	rjmp	80003274 <spi_write+0xe>
8000326c:	58 08       	cp.w	r8,0
8000326e:	c0 21       	brne	80003272 <spi_write+0xc>
80003270:	5e ff       	retal	1
80003272:	20 18       	sub	r8,1
80003274:	78 49       	ld.w	r9,r12[0x10]
80003276:	e2 19 00 02 	andl	r9,0x2,COH
8000327a:	cf 90       	breq	8000326c <spi_write+0x6>
8000327c:	5c 7b       	castu.h	r11
8000327e:	99 3b       	st.w	r12[0xc],r11
80003280:	5e fd       	retal	0

80003282 <spi_read>:
80003282:	e0 68 3a 98 	mov	r8,15000
80003286:	c0 58       	rjmp	80003290 <spi_read+0xe>
80003288:	58 08       	cp.w	r8,0
8000328a:	c0 21       	brne	8000328e <spi_read+0xc>
8000328c:	5e ff       	retal	1
8000328e:	20 18       	sub	r8,1
80003290:	78 49       	ld.w	r9,r12[0x10]
80003292:	e2 19 02 01 	andl	r9,0x201,COH
80003296:	e0 49 02 01 	cp.w	r9,513
8000329a:	cf 71       	brne	80003288 <spi_read+0x6>
8000329c:	78 28       	ld.w	r8,r12[0x8]
8000329e:	b6 08       	st.h	r11[0x0],r8
800032a0:	5e fd       	retal	0

800032a2 <udd_set_address>:
800032a2:	fe 68 00 00 	mov	r8,-131072
800032a6:	70 09       	ld.w	r9,r8[0x0]
800032a8:	a7 d9       	cbr	r9,0x7
800032aa:	91 09       	st.w	r8[0x0],r9
800032ac:	70 09       	ld.w	r9,r8[0x0]
800032ae:	f9 dc c0 07 	bfextu	r12,r12,0x0,0x7
800032b2:	e0 19 ff 80 	andl	r9,0xff80
800032b6:	f9 e9 10 09 	or	r9,r12,r9
800032ba:	91 09       	st.w	r8[0x0],r9
800032bc:	70 09       	ld.w	r9,r8[0x0]
800032be:	a7 b9       	sbr	r9,0x7
800032c0:	91 09       	st.w	r8[0x0],r9
800032c2:	5e fc       	retal	r12

800032c4 <udd_getaddress>:
800032c4:	fe 68 00 00 	mov	r8,-131072
800032c8:	70 0c       	ld.w	r12,r8[0x0]
800032ca:	f9 dc c0 07 	bfextu	r12,r12,0x0,0x7
800032ce:	5e fc       	retal	r12

800032d0 <udd_get_frame_number>:
800032d0:	fe 68 00 00 	mov	r8,-131072
800032d4:	70 8c       	ld.w	r12,r8[0x20]
800032d6:	f9 dc c0 6b 	bfextu	r12,r12,0x3,0xb
800032da:	5e fc       	retal	r12

800032dc <udd_set_setup_payload>:
800032dc:	48 28       	lddpc	r8,800032e4 <udd_set_setup_payload+0x8>
800032de:	91 2c       	st.w	r8[0x8],r12
800032e0:	b0 6b       	st.h	r8[0xc],r11
800032e2:	5e fc       	retal	r12
800032e4:	00 00       	add	r0,r0
800032e6:	04 90       	mov	r0,r2

800032e8 <udd_ep_is_halted>:
800032e8:	f1 dc c0 04 	bfextu	r8,r12,0x0,0x4
800032ec:	a3 68       	lsl	r8,0x2
800032ee:	e0 38 fe 40 	sub	r8,130624
800032f2:	70 0c       	ld.w	r12,r8[0x0]
800032f4:	f9 dc c2 61 	bfextu	r12,r12,0x13,0x1
800032f8:	5e fc       	retal	r12
800032fa:	d7 03       	nop

800032fc <udd_ep_clear_halt>:
800032fc:	d4 01       	pushm	lr
800032fe:	f9 dc c0 04 	bfextu	r12,r12,0x0,0x4
80003302:	30 18       	mov	r8,1
80003304:	f0 0c 18 00 	cp.b	r12,r8
80003308:	e0 88 00 03 	brls	8000330e <udd_ep_clear_halt+0x12>
8000330c:	d8 0a       	popm	pc,r12=0
8000330e:	f8 c8 00 01 	sub	r8,r12,1
80003312:	a5 68       	lsl	r8,0x4
80003314:	49 29       	lddpc	r9,8000335c <udd_ep_clear_halt+0x60>
80003316:	f2 08 00 08 	add	r8,r9,r8
8000331a:	a3 6c       	lsl	r12,0x2
8000331c:	fe 6a 01 c0 	mov	r10,-130624
80003320:	f8 0a 00 09 	add	r9,r12,r10
80003324:	72 09       	ld.w	r9,r9[0x0]
80003326:	e6 19 00 08 	andh	r9,0x8,COH
8000332a:	c0 51       	brne	80003334 <udd_ep_clear_halt+0x38>
8000332c:	70 09       	ld.w	r9,r8[0x0]
8000332e:	e6 19 40 00 	andh	r9,0x4000,COH
80003332:	c1 40       	breq	8000335a <udd_ep_clear_halt+0x5e>
80003334:	70 09       	ld.w	r9,r8[0x0]
80003336:	30 0a       	mov	r10,0
80003338:	f3 da d3 c1 	bfins	r9,r10,0x1e,0x1
8000333c:	91 09       	st.w	r8[0x0],r9
8000333e:	e0 3c fd e0 	sub	r12,130528
80003342:	e8 69 00 00 	mov	r9,524288
80003346:	99 09       	st.w	r12[0x0],r9
80003348:	70 09       	ld.w	r9,r8[0x0]
8000334a:	58 09       	cp.w	r9,0
8000334c:	c0 74       	brge	8000335a <udd_ep_clear_halt+0x5e>
8000334e:	f3 da d3 e1 	bfins	r9,r10,0x1f,0x1
80003352:	91 09       	st.w	r8[0x0],r9
80003354:	70 38       	ld.w	r8,r8[0xc]
80003356:	5d 18       	icall	r8
80003358:	da 0a       	popm	pc,r12=1
8000335a:	da 0a       	popm	pc,r12=1
8000335c:	00 00       	add	r0,r0
8000335e:	01 ac       	ld.ub	r12,r0[0x2]

80003360 <udd_ctrl_stall_data>:
80003360:	30 59       	mov	r9,5
80003362:	48 58       	lddpc	r8,80003374 <udd_ctrl_stall_data+0x14>
80003364:	91 09       	st.w	r8[0x0],r9
80003366:	e8 69 00 00 	mov	r9,524288
8000336a:	fe 68 01 f0 	mov	r8,-130576
8000336e:	91 09       	st.w	r8[0x0],r9
80003370:	5e fc       	retal	r12
80003372:	00 00       	add	r0,r0
80003374:	00 00       	add	r0,r0
80003376:	01 c0       	ld.ub	r0,r0[0x4]

80003378 <udd_ctrl_endofrequest>:
80003378:	d4 01       	pushm	lr
8000337a:	48 48       	lddpc	r8,80003388 <udd_ctrl_endofrequest+0x10>
8000337c:	70 48       	ld.w	r8,r8[0x10]
8000337e:	58 08       	cp.w	r8,0
80003380:	c0 20       	breq	80003384 <udd_ctrl_endofrequest+0xc>
80003382:	5d 18       	icall	r8
80003384:	d8 02       	popm	pc
80003386:	00 00       	add	r0,r0
80003388:	00 00       	add	r0,r0
8000338a:	04 90       	mov	r0,r2

8000338c <udd_ep_finish_job>:
8000338c:	d4 01       	pushm	lr
8000338e:	16 99       	mov	r9,r11
80003390:	78 08       	ld.w	r8,r12[0x0]
80003392:	58 08       	cp.w	r8,0
80003394:	c0 b4       	brge	800033aa <udd_ep_finish_job+0x1e>
80003396:	30 0a       	mov	r10,0
80003398:	f1 da d3 e1 	bfins	r8,r10,0x1f,0x1
8000339c:	99 08       	st.w	r12[0x0],r8
8000339e:	78 38       	ld.w	r8,r12[0xc]
800033a0:	58 08       	cp.w	r8,0
800033a2:	c0 40       	breq	800033aa <udd_ep_finish_job+0x1e>
800033a4:	78 2b       	ld.w	r11,r12[0x8]
800033a6:	12 9c       	mov	r12,r9
800033a8:	5d 18       	icall	r8
800033aa:	d8 02       	popm	pc

800033ac <udd_ep_abort_job>:
800033ac:	d4 01       	pushm	lr
800033ae:	f1 dc c0 04 	bfextu	r8,r12,0x0,0x4
800033b2:	20 18       	sub	r8,1
800033b4:	a5 68       	lsl	r8,0x4
800033b6:	30 1b       	mov	r11,1
800033b8:	48 3c       	lddpc	r12,800033c4 <udd_ep_abort_job+0x18>
800033ba:	10 0c       	add	r12,r8
800033bc:	f0 1f 00 03 	mcall	800033c8 <udd_ep_abort_job+0x1c>
800033c0:	d8 02       	popm	pc
800033c2:	00 00       	add	r0,r0
800033c4:	00 00       	add	r0,r0
800033c6:	01 ac       	ld.ub	r12,r0[0x2]
800033c8:	80 00       	ld.sh	r0,r0[0x0]
800033ca:	33 8c       	mov	r12,56

800033cc <udd_ep_set_halt>:
800033cc:	d4 01       	pushm	lr
800033ce:	f1 dc c0 04 	bfextu	r8,r12,0x0,0x4
800033d2:	30 19       	mov	r9,1
800033d4:	f2 08 18 00 	cp.b	r8,r9
800033d8:	e0 88 00 03 	brls	800033de <udd_ep_set_halt+0x12>
800033dc:	d8 0a       	popm	pc,r12=0
800033de:	f0 09 15 02 	lsl	r9,r8,0x2
800033e2:	fe 6b 01 c0 	mov	r11,-130624
800033e6:	f2 0b 00 0a 	add	r10,r9,r11
800033ea:	74 0a       	ld.w	r10,r10[0x0]
800033ec:	e2 1a 10 00 	andl	r10,0x1000,COH
800033f0:	c0 c0       	breq	80003408 <udd_ep_set_halt+0x3c>
800033f2:	20 18       	sub	r8,1
800033f4:	a5 68       	lsl	r8,0x4
800033f6:	48 b9       	lddpc	r9,80003420 <udd_ep_set_halt+0x54>
800033f8:	f2 08 00 08 	add	r8,r9,r8
800033fc:	70 09       	ld.w	r9,r8[0x0]
800033fe:	30 1a       	mov	r10,1
80003400:	f3 da d3 c1 	bfins	r9,r10,0x1e,0x1
80003404:	91 09       	st.w	r8[0x0],r9
80003406:	c0 98       	rjmp	80003418 <udd_ep_set_halt+0x4c>
80003408:	e0 39 fe 10 	sub	r9,130576
8000340c:	e8 68 00 00 	mov	r8,524288
80003410:	93 08       	st.w	r9[0x0],r8
80003412:	e4 68 00 00 	mov	r8,262144
80003416:	93 08       	st.w	r9[0x0],r8
80003418:	f0 1f 00 03 	mcall	80003424 <udd_ep_set_halt+0x58>
8000341c:	da 0a       	popm	pc,r12=1
8000341e:	00 00       	add	r0,r0
80003420:	00 00       	add	r0,r0
80003422:	01 ac       	ld.ub	r12,r0[0x2]
80003424:	80 00       	ld.sh	r0,r0[0x0]
80003426:	33 ac       	mov	r12,58

80003428 <udd_ep_free>:
80003428:	d4 01       	pushm	lr
8000342a:	fe 69 00 00 	mov	r9,-131072
8000342e:	72 7b       	ld.w	r11,r9[0x1c]
80003430:	f1 dc c0 04 	bfextu	r8,r12,0x0,0x4
80003434:	30 1a       	mov	r10,1
80003436:	f4 08 09 4a 	lsl	r10,r10,r8
8000343a:	5c da       	com	r10
8000343c:	16 6a       	and	r10,r11
8000343e:	93 7a       	st.w	r9[0x1c],r10
80003440:	a3 68       	lsl	r8,0x2
80003442:	e0 38 ff 00 	sub	r8,130816
80003446:	70 09       	ld.w	r9,r8[0x0]
80003448:	a1 d9       	cbr	r9,0x1
8000344a:	91 09       	st.w	r8[0x0],r9
8000344c:	f0 1f 00 02 	mcall	80003454 <udd_ep_free+0x2c>
80003450:	d8 02       	popm	pc
80003452:	00 00       	add	r0,r0
80003454:	80 00       	ld.sh	r0,r0[0x0]
80003456:	33 ac       	mov	r12,58

80003458 <udd_ep_run>:
80003458:	eb cd 40 fc 	pushm	r2-r7,lr
8000345c:	fd dc c0 04 	bfextu	lr,r12,0x0,0x4
80003460:	30 17       	mov	r7,1
80003462:	ee 0e 18 00 	cp.b	lr,r7
80003466:	e0 8b 00 74 	brhi	8000354e <udd_ep_run+0xf6>
8000346a:	fe 67 00 00 	mov	r7,-131072
8000346e:	6e 76       	ld.w	r6,r7[0x1c]
80003470:	1c 95       	mov	r5,lr
80003472:	30 17       	mov	r7,1
80003474:	ee 0e 09 47 	lsl	r7,r7,lr
80003478:	0c 67       	and	r7,r6
8000347a:	c6 a0       	breq	8000354e <udd_ep_run+0xf6>
8000347c:	fc 07 15 02 	lsl	r7,lr,0x2
80003480:	fe 64 01 c0 	mov	r4,-130624
80003484:	ee 04 00 06 	add	r6,r7,r4
80003488:	6c 06       	ld.w	r6,r6[0x0]
8000348a:	e6 16 00 08 	andh	r6,0x8,COH
8000348e:	c6 01       	brne	8000354e <udd_ep_run+0xf6>
80003490:	fc c6 00 01 	sub	r6,lr,1
80003494:	a5 66       	lsl	r6,0x4
80003496:	4b 34       	lddpc	r4,80003560 <udd_ep_run+0x108>
80003498:	e8 06 00 06 	add	r6,r4,r6
8000349c:	6c 04       	ld.w	r4,r6[0x0]
8000349e:	e6 14 40 00 	andh	r4,0x4000,COH
800034a2:	c5 61       	brne	8000354e <udd_ep_run+0xf6>
800034a4:	e1 b3 00 00 	mfsr	r3,0x0
800034a8:	d3 03       	ssrf	0x10
800034aa:	6c 04       	ld.w	r4,r6[0x0]
800034ac:	58 04       	cp.w	r4,0
800034ae:	c0 54       	brge	800034b8 <udd_ep_run+0x60>
800034b0:	e3 b3 00 00 	mtsr	0x0,r3
800034b4:	e3 cf 80 fc 	ldm	sp++,r2-r7,pc,r12=0
800034b8:	f9 dc c0 e8 	bfextu	r12,r12,0x7,0x8
800034bc:	6c 04       	ld.w	r4,r6[0x0]
800034be:	30 12       	mov	r2,1
800034c0:	e9 d2 d3 e1 	bfins	r4,r2,0x1f,0x1
800034c4:	8d 04       	st.w	r6[0x0],r4
800034c6:	e3 b3 00 00 	mtsr	0x0,r3
800034ca:	e0 49 ff ff 	cp.w	r9,65535
800034ce:	e0 88 00 07 	brls	800034dc <udd_ep_run+0x84>
800034d2:	e0 79 00 00 	mov	r9,65536
800034d6:	8d 29       	st.w	r6[0x8],r9
800034d8:	30 09       	mov	r9,0
800034da:	c1 18       	rjmp	800034fc <udd_ep_run+0xa4>
800034dc:	8d 29       	st.w	r6[0x8],r9
800034de:	58 0c       	cp.w	r12,0
800034e0:	c0 e0       	breq	800034fc <udd_ep_run+0xa4>
800034e2:	fe 63 01 00 	mov	r3,-130816
800034e6:	ee 03 00 04 	add	r4,r7,r3
800034ea:	68 04       	ld.w	r4,r4[0x0]
800034ec:	e9 d4 c0 83 	bfextu	r4,r4,0x4,0x3
800034f0:	30 83       	mov	r3,8
800034f2:	e6 04 09 44 	lsl	r4,r3,r4
800034f6:	20 14       	sub	r4,1
800034f8:	12 64       	and	r4,r9
800034fa:	c2 c1       	brne	80003552 <udd_ep_run+0xfa>
800034fc:	8d 1a       	st.w	r6[0x4],r10
800034fe:	8d 38       	st.w	r6[0xc],r8
80003500:	a5 6e       	lsl	lr,0x4
80003502:	e0 3e fd 00 	sub	lr,130304
80003506:	9d 1a       	st.w	lr[0x4],r10
80003508:	58 0b       	cp.w	r11,0
8000350a:	c0 31       	brne	80003510 <udd_ep_run+0xb8>
8000350c:	30 08       	mov	r8,0
8000350e:	c0 68       	rjmp	8000351a <udd_ep_run+0xc2>
80003510:	58 0c       	cp.w	r12,0
80003512:	c0 31       	brne	80003518 <udd_ep_run+0xc0>
80003514:	31 48       	mov	r8,20
80003516:	c0 28       	rjmp	8000351a <udd_ep_run+0xc2>
80003518:	30 88       	mov	r8,8
8000351a:	e8 18 00 21 	orl	r8,0x21
8000351e:	f1 e9 11 09 	or	r9,r8,r9<<0x10
80003522:	e0 37 ff 00 	sub	r7,130816
80003526:	6e 08       	ld.w	r8,r7[0x0]
80003528:	a9 b8       	sbr	r8,0x9
8000352a:	8f 08       	st.w	r7[0x0],r8
8000352c:	9d 29       	st.w	lr[0x8],r9
8000352e:	e1 b8 00 00 	mfsr	r8,0x0
80003532:	d3 03       	ssrf	0x10
80003534:	20 15       	sub	r5,1
80003536:	30 09       	mov	r9,0
80003538:	ea 19 02 00 	orh	r9,0x200
8000353c:	f2 05 09 45 	lsl	r5,r9,r5
80003540:	fe 69 00 00 	mov	r9,-131072
80003544:	93 65       	st.w	r9[0x18],r5
80003546:	e3 b8 00 00 	mtsr	0x0,r8
8000354a:	e3 cf 90 fc 	ldm	sp++,r2-r7,pc,r12=1
8000354e:	e3 cf 80 fc 	ldm	sp++,r2-r7,pc,r12=0
80003552:	8d 1a       	st.w	r6[0x4],r10
80003554:	8d 38       	st.w	r6[0xc],r8
80003556:	a5 6e       	lsl	lr,0x4
80003558:	e0 3e fd 00 	sub	lr,130304
8000355c:	9d 1a       	st.w	lr[0x4],r10
8000355e:	cd db       	rjmp	80003518 <udd_ep_run+0xc0>
80003560:	00 00       	add	r0,r0
80003562:	01 ac       	ld.ub	r12,r0[0x2]

80003564 <udd_sleep_mode>:
80003564:	58 0c       	cp.w	r12,0
80003566:	c1 11       	brne	80003588 <udd_sleep_mode+0x24>
80003568:	49 18       	lddpc	r8,800035ac <udd_sleep_mode+0x48>
8000356a:	11 89       	ld.ub	r9,r8[0x0]
8000356c:	30 08       	mov	r8,0
8000356e:	f0 09 18 00 	cp.b	r9,r8
80003572:	c1 a0       	breq	800035a6 <udd_sleep_mode+0x42>
80003574:	e1 b9 00 00 	mfsr	r9,0x0
80003578:	d3 03       	ssrf	0x10
8000357a:	48 e8       	lddpc	r8,800035b0 <udd_sleep_mode+0x4c>
8000357c:	11 9a       	ld.ub	r10,r8[0x1]
8000357e:	2f fa       	sub	r10,-1
80003580:	b0 9a       	st.b	r8[0x1],r10
80003582:	e3 b9 00 00 	mtsr	0x0,r9
80003586:	c1 08       	rjmp	800035a6 <udd_sleep_mode+0x42>
80003588:	48 98       	lddpc	r8,800035ac <udd_sleep_mode+0x48>
8000358a:	11 89       	ld.ub	r9,r8[0x0]
8000358c:	30 08       	mov	r8,0
8000358e:	f0 09 18 00 	cp.b	r9,r8
80003592:	c0 a1       	brne	800035a6 <udd_sleep_mode+0x42>
80003594:	e1 b9 00 00 	mfsr	r9,0x0
80003598:	d3 03       	ssrf	0x10
8000359a:	48 68       	lddpc	r8,800035b0 <udd_sleep_mode+0x4c>
8000359c:	11 9a       	ld.ub	r10,r8[0x1]
8000359e:	20 1a       	sub	r10,1
800035a0:	b0 9a       	st.b	r8[0x1],r10
800035a2:	e3 b9 00 00 	mtsr	0x0,r9
800035a6:	48 28       	lddpc	r8,800035ac <udd_sleep_mode+0x48>
800035a8:	b0 8c       	st.b	r8[0x0],r12
800035aa:	5e fc       	retal	r12
800035ac:	00 00       	add	r0,r0
800035ae:	01 bc       	ld.ub	r12,r0[0x3]
800035b0:	00 00       	add	r0,r0
800035b2:	07 b8       	ld.ub	r8,r3[0x3]

800035b4 <udd_ctrl_init>:
800035b4:	e1 b8 00 00 	mfsr	r8,0x0
800035b8:	d3 03       	ssrf	0x10
800035ba:	30 1a       	mov	r10,1
800035bc:	fe 69 02 20 	mov	r9,-130528
800035c0:	93 0a       	st.w	r9[0x0],r10
800035c2:	e3 b8 00 00 	mtsr	0x0,r8
800035c6:	30 29       	mov	r9,2
800035c8:	fe 68 01 60 	mov	r8,-130720
800035cc:	91 09       	st.w	r8[0x0],r9
800035ce:	48 59       	lddpc	r9,800035e0 <udd_ctrl_init+0x2c>
800035d0:	30 08       	mov	r8,0
800035d2:	93 48       	st.w	r9[0x10],r8
800035d4:	93 58       	st.w	r9[0x14],r8
800035d6:	b2 68       	st.h	r9[0xc],r8
800035d8:	48 39       	lddpc	r9,800035e4 <udd_ctrl_init+0x30>
800035da:	93 08       	st.w	r9[0x0],r8
800035dc:	5e fc       	retal	r12
800035de:	00 00       	add	r0,r0
800035e0:	00 00       	add	r0,r0
800035e2:	04 90       	mov	r0,r2
800035e4:	00 00       	add	r0,r0
800035e6:	01 c0       	ld.ub	r0,r0[0x4]

800035e8 <udd_ctrl_send_zlp_in>:
800035e8:	30 39       	mov	r9,3
800035ea:	48 a8       	lddpc	r8,80003610 <udd_ctrl_send_zlp_in+0x28>
800035ec:	91 09       	st.w	r8[0x0],r9
800035ee:	e1 bb 00 00 	mfsr	r11,0x0
800035f2:	d3 03       	ssrf	0x10
800035f4:	fe 6a 01 60 	mov	r10,-130720
800035f8:	30 19       	mov	r9,1
800035fa:	95 09       	st.w	r10[0x0],r9
800035fc:	fe 68 01 f0 	mov	r8,-130576
80003600:	91 09       	st.w	r8[0x0],r9
80003602:	30 89       	mov	r9,8
80003604:	95 09       	st.w	r10[0x0],r9
80003606:	91 09       	st.w	r8[0x0],r9
80003608:	e3 bb 00 00 	mtsr	0x0,r11
8000360c:	5e fc       	retal	r12
8000360e:	00 00       	add	r0,r0
80003610:	00 00       	add	r0,r0
80003612:	01 c0       	ld.ub	r0,r0[0x4]

80003614 <udd_ctrl_in_sent>:
80003614:	eb cd 40 80 	pushm	r7,lr
80003618:	e1 b8 00 00 	mfsr	r8,0x0
8000361c:	d3 03       	ssrf	0x10
8000361e:	30 1a       	mov	r10,1
80003620:	fe 69 02 20 	mov	r9,-130528
80003624:	93 0a       	st.w	r9[0x0],r10
80003626:	e3 b8 00 00 	mtsr	0x0,r8
8000362a:	4c 38       	lddpc	r8,80003734 <udd_ctrl_in_sent+0x120>
8000362c:	70 08       	ld.w	r8,r8[0x0]
8000362e:	58 38       	cp.w	r8,3
80003630:	c0 71       	brne	8000363e <udd_ctrl_in_sent+0x2a>
80003632:	f0 1f 00 42 	mcall	80003738 <udd_ctrl_in_sent+0x124>
80003636:	f0 1f 00 42 	mcall	8000373c <udd_ctrl_in_sent+0x128>
8000363a:	e3 cd 80 80 	ldm	sp++,r7,pc
8000363e:	4c 18       	lddpc	r8,80003740 <udd_ctrl_in_sent+0x12c>
80003640:	90 68       	ld.sh	r8,r8[0xc]
80003642:	4c 19       	lddpc	r9,80003744 <udd_ctrl_in_sent+0x130>
80003644:	92 07       	ld.sh	r7,r9[0x0]
80003646:	f0 07 01 07 	sub	r7,r8,r7
8000364a:	5c 87       	casts.h	r7
8000364c:	c3 b1       	brne	800036c2 <udd_ctrl_in_sent+0xae>
8000364e:	4b f9       	lddpc	r9,80003748 <udd_ctrl_in_sent+0x134>
80003650:	13 8a       	ld.ub	r10,r9[0x0]
80003652:	30 09       	mov	r9,0
80003654:	f2 0a 18 00 	cp.b	r10,r9
80003658:	c1 21       	brne	8000367c <udd_ctrl_in_sent+0x68>
8000365a:	30 49       	mov	r9,4
8000365c:	4b 68       	lddpc	r8,80003734 <udd_ctrl_in_sent+0x120>
8000365e:	91 09       	st.w	r8[0x0],r9
80003660:	e1 b9 00 00 	mfsr	r9,0x0
80003664:	d3 03       	ssrf	0x10
80003666:	31 08       	mov	r8,16
80003668:	fe 6a 01 60 	mov	r10,-130720
8000366c:	95 08       	st.w	r10[0x0],r8
8000366e:	fe 6a 01 f0 	mov	r10,-130576
80003672:	95 08       	st.w	r10[0x0],r8
80003674:	e3 b9 00 00 	mtsr	0x0,r9
80003678:	e3 cd 80 80 	ldm	sp++,r7,pc
8000367c:	4b 19       	lddpc	r9,80003740 <udd_ctrl_in_sent+0x12c>
8000367e:	92 b9       	ld.uh	r9,r9[0x6]
80003680:	5c 78       	castu.h	r8
80003682:	4b 3a       	lddpc	r10,8000374c <udd_ctrl_in_sent+0x138>
80003684:	94 8a       	ld.uh	r10,r10[0x0]
80003686:	14 08       	add	r8,r10
80003688:	10 39       	cp.w	r9,r8
8000368a:	e0 89 00 08 	brgt	8000369a <udd_ctrl_in_sent+0x86>
8000368e:	4a d8       	lddpc	r8,80003740 <udd_ctrl_in_sent+0x12c>
80003690:	70 5c       	ld.w	r12,r8[0x14]
80003692:	58 0c       	cp.w	r12,0
80003694:	c0 30       	breq	8000369a <udd_ctrl_in_sent+0x86>
80003696:	5d 1c       	icall	r12
80003698:	c0 51       	brne	800036a2 <udd_ctrl_in_sent+0x8e>
8000369a:	30 09       	mov	r9,0
8000369c:	4a b8       	lddpc	r8,80003748 <udd_ctrl_in_sent+0x134>
8000369e:	b0 89       	st.b	r8[0x0],r9
800036a0:	c1 18       	rjmp	800036c2 <udd_ctrl_in_sent+0xae>
800036a2:	4a b9       	lddpc	r9,8000374c <udd_ctrl_in_sent+0x138>
800036a4:	4a 88       	lddpc	r8,80003744 <udd_ctrl_in_sent+0x130>
800036a6:	90 0b       	ld.sh	r11,r8[0x0]
800036a8:	92 0a       	ld.sh	r10,r9[0x0]
800036aa:	f6 0a 00 0a 	add	r10,r11,r10
800036ae:	b2 0a       	st.h	r9[0x0],r10
800036b0:	30 09       	mov	r9,0
800036b2:	b0 09       	st.h	r8[0x0],r9
800036b4:	4a 38       	lddpc	r8,80003740 <udd_ctrl_in_sent+0x12c>
800036b6:	90 67       	ld.sh	r7,r8[0xc]
800036b8:	f1 d7 c0 03 	bfextu	r8,r7,0x0,0x3
800036bc:	5f 09       	sreq	r9
800036be:	4a 38       	lddpc	r8,80003748 <udd_ctrl_in_sent+0x134>
800036c0:	b0 89       	st.b	r8[0x0],r9
800036c2:	4a 08       	lddpc	r8,80003740 <udd_ctrl_in_sent+0x12c>
800036c4:	70 2a       	ld.w	r10,r8[0x8]
800036c6:	4a 08       	lddpc	r8,80003744 <udd_ctrl_in_sent+0x130>
800036c8:	90 09       	ld.sh	r9,r8[0x0]
800036ca:	e1 bb 00 00 	mfsr	r11,0x0
800036ce:	d3 03       	ssrf	0x10
800036d0:	fe 68 01 30 	mov	r8,-130768
800036d4:	70 08       	ld.w	r8,r8[0x0]
800036d6:	e2 18 00 02 	andl	r8,0x2,COH
800036da:	c0 91       	brne	800036ec <udd_ctrl_in_sent+0xd8>
800036dc:	30 88       	mov	r8,8
800036de:	f0 07 19 00 	cp.h	r7,r8
800036e2:	f9 b7 0b 08 	movhi	r7,8
800036e6:	58 07       	cp.w	r7,0
800036e8:	c0 91       	brne	800036fa <udd_ctrl_in_sent+0xe6>
800036ea:	c1 58       	rjmp	80003714 <udd_ctrl_in_sent+0x100>
800036ec:	e3 bb 00 00 	mtsr	0x0,r11
800036f0:	30 49       	mov	r9,4
800036f2:	49 18       	lddpc	r8,80003734 <udd_ctrl_in_sent+0x120>
800036f4:	91 09       	st.w	r8[0x0],r9
800036f6:	e3 cd 80 80 	ldm	sp++,r7,pc
800036fa:	5c 79       	castu.h	r9
800036fc:	f4 09 00 09 	add	r9,r10,r9
80003700:	30 08       	mov	r8,0
80003702:	ea 18 d0 00 	orh	r8,0xd000
80003706:	13 3a       	ld.ub	r10,r9++
80003708:	10 ca       	st.b	r8++,r10
8000370a:	f5 d8 c0 08 	bfextu	r10,r8,0x0,0x8
8000370e:	ee 0a 19 00 	cp.h	r10,r7
80003712:	cf a3       	brcs	80003706 <udd_ctrl_in_sent+0xf2>
80003714:	48 c8       	lddpc	r8,80003744 <udd_ctrl_in_sent+0x130>
80003716:	90 09       	ld.sh	r9,r8[0x0]
80003718:	f2 07 00 07 	add	r7,r9,r7
8000371c:	b0 07       	st.h	r8[0x0],r7
8000371e:	30 18       	mov	r8,1
80003720:	fe 69 01 60 	mov	r9,-130720
80003724:	93 08       	st.w	r9[0x0],r8
80003726:	fe 69 01 f0 	mov	r9,-130576
8000372a:	93 08       	st.w	r9[0x0],r8
8000372c:	e3 bb 00 00 	mtsr	0x0,r11
80003730:	e3 cd 80 80 	ldm	sp++,r7,pc
80003734:	00 00       	add	r0,r0
80003736:	01 c0       	ld.ub	r0,r0[0x4]
80003738:	80 00       	ld.sh	r0,r0[0x0]
8000373a:	33 78       	mov	r8,55
8000373c:	80 00       	ld.sh	r0,r0[0x0]
8000373e:	35 b4       	mov	r4,91
80003740:	00 00       	add	r0,r0
80003742:	04 90       	mov	r0,r2
80003744:	00 00       	add	r0,r0
80003746:	01 be       	ld.ub	lr,r0[0x3]
80003748:	00 00       	add	r0,r0
8000374a:	01 c4       	ld.ub	r4,r0[0x4]
8000374c:	00 00       	add	r0,r0
8000374e:	01 a8       	ld.ub	r8,r0[0x2]

80003750 <udd_ep_alloc>:
80003750:	eb cd 40 e0 	pushm	r5-r7,lr
80003754:	f1 dc c0 04 	bfextu	r8,r12,0x0,0x4
80003758:	30 19       	mov	r9,1
8000375a:	f2 08 18 00 	cp.b	r8,r9
8000375e:	e0 8b 00 78 	brhi	8000384e <udd_ep_alloc+0xfe>
80003762:	fe 69 00 00 	mov	r9,-131072
80003766:	72 7e       	ld.w	lr,r9[0x1c]
80003768:	30 19       	mov	r9,1
8000376a:	f2 08 09 49 	lsl	r9,r9,r8
8000376e:	f3 ee 00 0e 	and	lr,r9,lr
80003772:	c6 e1       	brne	8000384e <udd_ep_alloc+0xfe>
80003774:	fd db c0 02 	bfextu	lr,r11,0x0,0x2
80003778:	58 1e       	cp.w	lr,1
8000377a:	c6 a5       	brlt	8000384e <udd_ep_alloc+0xfe>
8000377c:	58 2e       	cp.w	lr,2
8000377e:	e0 8a 00 06 	brle	8000378a <udd_ep_alloc+0x3a>
80003782:	58 3e       	cp.w	lr,3
80003784:	c6 51       	brne	8000384e <udd_ep_alloc+0xfe>
80003786:	30 06       	mov	r6,0
80003788:	c0 28       	rjmp	8000378c <udd_ep_alloc+0x3c>
8000378a:	30 16       	mov	r6,1
8000378c:	f0 0e 15 02 	lsl	lr,r8,0x2
80003790:	e0 3e ff 00 	sub	lr,130816
80003794:	7c 07       	ld.w	r7,lr[0x0]
80003796:	5c 7a       	castu.h	r10
80003798:	30 85       	mov	r5,8
8000379a:	f4 05 0c 4a 	max	r10,r10,r5
8000379e:	e0 65 04 00 	mov	r5,1024
800037a2:	f4 05 0d 4a 	min	r10,r10,r5
800037a6:	a1 7a       	lsl	r10,0x1
800037a8:	20 1a       	sub	r10,1
800037aa:	f4 0a 12 00 	clz	r10,r10
800037ae:	f9 dc c0 e1 	bfextu	r12,r12,0x7,0x1
800037b2:	ab 7b       	lsl	r11,0xb
800037b4:	e2 1b 18 00 	andl	r11,0x1800,COH
800037b8:	f7 ec 10 8c 	or	r12,r11,r12<<0x8
800037bc:	f4 0b 11 1c 	rsub	r11,r10,28
800037c0:	f9 eb 10 4b 	or	r11,r12,r11<<0x4
800037c4:	f7 e6 10 2b 	or	r11,r11,r6<<0x2
800037c8:	e2 1b 19 7c 	andl	r11,0x197c,COH
800037cc:	0e 9a       	mov	r10,r7
800037ce:	e0 1a e6 83 	andl	r10,0xe683
800037d2:	f7 ea 10 0a 	or	r10,r11,r10
800037d6:	9d 0a       	st.w	lr[0x0],r10
800037d8:	f9 d9 b0 10 	bfexts	r12,r9,0x0,0x10
800037dc:	58 08       	cp.w	r8,0
800037de:	c1 21       	brne	80003802 <udd_ep_alloc+0xb2>
800037e0:	fe 69 00 00 	mov	r9,-131072
800037e4:	72 79       	ld.w	r9,r9[0x1c]
800037e6:	e2 19 00 02 	andl	r9,0x2,COH
800037ea:	c0 c0       	breq	80003802 <udd_ep_alloc+0xb2>
800037ec:	a1 bc       	sbr	r12,0x1
800037ee:	fe 69 00 00 	mov	r9,-131072
800037f2:	72 7a       	ld.w	r10,r9[0x1c]
800037f4:	a1 da       	cbr	r10,0x1
800037f6:	93 7a       	st.w	r9[0x1c],r10
800037f8:	fe 69 01 04 	mov	r9,-130812
800037fc:	72 0a       	ld.w	r10,r9[0x0]
800037fe:	a1 da       	cbr	r10,0x1
80003800:	93 0a       	st.w	r9[0x0],r10
80003802:	5c 7c       	castu.h	r12
80003804:	fe 6e 00 00 	mov	lr,-131072
80003808:	30 16       	mov	r6,1
8000380a:	30 17       	mov	r7,1
8000380c:	f8 08 08 49 	asr	r9,r12,r8
80003810:	f3 d9 c0 01 	bfextu	r9,r9,0x0,0x1
80003814:	c1 50       	breq	8000383e <udd_ep_alloc+0xee>
80003816:	f0 09 15 02 	lsl	r9,r8,0x2
8000381a:	fe 65 01 00 	mov	r5,-130816
8000381e:	f2 05 00 0b 	add	r11,r9,r5
80003822:	76 05       	ld.w	r5,r11[0x0]
80003824:	a1 b5       	sbr	r5,0x1
80003826:	97 05       	st.w	r11[0x0],r5
80003828:	7c 7b       	ld.w	r11,lr[0x1c]
8000382a:	ec 08 09 4a 	lsl	r10,r6,r8
8000382e:	16 4a       	or	r10,r11
80003830:	9d 7a       	st.w	lr[0x1c],r10
80003832:	e0 39 fe d0 	sub	r9,130768
80003836:	72 09       	ld.w	r9,r9[0x0]
80003838:	e6 19 00 04 	andh	r9,0x4,COH
8000383c:	c0 90       	breq	8000384e <udd_ep_alloc+0xfe>
8000383e:	2f f8       	sub	r8,-1
80003840:	5c 58       	castu.b	r8
80003842:	ee 08 18 00 	cp.b	r8,r7
80003846:	fe 98 ff e3 	brls	8000380c <udd_ep_alloc+0xbc>
8000384a:	e3 cf 90 e0 	ldm	sp++,r5-r7,pc,r12=1
8000384e:	e3 cf 80 e0 	ldm	sp++,r5-r7,pc,r12=0

80003852 <udd_reset_ep_ctrl>:
80003852:	fe 68 00 00 	mov	r8,-131072
80003856:	70 09       	ld.w	r9,r8[0x0]
80003858:	e0 19 ff 80 	andl	r9,0xff80
8000385c:	91 09       	st.w	r8[0x0],r9
8000385e:	70 09       	ld.w	r9,r8[0x0]
80003860:	a7 b9       	sbr	r9,0x7
80003862:	91 09       	st.w	r8[0x0],r9
80003864:	fe 69 01 00 	mov	r9,-130816
80003868:	72 0b       	ld.w	r11,r9[0x0]
8000386a:	30 8a       	mov	r10,8
8000386c:	f4 0a 0c 4a 	max	r10,r10,r10
80003870:	e0 6c 04 00 	mov	r12,1024
80003874:	f4 0c 0d 4a 	min	r10,r10,r12
80003878:	a1 7a       	lsl	r10,0x1
8000387a:	20 1a       	sub	r10,1
8000387c:	f4 0a 12 00 	clz	r10,r10
80003880:	f4 0a 11 1c 	rsub	r10,r10,28
80003884:	a5 6a       	lsl	r10,0x4
80003886:	e2 1a 19 7c 	andl	r10,0x197c,COH
8000388a:	e0 1b e6 83 	andl	r11,0xe683
8000388e:	16 4a       	or	r10,r11
80003890:	93 0a       	st.w	r9[0x0],r10
80003892:	72 0a       	ld.w	r10,r9[0x0]
80003894:	a1 ba       	sbr	r10,0x1
80003896:	93 0a       	st.w	r9[0x0],r10
80003898:	70 79       	ld.w	r9,r8[0x1c]
8000389a:	a1 a9       	sbr	r9,0x0
8000389c:	91 79       	st.w	r8[0x1c],r9
8000389e:	e1 ba 00 00 	mfsr	r10,0x0
800038a2:	d3 03       	ssrf	0x10
800038a4:	fe 69 01 f0 	mov	r9,-130576
800038a8:	30 4b       	mov	r11,4
800038aa:	93 0b       	st.w	r9[0x0],r11
800038ac:	30 2b       	mov	r11,2
800038ae:	93 0b       	st.w	r9[0x0],r11
800038b0:	e0 69 10 00 	mov	r9,4096
800038b4:	91 69       	st.w	r8[0x18],r9
800038b6:	e3 ba 00 00 	mtsr	0x0,r10
800038ba:	5e fc       	retal	r12

800038bc <udd_attach>:
800038bc:	eb cd 40 c0 	pushm	r6-r7,lr
800038c0:	e1 b6 00 00 	mfsr	r6,0x0
800038c4:	d3 03       	ssrf	0x10
800038c6:	30 1c       	mov	r12,1
800038c8:	f0 1f 00 17 	mcall	80003924 <udd_attach+0x68>
800038cc:	fe 68 00 00 	mov	r8,-131072
800038d0:	f0 f9 08 00 	ld.w	r9,r8[2048]
800038d4:	af c9       	cbr	r9,0xe
800038d6:	f1 49 08 00 	st.w	r8[2048],r9
800038da:	f0 f9 08 04 	ld.w	r9,r8[2052]
800038de:	e2 19 40 00 	andl	r9,0x4000,COH
800038e2:	cf c0       	breq	800038da <udd_attach+0x1e>
800038e4:	fe 67 00 00 	mov	r7,-131072
800038e8:	6e 08       	ld.w	r8,r7[0x0]
800038ea:	a9 c8       	cbr	r8,0x8
800038ec:	8f 08       	st.w	r7[0x0],r8
800038ee:	f0 1f 00 0f 	mcall	80003928 <udd_attach+0x6c>
800038f2:	f0 1f 00 0f 	mcall	8000392c <udd_attach+0x70>
800038f6:	f0 1f 00 0f 	mcall	80003930 <udd_attach+0x74>
800038fa:	30 8b       	mov	r11,8
800038fc:	8f 6b       	st.w	r7[0x18],r11
800038fe:	30 19       	mov	r9,1
80003900:	8f 69       	st.w	r7[0x18],r9
80003902:	31 08       	mov	r8,16
80003904:	8f 68       	st.w	r7[0x18],r8
80003906:	30 4a       	mov	r10,4
80003908:	8f 6a       	st.w	r7[0x18],r10
8000390a:	8f 2b       	st.w	r7[0x8],r11
8000390c:	8f 2a       	st.w	r7[0x8],r10
8000390e:	8f 39       	st.w	r7[0xc],r9
80003910:	8f 28       	st.w	r7[0x8],r8
80003912:	ee f8 08 00 	ld.w	r8,r7[2048]
80003916:	af a8       	sbr	r8,0xe
80003918:	ef 48 08 00 	st.w	r7[2048],r8
8000391c:	e3 b6 00 00 	mtsr	0x0,r6
80003920:	e3 cd 80 c0 	ldm	sp++,r6-r7,pc
80003924:	80 00       	ld.sh	r0,r0[0x0]
80003926:	35 64       	mov	r4,86
80003928:	80 00       	ld.sh	r0,r0[0x0]
8000392a:	73 68       	ld.w	r8,r9[0x58]
8000392c:	80 00       	ld.sh	r0,r0[0x0]
8000392e:	38 52       	mov	r2,-123
80003930:	80 00       	ld.sh	r0,r0[0x0]
80003932:	35 b4       	mov	r4,91

80003934 <udd_enable>:
80003934:	eb cd 40 c0 	pushm	r6-r7,lr
80003938:	f0 1f 00 37 	mcall	80003a14 <udd_enable+0xe0>
8000393c:	e1 b6 00 00 	mfsr	r6,0x0
80003940:	d3 03       	ssrf	0x10
80003942:	fe 67 00 00 	mov	r7,-131072
80003946:	ee f8 08 00 	ld.w	r8,r7[2048]
8000394a:	af d8       	cbr	r8,0xf
8000394c:	ef 48 08 00 	st.w	r7[2048],r8
80003950:	ee f8 08 00 	ld.w	r8,r7[2048]
80003954:	30 0a       	mov	r10,0
80003956:	e0 6b 02 20 	mov	r11,544
8000395a:	4b 0c       	lddpc	r12,80003a18 <udd_enable+0xe4>
8000395c:	f0 1f 00 30 	mcall	80003a1c <udd_enable+0xe8>
80003960:	ee f8 08 00 	ld.w	r8,r7[2048]
80003964:	b9 b8       	sbr	r8,0x19
80003966:	ef 48 08 00 	st.w	r7[2048],r8
8000396a:	ee f8 08 00 	ld.w	r8,r7[2048]
8000396e:	b9 c8       	cbr	r8,0x18
80003970:	ef 48 08 00 	st.w	r7[2048],r8
80003974:	ee f8 08 00 	ld.w	r8,r7[2048]
80003978:	ad c8       	cbr	r8,0xc
8000397a:	ef 48 08 00 	st.w	r7[2048],r8
8000397e:	ee f8 08 00 	ld.w	r8,r7[2048]
80003982:	ad a8       	sbr	r8,0xc
80003984:	ef 48 08 00 	st.w	r7[2048],r8
80003988:	ee f8 08 00 	ld.w	r8,r7[2048]
8000398c:	af b8       	sbr	r8,0xf
8000398e:	ef 48 08 00 	st.w	r7[2048],r8
80003992:	ee f8 08 00 	ld.w	r8,r7[2048]
80003996:	af c8       	cbr	r8,0xe
80003998:	ef 48 08 00 	st.w	r7[2048],r8
8000399c:	ee f8 08 00 	ld.w	r8,r7[2048]
800039a0:	0e 99       	mov	r9,r7
800039a2:	f2 f8 08 04 	ld.w	r8,r9[2052]
800039a6:	e2 18 40 00 	andl	r8,0x4000,COH
800039aa:	cf c0       	breq	800039a2 <udd_enable+0x6e>
800039ac:	49 d8       	lddpc	r8,80003a20 <udd_enable+0xec>
800039ae:	70 0a       	ld.w	r10,r8[0x0]
800039b0:	30 09       	mov	r9,0
800039b2:	f5 da c0 1f 	bfextu	r10,r10,0x0,0x1f
800039b6:	f5 d9 d3 c1 	bfins	r10,r9,0x1e,0x1
800039ba:	91 0a       	st.w	r8[0x0],r10
800039bc:	fe 68 00 00 	mov	r8,-131072
800039c0:	70 0a       	ld.w	r10,r8[0x0]
800039c2:	ad ca       	cbr	r10,0xc
800039c4:	91 0a       	st.w	r8[0x0],r10
800039c6:	70 0a       	ld.w	r10,r8[0x0]
800039c8:	e8 1a 0c 00 	orl	r10,0xc00
800039cc:	91 0a       	st.w	r8[0x0],r10
800039ce:	f0 fa 08 00 	ld.w	r10,r8[2048]
800039d2:	a1 ba       	sbr	r10,0x1
800039d4:	f1 4a 08 00 	st.w	r8[2048],r10
800039d8:	f0 fa 08 00 	ld.w	r10,r8[2048]
800039dc:	af aa       	sbr	r10,0xe
800039de:	f1 4a 08 00 	st.w	r8[2048],r10
800039e2:	fe 78 0c 00 	mov	r8,-62464
800039e6:	f0 fa 01 44 	ld.w	r10,r8[324]
800039ea:	30 1b       	mov	r11,1
800039ec:	f5 db d0 01 	bfins	r10,r11,0x0,0x1
800039f0:	f1 4a 01 44 	st.w	r8[324],r10
800039f4:	48 c8       	lddpc	r8,80003a24 <udd_enable+0xf0>
800039f6:	b0 89       	st.b	r8[0x0],r9
800039f8:	e1 b9 00 00 	mfsr	r9,0x0
800039fc:	d3 03       	ssrf	0x10
800039fe:	48 b8       	lddpc	r8,80003a28 <udd_enable+0xf4>
80003a00:	11 ba       	ld.ub	r10,r8[0x3]
80003a02:	2f fa       	sub	r10,-1
80003a04:	b0 ba       	st.b	r8[0x3],r10
80003a06:	e3 b9 00 00 	mtsr	0x0,r9
80003a0a:	e3 b6 00 00 	mtsr	0x0,r6
80003a0e:	e3 cd 80 c0 	ldm	sp++,r6-r7,pc
80003a12:	00 00       	add	r0,r0
80003a14:	80 00       	ld.sh	r0,r0[0x0]
80003a16:	6c a4       	ld.w	r4,r6[0x28]
80003a18:	80 00       	ld.sh	r0,r0[0x0]
80003a1a:	3a 2c       	mov	r12,-94
80003a1c:	80 00       	ld.sh	r0,r0[0x0]
80003a1e:	2f f8       	sub	r8,-1
80003a20:	00 00       	add	r0,r0
80003a22:	01 ac       	ld.ub	r12,r0[0x2]
80003a24:	00 00       	add	r0,r0
80003a26:	01 bc       	ld.ub	r12,r0[0x3]
80003a28:	00 00       	add	r0,r0
80003a2a:	07 b8       	ld.ub	r8,r3[0x3]

80003a2c <udd_interrupt>:
80003a2c:	d4 01       	pushm	lr
80003a2e:	fe 68 00 00 	mov	r8,-131072
80003a32:	70 18       	ld.w	r8,r8[0x4]
80003a34:	e2 18 00 04 	andl	r8,0x4,COH
80003a38:	c0 90       	breq	80003a4a <udd_interrupt+0x1e>
80003a3a:	30 49       	mov	r9,4
80003a3c:	fe 68 00 00 	mov	r8,-131072
80003a40:	91 29       	st.w	r8[0x8],r9
80003a42:	f0 1f 01 3c 	mcall	80003f30 <udd_interrupt+0x504>
80003a46:	e0 8f 02 63 	bral	80003f0c <udd_interrupt+0x4e0>
80003a4a:	fe 68 00 00 	mov	r8,-131072
80003a4e:	70 18       	ld.w	r8,r8[0x4]
80003a50:	e2 18 10 00 	andl	r8,0x1000,COH
80003a54:	e0 80 01 80 	breq	80003d54 <udd_interrupt+0x328>
80003a58:	fe 68 02 20 	mov	r8,-130528
80003a5c:	31 09       	mov	r9,16
80003a5e:	91 09       	st.w	r8[0x0],r9
80003a60:	30 89       	mov	r9,8
80003a62:	91 09       	st.w	r8[0x0],r9
80003a64:	fe 68 01 30 	mov	r8,-130768
80003a68:	70 08       	ld.w	r8,r8[0x0]
80003a6a:	e2 18 00 04 	andl	r8,0x4,COH
80003a6e:	c7 e0       	breq	80003b6a <udd_interrupt+0x13e>
80003a70:	fe f8 04 c4 	ld.w	r8,pc[1220]
80003a74:	70 08       	ld.w	r8,r8[0x0]
80003a76:	58 08       	cp.w	r8,0
80003a78:	c0 50       	breq	80003a82 <udd_interrupt+0x56>
80003a7a:	f0 1f 01 30 	mcall	80003f38 <udd_interrupt+0x50c>
80003a7e:	f0 1f 01 30 	mcall	80003f3c <udd_interrupt+0x510>
80003a82:	fe 68 01 30 	mov	r8,-130768
80003a86:	70 08       	ld.w	r8,r8[0x0]
80003a88:	f1 d8 c2 8b 	bfextu	r8,r8,0x14,0xb
80003a8c:	58 88       	cp.w	r8,8
80003a8e:	c0 90       	breq	80003aa0 <udd_interrupt+0x74>
80003a90:	f0 1f 01 2c 	mcall	80003f40 <udd_interrupt+0x514>
80003a94:	30 49       	mov	r9,4
80003a96:	fe 68 01 60 	mov	r8,-130720
80003a9a:	91 09       	st.w	r8[0x0],r9
80003a9c:	e0 8f 02 38 	bral	80003f0c <udd_interrupt+0x4e0>
80003aa0:	fe f8 04 a4 	ld.w	r8,pc[1188]
80003aa4:	30 09       	mov	r9,0
80003aa6:	ea 19 d0 00 	orh	r9,0xd000
80003aaa:	72 0a       	ld.w	r10,r9[0x0]
80003aac:	91 0a       	st.w	r8[0x0],r10
80003aae:	30 49       	mov	r9,4
80003ab0:	ea 19 d0 00 	orh	r9,0xd000
80003ab4:	72 09       	ld.w	r9,r9[0x0]
80003ab6:	5c ca       	swap.bh	r10
80003ab8:	b0 1a       	st.h	r8[0x2],r10
80003aba:	f2 0a 14 10 	asr	r10,r9,0x10
80003abe:	5c ca       	swap.bh	r10
80003ac0:	b0 2a       	st.h	r8[0x4],r10
80003ac2:	5c c9       	swap.bh	r9
80003ac4:	b0 39       	st.h	r8[0x6],r9
80003ac6:	f0 1f 01 21 	mcall	80003f48 <udd_interrupt+0x51c>
80003aca:	c0 91       	brne	80003adc <udd_interrupt+0xb0>
80003acc:	f0 1f 01 1d 	mcall	80003f40 <udd_interrupt+0x514>
80003ad0:	30 49       	mov	r9,4
80003ad2:	fe 68 01 60 	mov	r8,-130720
80003ad6:	91 09       	st.w	r8[0x0],r9
80003ad8:	e0 8f 02 1a 	bral	80003f0c <udd_interrupt+0x4e0>
80003adc:	30 49       	mov	r9,4
80003ade:	fe 68 01 60 	mov	r8,-130720
80003ae2:	91 09       	st.w	r8[0x0],r9
80003ae4:	fe f8 04 60 	ld.w	r8,pc[1120]
80003ae8:	11 89       	ld.ub	r9,r8[0x0]
80003aea:	30 08       	mov	r8,0
80003aec:	f0 09 18 00 	cp.b	r9,r8
80003af0:	c1 94       	brge	80003b22 <udd_interrupt+0xf6>
80003af2:	fe f8 04 52 	ld.w	r8,pc[1106]
80003af6:	90 e8       	ld.uh	r8,r8[0xc]
80003af8:	f1 d8 c0 03 	bfextu	r8,r8,0x0,0x3
80003afc:	5f 09       	sreq	r9
80003afe:	fe f8 04 4e 	ld.w	r8,pc[1102]
80003b02:	b0 89       	st.b	r8[0x0],r9
80003b04:	30 08       	mov	r8,0
80003b06:	fe f9 04 4a 	ld.w	r9,pc[1098]
80003b0a:	b2 08       	st.h	r9[0x0],r8
80003b0c:	fe f9 04 48 	ld.w	r9,pc[1096]
80003b10:	b2 08       	st.h	r9[0x0],r8
80003b12:	30 29       	mov	r9,2
80003b14:	fe f8 04 20 	ld.w	r8,pc[1056]
80003b18:	91 09       	st.w	r8[0x0],r9
80003b1a:	f0 1f 01 10 	mcall	80003f58 <udd_interrupt+0x52c>
80003b1e:	e0 8f 01 f7 	bral	80003f0c <udd_interrupt+0x4e0>
80003b22:	fe f8 04 22 	ld.w	r8,pc[1058]
80003b26:	90 39       	ld.sh	r9,r8[0x6]
80003b28:	30 08       	mov	r8,0
80003b2a:	f0 09 19 00 	cp.h	r9,r8
80003b2e:	c0 51       	brne	80003b38 <udd_interrupt+0x10c>
80003b30:	f0 1f 01 0b 	mcall	80003f5c <udd_interrupt+0x530>
80003b34:	e0 8f 01 ec 	bral	80003f0c <udd_interrupt+0x4e0>
80003b38:	30 08       	mov	r8,0
80003b3a:	fe f9 04 16 	ld.w	r9,pc[1046]
80003b3e:	b2 08       	st.h	r9[0x0],r8
80003b40:	fe f9 04 14 	ld.w	r9,pc[1044]
80003b44:	b2 08       	st.h	r9[0x0],r8
80003b46:	30 19       	mov	r9,1
80003b48:	fe f8 03 ec 	ld.w	r8,pc[1004]
80003b4c:	91 09       	st.w	r8[0x0],r9
80003b4e:	31 08       	mov	r8,16
80003b50:	fe 69 01 60 	mov	r9,-130720
80003b54:	93 08       	st.w	r9[0x0],r8
80003b56:	e1 b9 00 00 	mfsr	r9,0x0
80003b5a:	d3 03       	ssrf	0x10
80003b5c:	fe 6a 01 f0 	mov	r10,-130576
80003b60:	95 08       	st.w	r10[0x0],r8
80003b62:	e3 b9 00 00 	mtsr	0x0,r9
80003b66:	e0 8f 01 d3 	bral	80003f0c <udd_interrupt+0x4e0>
80003b6a:	fe 68 01 30 	mov	r8,-130768
80003b6e:	70 08       	ld.w	r8,r8[0x0]
80003b70:	f1 d8 c0 01 	bfextu	r8,r8,0x0,0x1
80003b74:	c0 b0       	breq	80003b8a <udd_interrupt+0x15e>
80003b76:	fe 68 01 c0 	mov	r8,-130624
80003b7a:	70 08       	ld.w	r8,r8[0x0]
80003b7c:	f1 d8 c0 01 	bfextu	r8,r8,0x0,0x1
80003b80:	c0 50       	breq	80003b8a <udd_interrupt+0x15e>
80003b82:	f0 1f 00 f6 	mcall	80003f58 <udd_interrupt+0x52c>
80003b86:	e0 8f 01 c3 	bral	80003f0c <udd_interrupt+0x4e0>
80003b8a:	fe 68 01 30 	mov	r8,-130768
80003b8e:	70 08       	ld.w	r8,r8[0x0]
80003b90:	e2 18 00 02 	andl	r8,0x2,COH
80003b94:	e0 80 00 a1 	breq	80003cd6 <udd_interrupt+0x2aa>
80003b98:	fe f8 03 9c 	ld.w	r8,pc[924]
80003b9c:	70 08       	ld.w	r8,r8[0x0]
80003b9e:	58 18       	cp.w	r8,1
80003ba0:	c1 10       	breq	80003bc2 <udd_interrupt+0x196>
80003ba2:	58 28       	cp.w	r8,2
80003ba4:	5f 09       	sreq	r9
80003ba6:	58 48       	cp.w	r8,4
80003ba8:	5f 08       	sreq	r8
80003baa:	f3 e8 10 08 	or	r8,r9,r8
80003bae:	c0 40       	breq	80003bb6 <udd_interrupt+0x18a>
80003bb0:	f0 1f 00 e2 	mcall	80003f38 <udd_interrupt+0x50c>
80003bb4:	c0 38       	rjmp	80003bba <udd_interrupt+0x18e>
80003bb6:	f0 1f 00 e3 	mcall	80003f40 <udd_interrupt+0x514>
80003bba:	f0 1f 00 e1 	mcall	80003f3c <udd_interrupt+0x510>
80003bbe:	e0 8f 01 a7 	bral	80003f0c <udd_interrupt+0x4e0>
80003bc2:	fe 68 01 30 	mov	r8,-130768
80003bc6:	70 0b       	ld.w	r11,r8[0x0]
80003bc8:	f7 db c2 8b 	bfextu	r11,r11,0x14,0xb
80003bcc:	fe f8 03 78 	ld.w	r8,pc[888]
80003bd0:	90 69       	ld.sh	r9,r8[0xc]
80003bd2:	fe f8 03 82 	ld.w	r8,pc[898]
80003bd6:	90 08       	ld.sh	r8,r8[0x0]
80003bd8:	f9 d9 c0 10 	bfextu	r12,r9,0x0,0x10
80003bdc:	f5 d8 c0 10 	bfextu	r10,r8,0x0,0x10
80003be0:	f6 0a 00 0a 	add	r10,r11,r10
80003be4:	14 3c       	cp.w	r12,r10
80003be6:	c0 44       	brge	80003bee <udd_interrupt+0x1c2>
80003be8:	10 19       	sub	r9,r8
80003bea:	f7 d9 b0 10 	bfexts	r11,r9,0x0,0x10
80003bee:	fe f9 03 56 	ld.w	r9,pc[854]
80003bf2:	72 29       	ld.w	r9,r9[0x8]
80003bf4:	58 0b       	cp.w	r11,0
80003bf6:	e0 80 01 91 	breq	80003f18 <udd_interrupt+0x4ec>
80003bfa:	5c 78       	castu.h	r8
80003bfc:	10 09       	add	r9,r8
80003bfe:	30 08       	mov	r8,0
80003c00:	ea 18 d0 00 	orh	r8,0xd000
80003c04:	11 3a       	ld.ub	r10,r8++
80003c06:	12 ca       	st.b	r9++,r10
80003c08:	f5 d8 c0 08 	bfextu	r10,r8,0x0,0x8
80003c0c:	f6 0a 19 00 	cp.h	r10,r11
80003c10:	cf a3       	brcs	80003c04 <udd_interrupt+0x1d8>
80003c12:	fe f9 03 42 	ld.w	r9,pc[834]
80003c16:	92 08       	ld.sh	r8,r9[0x0]
80003c18:	16 08       	add	r8,r11
80003c1a:	5c 88       	casts.h	r8
80003c1c:	b2 08       	st.h	r9[0x0],r8
80003c1e:	30 89       	mov	r9,8
80003c20:	f2 0b 19 00 	cp.h	r11,r9
80003c24:	c0 e1       	brne	80003c40 <udd_interrupt+0x214>
80003c26:	fe f9 03 1e 	ld.w	r9,pc[798]
80003c2a:	92 ba       	ld.uh	r10,r9[0x6]
80003c2c:	f7 d8 c0 10 	bfextu	r11,r8,0x0,0x10
80003c30:	fe f9 03 20 	ld.w	r9,pc[800]
80003c34:	92 89       	ld.uh	r9,r9[0x0]
80003c36:	f6 09 00 09 	add	r9,r11,r9
80003c3a:	12 3a       	cp.w	r10,r9
80003c3c:	e0 89 00 18 	brgt	80003c6c <udd_interrupt+0x240>
80003c40:	fe f9 03 04 	ld.w	r9,pc[772]
80003c44:	b2 68       	st.h	r9[0xc],r8
80003c46:	72 5c       	ld.w	r12,r9[0x14]
80003c48:	58 0c       	cp.w	r12,0
80003c4a:	c0 a0       	breq	80003c5e <udd_interrupt+0x232>
80003c4c:	5d 1c       	icall	r12
80003c4e:	c0 81       	brne	80003c5e <udd_interrupt+0x232>
80003c50:	f0 1f 00 bc 	mcall	80003f40 <udd_interrupt+0x514>
80003c54:	30 29       	mov	r9,2
80003c56:	fe 68 01 60 	mov	r8,-130720
80003c5a:	91 09       	st.w	r8[0x0],r9
80003c5c:	c5 89       	rjmp	80003f0c <udd_interrupt+0x4e0>
80003c5e:	30 29       	mov	r9,2
80003c60:	fe 68 01 60 	mov	r8,-130720
80003c64:	91 09       	st.w	r8[0x0],r9
80003c66:	f0 1f 00 be 	mcall	80003f5c <udd_interrupt+0x530>
80003c6a:	c5 19       	rjmp	80003f0c <udd_interrupt+0x4e0>
80003c6c:	fe f9 02 d8 	ld.w	r9,pc[728]
80003c70:	92 69       	ld.sh	r9,r9[0xc]
80003c72:	f0 09 19 00 	cp.h	r9,r8
80003c76:	c2 11       	brne	80003cb8 <udd_interrupt+0x28c>
80003c78:	fe f8 02 cc 	ld.w	r8,pc[716]
80003c7c:	70 5c       	ld.w	r12,r8[0x14]
80003c7e:	58 0c       	cp.w	r12,0
80003c80:	c0 81       	brne	80003c90 <udd_interrupt+0x264>
80003c82:	f0 1f 00 b0 	mcall	80003f40 <udd_interrupt+0x514>
80003c86:	30 29       	mov	r9,2
80003c88:	fe 68 01 60 	mov	r8,-130720
80003c8c:	91 09       	st.w	r8[0x0],r9
80003c8e:	c3 f9       	rjmp	80003f0c <udd_interrupt+0x4e0>
80003c90:	5d 1c       	icall	r12
80003c92:	c0 81       	brne	80003ca2 <udd_interrupt+0x276>
80003c94:	f0 1f 00 ab 	mcall	80003f40 <udd_interrupt+0x514>
80003c98:	30 29       	mov	r9,2
80003c9a:	fe 68 01 60 	mov	r8,-130720
80003c9e:	91 09       	st.w	r8[0x0],r9
80003ca0:	c3 69       	rjmp	80003f0c <udd_interrupt+0x4e0>
80003ca2:	fe f9 02 ae 	ld.w	r9,pc[686]
80003ca6:	fe f8 02 ae 	ld.w	r8,pc[686]
80003caa:	90 0b       	ld.sh	r11,r8[0x0]
80003cac:	92 0a       	ld.sh	r10,r9[0x0]
80003cae:	f6 0a 00 0a 	add	r10,r11,r10
80003cb2:	b2 0a       	st.h	r9[0x0],r10
80003cb4:	30 09       	mov	r9,0
80003cb6:	b0 09       	st.h	r8[0x0],r9
80003cb8:	fe 69 01 60 	mov	r9,-130720
80003cbc:	30 28       	mov	r8,2
80003cbe:	93 08       	st.w	r9[0x0],r8
80003cc0:	31 08       	mov	r8,16
80003cc2:	93 08       	st.w	r9[0x0],r8
80003cc4:	e1 b9 00 00 	mfsr	r9,0x0
80003cc8:	d3 03       	ssrf	0x10
80003cca:	fe 6a 01 f0 	mov	r10,-130576
80003cce:	95 08       	st.w	r10[0x0],r8
80003cd0:	e3 b9 00 00 	mtsr	0x0,r9
80003cd4:	c1 c9       	rjmp	80003f0c <udd_interrupt+0x4e0>
80003cd6:	fe 68 01 30 	mov	r8,-130768
80003cda:	70 08       	ld.w	r8,r8[0x0]
80003cdc:	e2 18 00 08 	andl	r8,0x8,COH
80003ce0:	c1 80       	breq	80003d10 <udd_interrupt+0x2e4>
80003ce2:	30 89       	mov	r9,8
80003ce4:	fe 68 01 60 	mov	r8,-130720
80003ce8:	91 09       	st.w	r8[0x0],r9
80003cea:	fe 68 01 30 	mov	r8,-130768
80003cee:	70 08       	ld.w	r8,r8[0x0]
80003cf0:	f1 d8 c0 01 	bfextu	r8,r8,0x0,0x1
80003cf4:	e0 81 01 0c 	brne	80003f0c <udd_interrupt+0x4e0>
80003cf8:	fe f8 02 3c 	ld.w	r8,pc[572]
80003cfc:	70 08       	ld.w	r8,r8[0x0]
80003cfe:	58 38       	cp.w	r8,3
80003d00:	e0 81 01 06 	brne	80003f0c <udd_interrupt+0x4e0>
80003d04:	e8 69 00 00 	mov	r9,524288
80003d08:	fe 68 01 f0 	mov	r8,-130576
80003d0c:	91 09       	st.w	r8[0x0],r9
80003d0e:	cf f8       	rjmp	80003f0c <udd_interrupt+0x4e0>
80003d10:	fe 68 01 30 	mov	r8,-130768
80003d14:	70 08       	ld.w	r8,r8[0x0]
80003d16:	e2 18 00 10 	andl	r8,0x10,COH
80003d1a:	c1 d0       	breq	80003d54 <udd_interrupt+0x328>
80003d1c:	31 09       	mov	r9,16
80003d1e:	fe 68 01 60 	mov	r8,-130720
80003d22:	91 09       	st.w	r8[0x0],r9
80003d24:	fe 68 01 30 	mov	r8,-130768
80003d28:	70 08       	ld.w	r8,r8[0x0]
80003d2a:	e2 18 00 02 	andl	r8,0x2,COH
80003d2e:	e0 81 00 ef 	brne	80003f0c <udd_interrupt+0x4e0>
80003d32:	fe f8 02 02 	ld.w	r8,pc[514]
80003d36:	70 08       	ld.w	r8,r8[0x0]
80003d38:	58 18       	cp.w	r8,1
80003d3a:	c0 41       	brne	80003d42 <udd_interrupt+0x316>
80003d3c:	f0 1f 00 88 	mcall	80003f5c <udd_interrupt+0x530>
80003d40:	ce 68       	rjmp	80003f0c <udd_interrupt+0x4e0>
80003d42:	58 48       	cp.w	r8,4
80003d44:	e0 81 00 e4 	brne	80003f0c <udd_interrupt+0x4e0>
80003d48:	e8 69 00 00 	mov	r9,524288
80003d4c:	fe 68 01 f0 	mov	r8,-130576
80003d50:	91 09       	st.w	r8[0x0],r9
80003d52:	cd d8       	rjmp	80003f0c <udd_interrupt+0x4e0>
80003d54:	fe 68 00 00 	mov	r8,-131072
80003d58:	70 48       	ld.w	r8,r8[0x10]
80003d5a:	e6 18 02 00 	andh	r8,0x200,COH
80003d5e:	c3 00       	breq	80003dbe <udd_interrupt+0x392>
80003d60:	fe 68 00 00 	mov	r8,-131072
80003d64:	70 18       	ld.w	r8,r8[0x4]
80003d66:	e6 18 02 00 	andh	r8,0x200,COH
80003d6a:	c2 a0       	breq	80003dbe <udd_interrupt+0x392>
80003d6c:	30 09       	mov	r9,0
80003d6e:	ea 19 02 00 	orh	r9,0x200
80003d72:	fe 68 00 00 	mov	r8,-131072
80003d76:	91 59       	st.w	r8[0x14],r9
80003d78:	fe 68 03 10 	mov	r8,-130288
80003d7c:	70 39       	ld.w	r9,r8[0xc]
80003d7e:	4f 98       	lddpc	r8,80003f60 <udd_interrupt+0x534>
80003d80:	b1 89       	lsr	r9,0x10
80003d82:	70 2a       	ld.w	r10,r8[0x8]
80003d84:	12 1a       	sub	r10,r9
80003d86:	91 2a       	st.w	r8[0x8],r10
80003d88:	fe 68 01 04 	mov	r8,-130812
80003d8c:	70 08       	ld.w	r8,r8[0x0]
80003d8e:	e2 18 01 00 	andl	r8,0x100,COH
80003d92:	c0 71       	brne	80003da0 <udd_interrupt+0x374>
80003d94:	fe 68 01 04 	mov	r8,-130812
80003d98:	70 09       	ld.w	r9,r8[0x0]
80003d9a:	a9 d9       	cbr	r9,0x9
80003d9c:	91 09       	st.w	r8[0x0],r9
80003d9e:	c0 b8       	rjmp	80003db4 <udd_interrupt+0x388>
80003da0:	e0 69 20 00 	mov	r9,8192
80003da4:	fe 68 00 00 	mov	r8,-131072
80003da8:	91 69       	st.w	r8[0x18],r9
80003daa:	e0 69 10 00 	mov	r9,4096
80003dae:	fe 68 01 f4 	mov	r8,-130572
80003db2:	91 09       	st.w	r8[0x0],r9
80003db4:	30 0b       	mov	r11,0
80003db6:	4e bc       	lddpc	r12,80003f60 <udd_interrupt+0x534>
80003db8:	f0 1f 00 6b 	mcall	80003f64 <udd_interrupt+0x538>
80003dbc:	ca 88       	rjmp	80003f0c <udd_interrupt+0x4e0>
80003dbe:	fe 68 00 00 	mov	r8,-131072
80003dc2:	70 48       	ld.w	r8,r8[0x10]
80003dc4:	e2 18 20 00 	andl	r8,0x2000,COH
80003dc8:	e0 80 00 ac 	breq	80003f20 <udd_interrupt+0x4f4>
80003dcc:	fe 68 01 34 	mov	r8,-130764
80003dd0:	70 08       	ld.w	r8,r8[0x0]
80003dd2:	f1 d8 c1 82 	bfextu	r8,r8,0xc,0x2
80003dd6:	e0 81 00 a5 	brne	80003f20 <udd_interrupt+0x4f4>
80003dda:	e0 69 10 00 	mov	r9,4096
80003dde:	fe 68 02 24 	mov	r8,-130524
80003de2:	91 09       	st.w	r8[0x0],r9
80003de4:	e0 69 20 00 	mov	r9,8192
80003de8:	fe 68 00 00 	mov	r8,-131072
80003dec:	91 59       	st.w	r8[0x14],r9
80003dee:	4d d8       	lddpc	r8,80003f60 <udd_interrupt+0x534>
80003df0:	70 08       	ld.w	r8,r8[0x0]
80003df2:	58 08       	cp.w	r8,0
80003df4:	c0 65       	brlt	80003e00 <udd_interrupt+0x3d4>
80003df6:	fe 68 01 04 	mov	r8,-130812
80003dfa:	70 09       	ld.w	r9,r8[0x0]
80003dfc:	a9 d9       	cbr	r9,0x9
80003dfe:	91 09       	st.w	r8[0x0],r9
80003e00:	4d 88       	lddpc	r8,80003f60 <udd_interrupt+0x534>
80003e02:	70 09       	ld.w	r9,r8[0x0]
80003e04:	f3 d9 c3 c1 	bfextu	r9,r9,0x1e,0x1
80003e08:	30 08       	mov	r8,0
80003e0a:	f0 09 18 00 	cp.b	r9,r8
80003e0e:	c7 f0       	breq	80003f0c <udd_interrupt+0x4e0>
80003e10:	4d 48       	lddpc	r8,80003f60 <udd_interrupt+0x534>
80003e12:	70 09       	ld.w	r9,r8[0x0]
80003e14:	30 0a       	mov	r10,0
80003e16:	f3 da d3 c1 	bfins	r9,r10,0x1e,0x1
80003e1a:	91 09       	st.w	r8[0x0],r9
80003e1c:	fe 68 01 f4 	mov	r8,-130572
80003e20:	e8 69 00 00 	mov	r9,524288
80003e24:	91 09       	st.w	r8[0x0],r9
80003e26:	e4 69 00 00 	mov	r9,262144
80003e2a:	91 09       	st.w	r8[0x0],r9
80003e2c:	c7 08       	rjmp	80003f0c <udd_interrupt+0x4e0>
80003e2e:	30 89       	mov	r9,8
80003e30:	fe 68 00 00 	mov	r8,-131072
80003e34:	91 29       	st.w	r8[0x8],r9
80003e36:	30 1b       	mov	r11,1
80003e38:	4c ac       	lddpc	r12,80003f60 <udd_interrupt+0x534>
80003e3a:	f0 1f 00 4b 	mcall	80003f64 <udd_interrupt+0x538>
80003e3e:	f0 1f 00 4b 	mcall	80003f68 <udd_interrupt+0x53c>
80003e42:	f0 1f 00 4b 	mcall	80003f6c <udd_interrupt+0x540>
80003e46:	f0 1f 00 3e 	mcall	80003f3c <udd_interrupt+0x510>
80003e4a:	c6 18       	rjmp	80003f0c <udd_interrupt+0x4e0>
80003e4c:	fe 68 00 00 	mov	r8,-131072
80003e50:	70 48       	ld.w	r8,r8[0x10]
80003e52:	f1 d8 c0 01 	bfextu	r8,r8,0x0,0x1
80003e56:	c1 d0       	breq	80003e90 <udd_interrupt+0x464>
80003e58:	fe 68 00 00 	mov	r8,-131072
80003e5c:	70 18       	ld.w	r8,r8[0x4]
80003e5e:	f1 d8 c0 01 	bfextu	r8,r8,0x0,0x1
80003e62:	c1 70       	breq	80003e90 <udd_interrupt+0x464>
80003e64:	fe 68 00 00 	mov	r8,-131072
80003e68:	f0 f9 08 00 	ld.w	r9,r8[2048]
80003e6c:	af c9       	cbr	r9,0xe
80003e6e:	f1 49 08 00 	st.w	r8[2048],r9
80003e72:	30 19       	mov	r9,1
80003e74:	91 59       	st.w	r8[0x14],r9
80003e76:	31 09       	mov	r9,16
80003e78:	91 69       	st.w	r8[0x18],r9
80003e7a:	f0 f9 08 00 	ld.w	r9,r8[2048]
80003e7e:	af a9       	sbr	r9,0xe
80003e80:	f1 49 08 00 	st.w	r8[2048],r9
80003e84:	30 0c       	mov	r12,0
80003e86:	f0 1f 00 3b 	mcall	80003f70 <udd_interrupt+0x544>
80003e8a:	f0 1f 00 3b 	mcall	80003f74 <udd_interrupt+0x548>
80003e8e:	c3 f8       	rjmp	80003f0c <udd_interrupt+0x4e0>
80003e90:	fe 68 00 00 	mov	r8,-131072
80003e94:	70 48       	ld.w	r8,r8[0x10]
80003e96:	e2 18 00 10 	andl	r8,0x10,COH
80003e9a:	c2 30       	breq	80003ee0 <udd_interrupt+0x4b4>
80003e9c:	fe 68 00 00 	mov	r8,-131072
80003ea0:	70 18       	ld.w	r8,r8[0x4]
80003ea2:	e2 18 00 10 	andl	r8,0x10,COH
80003ea6:	c1 d0       	breq	80003ee0 <udd_interrupt+0x4b4>
80003ea8:	fe 68 00 00 	mov	r8,-131072
80003eac:	f0 f9 08 00 	ld.w	r9,r8[2048]
80003eb0:	af c9       	cbr	r9,0xe
80003eb2:	f1 49 08 00 	st.w	r8[2048],r9
80003eb6:	c0 58       	rjmp	80003ec0 <udd_interrupt+0x494>
80003eb8:	70 19       	ld.w	r9,r8[0x4]
80003eba:	f3 d9 c0 01 	bfextu	r9,r9,0x0,0x1
80003ebe:	c0 61       	brne	80003eca <udd_interrupt+0x49e>
80003ec0:	f0 f9 08 04 	ld.w	r9,r8[2052]
80003ec4:	e2 19 40 00 	andl	r9,0x4000,COH
80003ec8:	cf 80       	breq	80003eb8 <udd_interrupt+0x48c>
80003eca:	fe 68 00 00 	mov	r8,-131072
80003ece:	31 09       	mov	r9,16
80003ed0:	91 59       	st.w	r8[0x14],r9
80003ed2:	30 1c       	mov	r12,1
80003ed4:	91 6c       	st.w	r8[0x18],r12
80003ed6:	f0 1f 00 27 	mcall	80003f70 <udd_interrupt+0x544>
80003eda:	f0 1f 00 28 	mcall	80003f78 <udd_interrupt+0x54c>
80003ede:	c1 78       	rjmp	80003f0c <udd_interrupt+0x4e0>
80003ee0:	fe 68 00 00 	mov	r8,-131072
80003ee4:	f0 f8 08 04 	ld.w	r8,r8[2052]
80003ee8:	e2 18 00 02 	andl	r8,0x2,COH
80003eec:	c1 00       	breq	80003f0c <udd_interrupt+0x4e0>
80003eee:	fe 68 00 00 	mov	r8,-131072
80003ef2:	f0 f9 08 00 	ld.w	r9,r8[2048]
80003ef6:	af c9       	cbr	r9,0xe
80003ef8:	f1 49 08 00 	st.w	r8[2048],r9
80003efc:	30 29       	mov	r9,2
80003efe:	f1 49 08 08 	st.w	r8[2056],r9
80003f02:	f0 f9 08 00 	ld.w	r9,r8[2048]
80003f06:	af a9       	sbr	r9,0xe
80003f08:	f1 49 08 00 	st.w	r8[2048],r9
80003f0c:	fe 68 00 00 	mov	r8,-131072
80003f10:	f0 f8 08 18 	ld.w	r8,r8[2072]
80003f14:	d4 02       	popm	lr
80003f16:	d6 03       	rete
80003f18:	48 f9       	lddpc	r9,80003f54 <udd_interrupt+0x528>
80003f1a:	b2 08       	st.h	r9[0x0],r8
80003f1c:	fe 9f fe 92 	bral	80003c40 <udd_interrupt+0x214>
80003f20:	fe 68 00 00 	mov	r8,-131072
80003f24:	70 18       	ld.w	r8,r8[0x4]
80003f26:	e2 18 00 08 	andl	r8,0x8,COH
80003f2a:	c9 10       	breq	80003e4c <udd_interrupt+0x420>
80003f2c:	c8 1b       	rjmp	80003e2e <udd_interrupt+0x402>
80003f2e:	00 00       	add	r0,r0
80003f30:	80 00       	ld.sh	r0,r0[0x0]
80003f32:	7c 6c       	ld.w	r12,lr[0x18]
80003f34:	00 00       	add	r0,r0
80003f36:	01 c0       	ld.ub	r0,r0[0x4]
80003f38:	80 00       	ld.sh	r0,r0[0x0]
80003f3a:	33 78       	mov	r8,55
80003f3c:	80 00       	ld.sh	r0,r0[0x0]
80003f3e:	35 b4       	mov	r4,91
80003f40:	80 00       	ld.sh	r0,r0[0x0]
80003f42:	33 60       	mov	r0,54
80003f44:	00 00       	add	r0,r0
80003f46:	04 90       	mov	r0,r2
80003f48:	80 00       	ld.sh	r0,r0[0x0]
80003f4a:	73 d8       	ld.w	r8,r9[0x74]
80003f4c:	00 00       	add	r0,r0
80003f4e:	01 c4       	ld.ub	r4,r0[0x4]
80003f50:	00 00       	add	r0,r0
80003f52:	01 a8       	ld.ub	r8,r0[0x2]
80003f54:	00 00       	add	r0,r0
80003f56:	01 be       	ld.ub	lr,r0[0x3]
80003f58:	80 00       	ld.sh	r0,r0[0x0]
80003f5a:	36 14       	mov	r4,97
80003f5c:	80 00       	ld.sh	r0,r0[0x0]
80003f5e:	35 e8       	mov	r8,94
80003f60:	00 00       	add	r0,r0
80003f62:	01 ac       	ld.ub	r12,r0[0x2]
80003f64:	80 00       	ld.sh	r0,r0[0x0]
80003f66:	33 8c       	mov	r12,56
80003f68:	80 00       	ld.sh	r0,r0[0x0]
80003f6a:	73 68       	ld.w	r8,r9[0x58]
80003f6c:	80 00       	ld.sh	r0,r0[0x0]
80003f6e:	38 52       	mov	r2,-123
80003f70:	80 00       	ld.sh	r0,r0[0x0]
80003f72:	35 64       	mov	r4,86
80003f74:	80 00       	ld.sh	r0,r0[0x0]
80003f76:	78 c0       	ld.w	r0,r12[0x30]
80003f78:	80 00       	ld.sh	r0,r0[0x0]
80003f7a:	78 b4       	ld.w	r4,r12[0x2c]

80003f7c <fat_check_open>:
80003f7c:	48 68       	lddpc	r8,80003f94 <fat_check_open+0x18>
80003f7e:	11 89       	ld.ub	r9,r8[0x0]
80003f80:	30 08       	mov	r8,0
80003f82:	f0 09 18 00 	cp.b	r9,r8
80003f86:	c0 20       	breq	80003f8a <fat_check_open+0xe>
80003f88:	5e ff       	retal	1
80003f8a:	31 79       	mov	r9,23
80003f8c:	48 38       	lddpc	r8,80003f98 <fat_check_open+0x1c>
80003f8e:	b0 89       	st.b	r8[0x0],r9
80003f90:	5e fd       	retal	0
80003f92:	00 00       	add	r0,r0
80003f94:	00 00       	add	r0,r0
80003f96:	04 ac       	st.w	r2++,r12
80003f98:	00 00       	add	r0,r0
80003f9a:	07 3c       	ld.ub	r12,r3++

80003f9c <fat_check_select>:
80003f9c:	48 68       	lddpc	r8,80003fb4 <fat_check_select+0x18>
80003f9e:	90 19       	ld.sh	r9,r8[0x2]
80003fa0:	3f f8       	mov	r8,-1
80003fa2:	f0 09 19 00 	cp.h	r9,r8
80003fa6:	c0 20       	breq	80003faa <fat_check_select+0xe>
80003fa8:	5e ff       	retal	1
80003faa:	30 f9       	mov	r9,15
80003fac:	48 38       	lddpc	r8,80003fb8 <fat_check_select+0x1c>
80003fae:	b0 89       	st.b	r8[0x0],r9
80003fb0:	5e fd       	retal	0
80003fb2:	00 00       	add	r0,r0
80003fb4:	00 00       	add	r0,r0
80003fb6:	07 38       	ld.ub	r8,r3++
80003fb8:	00 00       	add	r0,r0
80003fba:	07 3c       	ld.ub	r12,r3++

80003fbc <fat_check_is_file>:
80003fbc:	48 58       	lddpc	r8,80003fd0 <fat_check_is_file+0x14>
80003fbe:	11 a8       	ld.ub	r8,r8[0x2]
80003fc0:	e2 18 00 18 	andl	r8,0x18,COH
80003fc4:	c0 21       	brne	80003fc8 <fat_check_is_file+0xc>
80003fc6:	5e ff       	retal	1
80003fc8:	31 39       	mov	r9,19
80003fca:	48 38       	lddpc	r8,80003fd4 <fat_check_is_file+0x18>
80003fcc:	b0 89       	st.b	r8[0x0],r9
80003fce:	5e fd       	retal	0
80003fd0:	00 00       	add	r0,r0
80003fd2:	04 ac       	st.w	r2++,r12
80003fd4:	00 00       	add	r0,r0
80003fd6:	07 3c       	ld.ub	r12,r3++

80003fd8 <fat_checkcluster>:
80003fd8:	49 68       	lddpc	r8,80004030 <fat_checkcluster+0x58>
80003fda:	70 18       	ld.w	r8,r8[0x4]
80003fdc:	58 08       	cp.w	r8,0
80003fde:	c0 21       	brne	80003fe2 <fat_checkcluster+0xa>
80003fe0:	5e ff       	retal	1
80003fe2:	49 59       	lddpc	r9,80004034 <fat_checkcluster+0x5c>
80003fe4:	13 89       	ld.ub	r9,r9[0x0]
80003fe6:	30 3a       	mov	r10,3
80003fe8:	f4 09 18 00 	cp.b	r9,r10
80003fec:	c0 a1       	brne	80004000 <fat_checkcluster+0x28>
80003fee:	e0 69 ff f7 	mov	r9,65527
80003ff2:	ea 19 0f ff 	orh	r9,0xfff
80003ff6:	12 38       	cp.w	r8,r9
80003ff8:	e0 8b 00 19 	brhi	8000402a <fat_checkcluster+0x52>
80003ffc:	5f 0c       	sreq	r12
80003ffe:	5e fc       	retal	r12
80004000:	30 2a       	mov	r10,2
80004002:	f4 09 18 00 	cp.b	r9,r10
80004006:	c0 71       	brne	80004014 <fat_checkcluster+0x3c>
80004008:	e0 48 ff f7 	cp.w	r8,65527
8000400c:	e0 8b 00 0f 	brhi	8000402a <fat_checkcluster+0x52>
80004010:	5f 0c       	sreq	r12
80004012:	5e fc       	retal	r12
80004014:	30 1a       	mov	r10,1
80004016:	f4 09 18 00 	cp.b	r9,r10
8000401a:	c0 20       	breq	8000401e <fat_checkcluster+0x46>
8000401c:	5e fd       	retal	0
8000401e:	e0 48 0f f7 	cp.w	r8,4087
80004022:	e0 8b 00 04 	brhi	8000402a <fat_checkcluster+0x52>
80004026:	5f 0c       	sreq	r12
80004028:	5e fc       	retal	r12
8000402a:	30 2c       	mov	r12,2
8000402c:	5e fc       	retal	r12
8000402e:	00 00       	add	r0,r0
80004030:	00 00       	add	r0,r0
80004032:	07 8c       	ld.ub	r12,r3[0x0]
80004034:	00 00       	add	r0,r0
80004036:	07 38       	ld.ub	r8,r3++

80004038 <fat_cache_clusterlist_reset>:
80004038:	30 0a       	mov	r10,0
8000403a:	48 88       	lddpc	r8,80004058 <fat_cache_clusterlist_reset+0x20>
8000403c:	b0 8a       	st.b	r8[0x0],r10
8000403e:	48 88       	lddpc	r8,8000405c <fat_cache_clusterlist_reset+0x24>
80004040:	30 19       	mov	r9,1
80004042:	b0 89       	st.b	r8[0x0],r9
80004044:	3f f9       	mov	r9,-1
80004046:	b0 a9       	st.b	r8[0x2],r9
80004048:	b0 99       	st.b	r8[0x1],r9
8000404a:	f1 6a 00 14 	st.b	r8[20],r10
8000404e:	f1 69 00 16 	st.b	r8[22],r9
80004052:	f1 69 00 15 	st.b	r8[21],r9
80004056:	5e fc       	retal	r12
80004058:	00 00       	add	r0,r0
8000405a:	07 3e       	ld.ub	lr,r3++
8000405c:	00 00       	add	r0,r0
8000405e:	04 c0       	st.b	r2++,r0

80004060 <fat_cache_clusterlist_update_start>:
80004060:	48 ea       	lddpc	r10,80004098 <fat_cache_clusterlist_update_start+0x38>
80004062:	15 88       	ld.ub	r8,r10[0x0]
80004064:	f8 08 18 00 	cp.b	r8,r12
80004068:	5f 18       	srne	r8
8000406a:	48 d9       	lddpc	r9,8000409c <fat_cache_clusterlist_update_start+0x3c>
8000406c:	b2 88       	st.b	r9[0x0],r8
8000406e:	f0 0b 15 02 	lsl	r11,r8,0x2
80004072:	f6 08 00 09 	add	r9,r11,r8
80004076:	f4 09 00 29 	add	r9,r10,r9<<0x2
8000407a:	b2 8c       	st.b	r9[0x0],r12
8000407c:	3f fc       	mov	r12,-1
8000407e:	b2 ac       	st.b	r9[0x2],r12
80004080:	f6 08 00 08 	add	r8,r11,r8
80004084:	2f f8       	sub	r8,-1
80004086:	48 7b       	lddpc	r11,800040a0 <fat_cache_clusterlist_update_start+0x40>
80004088:	76 0b       	ld.w	r11,r11[0x0]
8000408a:	f4 08 09 2b 	st.w	r10[r8<<0x2],r11
8000408e:	48 68       	lddpc	r8,800040a4 <fat_cache_clusterlist_update_start+0x44>
80004090:	70 18       	ld.w	r8,r8[0x4]
80004092:	93 28       	st.w	r9[0x8],r8
80004094:	5e fc       	retal	r12
80004096:	00 00       	add	r0,r0
80004098:	00 00       	add	r0,r0
8000409a:	04 c0       	st.b	r2++,r0
8000409c:	00 00       	add	r0,r0
8000409e:	07 3e       	ld.ub	lr,r3++
800040a0:	00 00       	add	r0,r0
800040a2:	07 8c       	ld.ub	r12,r3[0x0]
800040a4:	00 00       	add	r0,r0
800040a6:	07 94       	ld.ub	r4,r3[0x1]

800040a8 <fat_cache_clusterlist_update_select>:
800040a8:	49 88       	lddpc	r8,80004108 <fat_cache_clusterlist_update_select+0x60>
800040aa:	11 88       	ld.ub	r8,r8[0x0]
800040ac:	49 8a       	lddpc	r10,8000410c <fat_cache_clusterlist_update_select+0x64>
800040ae:	f0 08 00 2b 	add	r11,r8,r8<<0x2
800040b2:	f4 0b 00 2b 	add	r11,r10,r11<<0x2
800040b6:	17 89       	ld.ub	r9,r11[0x0]
800040b8:	17 9b       	ld.ub	r11,r11[0x1]
800040ba:	15 8a       	ld.ub	r10,r10[0x0]
800040bc:	f2 0a 18 00 	cp.b	r10,r9
800040c0:	c0 a1       	brne	800040d4 <fat_cache_clusterlist_update_select+0x2c>
800040c2:	49 3a       	lddpc	r10,8000410c <fat_cache_clusterlist_update_select+0x64>
800040c4:	15 9a       	ld.ub	r10,r10[0x1]
800040c6:	f4 0b 18 00 	cp.b	r11,r10
800040ca:	e0 88 00 05 	brls	800040d4 <fat_cache_clusterlist_update_select+0x2c>
800040ce:	2f fa       	sub	r10,-1
800040d0:	48 fc       	lddpc	r12,8000410c <fat_cache_clusterlist_update_select+0x64>
800040d2:	b8 9a       	st.b	r12[0x1],r10
800040d4:	48 ea       	lddpc	r10,8000410c <fat_cache_clusterlist_update_select+0x64>
800040d6:	f5 3a 00 14 	ld.ub	r10,r10[20]
800040da:	f2 0a 18 00 	cp.b	r10,r9
800040de:	c0 c1       	brne	800040f6 <fat_cache_clusterlist_update_select+0x4e>
800040e0:	48 b9       	lddpc	r9,8000410c <fat_cache_clusterlist_update_select+0x64>
800040e2:	f3 39 00 15 	ld.ub	r9,r9[21]
800040e6:	f2 0b 18 00 	cp.b	r11,r9
800040ea:	e0 88 00 06 	brls	800040f6 <fat_cache_clusterlist_update_select+0x4e>
800040ee:	2f f9       	sub	r9,-1
800040f0:	48 7a       	lddpc	r10,8000410c <fat_cache_clusterlist_update_select+0x64>
800040f2:	f5 69 00 15 	st.b	r10[21],r9
800040f6:	f0 08 00 28 	add	r8,r8,r8<<0x2
800040fa:	48 59       	lddpc	r9,8000410c <fat_cache_clusterlist_update_select+0x64>
800040fc:	f2 08 00 28 	add	r8,r9,r8<<0x2
80004100:	30 09       	mov	r9,0
80004102:	b0 99       	st.b	r8[0x1],r9
80004104:	5e fc       	retal	r12
80004106:	00 00       	add	r0,r0
80004108:	00 00       	add	r0,r0
8000410a:	07 3e       	ld.ub	lr,r3++
8000410c:	00 00       	add	r0,r0
8000410e:	04 c0       	st.b	r2++,r0

80004110 <fat_cache_clusterlist_update_finish>:
80004110:	eb cd 40 c0 	pushm	r6-r7,lr
80004114:	49 08       	lddpc	r8,80004154 <fat_cache_clusterlist_update_finish+0x44>
80004116:	11 88       	ld.ub	r8,r8[0x0]
80004118:	f0 08 00 28 	add	r8,r8,r8<<0x2
8000411c:	48 f9       	lddpc	r9,80004158 <fat_cache_clusterlist_update_finish+0x48>
8000411e:	f2 08 00 28 	add	r8,r9,r8<<0x2
80004122:	f0 ca ff f8 	sub	r10,r8,-8
80004126:	48 eb       	lddpc	r11,8000415c <fat_cache_clusterlist_update_finish+0x4c>
80004128:	17 97       	ld.ub	r7,r11[0x1]
8000412a:	74 09       	ld.w	r9,r10[0x0]
8000412c:	f2 07 0d 06 	divu	r6,r9,r7
80004130:	0e 99       	mov	r9,r7
80004132:	5c 59       	castu.b	r9
80004134:	17 8b       	ld.ub	r11,r11[0x0]
80004136:	b0 ab       	st.b	r8[0x2],r11
80004138:	74 0b       	ld.w	r11,r10[0x0]
8000413a:	12 1b       	sub	r11,r9
8000413c:	95 0b       	st.w	r10[0x0],r11
8000413e:	48 9a       	lddpc	r10,80004160 <fat_cache_clusterlist_update_finish+0x50>
80004140:	74 0b       	ld.w	r11,r10[0x0]
80004142:	12 1b       	sub	r11,r9
80004144:	91 3b       	st.w	r8[0xc],r11
80004146:	74 1a       	ld.w	r10,r10[0x4]
80004148:	14 09       	add	r9,r10
8000414a:	91 49       	st.w	r8[0x10],r9
8000414c:	f0 1f 00 06 	mcall	80004164 <fat_cache_clusterlist_update_finish+0x54>
80004150:	e3 cd 80 c0 	ldm	sp++,r6-r7,pc
80004154:	00 00       	add	r0,r0
80004156:	07 3e       	ld.ub	lr,r3++
80004158:	00 00       	add	r0,r0
8000415a:	04 c0       	st.b	r2++,r0
8000415c:	00 00       	add	r0,r0
8000415e:	06 ec       	st.h	--r3,r12
80004160:	00 00       	add	r0,r0
80004162:	07 94       	ld.ub	r4,r3[0x1]
80004164:	80 00       	ld.sh	r0,r0[0x0]
80004166:	40 a8       	lddsp	r8,sp[0x28]

80004168 <fat_cache_clusterlist_update_read>:
80004168:	eb cd 40 c0 	pushm	r6-r7,lr
8000416c:	4c 18       	lddpc	r8,80004270 <fat_cache_clusterlist_update_read+0x108>
8000416e:	11 89       	ld.ub	r9,r8[0x0]
80004170:	4c 18       	lddpc	r8,80004274 <fat_cache_clusterlist_update_read+0x10c>
80004172:	70 0a       	ld.w	r10,r8[0x0]
80004174:	4c 18       	lddpc	r8,80004278 <fat_cache_clusterlist_update_read+0x110>
80004176:	70 1b       	ld.w	r11,r8[0x4]
80004178:	4c 18       	lddpc	r8,8000427c <fat_cache_clusterlist_update_read+0x114>
8000417a:	11 88       	ld.ub	r8,r8[0x0]
8000417c:	f8 08 18 00 	cp.b	r8,r12
80004180:	c1 11       	brne	800041a2 <fat_cache_clusterlist_update_read+0x3a>
80004182:	4b f8       	lddpc	r8,8000427c <fat_cache_clusterlist_update_read+0x114>
80004184:	11 a8       	ld.ub	r8,r8[0x2]
80004186:	f2 08 18 00 	cp.b	r8,r9
8000418a:	c0 c1       	brne	800041a2 <fat_cache_clusterlist_update_read+0x3a>
8000418c:	4b c8       	lddpc	r8,8000427c <fat_cache_clusterlist_update_read+0x114>
8000418e:	70 18       	ld.w	r8,r8[0x4]
80004190:	14 38       	cp.w	r8,r10
80004192:	c0 81       	brne	800041a2 <fat_cache_clusterlist_update_read+0x3a>
80004194:	4b a8       	lddpc	r8,8000427c <fat_cache_clusterlist_update_read+0x114>
80004196:	70 28       	ld.w	r8,r8[0x8]
80004198:	10 3b       	cp.w	r11,r8
8000419a:	c0 43       	brcs	800041a2 <fat_cache_clusterlist_update_read+0x3a>
8000419c:	30 0a       	mov	r10,0
8000419e:	14 99       	mov	r9,r10
800041a0:	c1 88       	rjmp	800041d0 <fat_cache_clusterlist_update_read+0x68>
800041a2:	4b 78       	lddpc	r8,8000427c <fat_cache_clusterlist_update_read+0x114>
800041a4:	f1 38 00 14 	ld.ub	r8,r8[20]
800041a8:	f8 08 18 00 	cp.b	r8,r12
800041ac:	c5 e1       	brne	80004268 <fat_cache_clusterlist_update_read+0x100>
800041ae:	4b 48       	lddpc	r8,8000427c <fat_cache_clusterlist_update_read+0x114>
800041b0:	f1 38 00 16 	ld.ub	r8,r8[22]
800041b4:	f2 08 18 00 	cp.b	r8,r9
800041b8:	c5 81       	brne	80004268 <fat_cache_clusterlist_update_read+0x100>
800041ba:	4b 18       	lddpc	r8,8000427c <fat_cache_clusterlist_update_read+0x114>
800041bc:	70 68       	ld.w	r8,r8[0x18]
800041be:	14 38       	cp.w	r8,r10
800041c0:	c5 41       	brne	80004268 <fat_cache_clusterlist_update_read+0x100>
800041c2:	4a f8       	lddpc	r8,8000427c <fat_cache_clusterlist_update_read+0x114>
800041c4:	70 78       	ld.w	r8,r8[0x1c]
800041c6:	16 38       	cp.w	r8,r11
800041c8:	e0 8b 00 50 	brhi	80004268 <fat_cache_clusterlist_update_read+0x100>
800041cc:	30 1a       	mov	r10,1
800041ce:	14 99       	mov	r9,r10
800041d0:	f2 0e 15 02 	lsl	lr,r9,0x2
800041d4:	12 0e       	add	lr,r9
800041d6:	4a ac       	lddpc	r12,8000427c <fat_cache_clusterlist_update_read+0x114>
800041d8:	f8 0e 00 2c 	add	r12,r12,lr<<0x2
800041dc:	78 4c       	ld.w	r12,r12[0x10]
800041de:	f6 08 01 08 	sub	r8,r11,r8
800041e2:	10 3c       	cp.w	r12,r8
800041e4:	e0 88 00 16 	brls	80004210 <fat_cache_clusterlist_update_read+0xa8>
800041e8:	4a 4b       	lddpc	r11,80004278 <fat_cache_clusterlist_update_read+0x110>
800041ea:	f2 0e 15 02 	lsl	lr,r9,0x2
800041ee:	fc 09 00 09 	add	r9,lr,r9
800041f2:	4a 3e       	lddpc	lr,8000427c <fat_cache_clusterlist_update_read+0x114>
800041f4:	fc 09 00 29 	add	r9,lr,r9<<0x2
800041f8:	72 39       	ld.w	r9,r9[0xc]
800041fa:	f0 09 00 09 	add	r9,r8,r9
800041fe:	97 09       	st.w	r11[0x0],r9
80004200:	10 1c       	sub	r12,r8
80004202:	97 1c       	st.w	r11[0x4],r12
80004204:	49 f8       	lddpc	r8,80004280 <fat_cache_clusterlist_update_read+0x118>
80004206:	b0 8a       	st.b	r8[0x0],r10
80004208:	f0 1f 00 1f 	mcall	80004284 <fat_cache_clusterlist_update_read+0x11c>
8000420c:	e3 cf 90 c0 	ldm	sp++,r6-r7,pc,r12=1
80004210:	49 c8       	lddpc	r8,80004280 <fat_cache_clusterlist_update_read+0x118>
80004212:	b0 8a       	st.b	r8[0x0],r10
80004214:	f2 08 15 02 	lsl	r8,r9,0x2
80004218:	f0 09 00 09 	add	r9,r8,r9
8000421c:	49 88       	lddpc	r8,8000427c <fat_cache_clusterlist_update_read+0x114>
8000421e:	f0 09 00 28 	add	r8,r8,r9<<0x2
80004222:	3f f9       	mov	r9,-1
80004224:	b0 a9       	st.b	r8[0x2],r9
80004226:	70 4c       	ld.w	r12,r8[0x10]
80004228:	49 2a       	lddpc	r10,80004270 <fat_cache_clusterlist_update_read+0x108>
8000422a:	15 99       	ld.ub	r9,r10[0x1]
8000422c:	70 3e       	ld.w	lr,r8[0xc]
8000422e:	f8 0e 00 0e 	add	lr,r12,lr
80004232:	20 1e       	sub	lr,1
80004234:	74 57       	ld.w	r7,r10[0x14]
80004236:	fc 07 01 07 	sub	r7,lr,r7
8000423a:	74 4a       	ld.w	r10,r10[0x10]
8000423c:	14 17       	sub	r7,r10
8000423e:	ee 09 0d 06 	divu	r6,r7,r9
80004242:	0c 97       	mov	r7,r6
80004244:	2f e7       	sub	r7,-2
80004246:	48 ca       	lddpc	r10,80004274 <fat_cache_clusterlist_update_read+0x10c>
80004248:	95 07       	st.w	r10[0x0],r7
8000424a:	2f 88       	sub	r8,-8
8000424c:	70 0a       	ld.w	r10,r8[0x0]
8000424e:	14 0c       	add	r12,r10
80004250:	f8 c7 00 01 	sub	r7,r12,1
80004254:	ee 09 0d 06 	divu	r6,r7,r9
80004258:	ad 39       	mul	r9,r6
8000425a:	48 8a       	lddpc	r10,80004278 <fat_cache_clusterlist_update_read+0x110>
8000425c:	f6 09 01 09 	sub	r9,r11,r9
80004260:	95 19       	st.w	r10[0x4],r9
80004262:	91 0b       	st.w	r8[0x0],r11
80004264:	e3 cf 80 c0 	ldm	sp++,r6-r7,pc,r12=0
80004268:	f0 1f 00 08 	mcall	80004288 <fat_cache_clusterlist_update_read+0x120>
8000426c:	e3 cf 80 c0 	ldm	sp++,r6-r7,pc,r12=0
80004270:	00 00       	add	r0,r0
80004272:	06 ec       	st.h	--r3,r12
80004274:	00 00       	add	r0,r0
80004276:	07 8c       	ld.ub	r12,r3[0x0]
80004278:	00 00       	add	r0,r0
8000427a:	07 94       	ld.ub	r4,r3[0x1]
8000427c:	00 00       	add	r0,r0
8000427e:	04 c0       	st.b	r2++,r0
80004280:	00 00       	add	r0,r0
80004282:	07 3e       	ld.ub	lr,r3++
80004284:	80 00       	ld.sh	r0,r0[0x0]
80004286:	40 a8       	lddsp	r8,sp[0x28]
80004288:	80 00       	ld.sh	r0,r0[0x0]
8000428a:	40 60       	lddsp	r0,sp[0x18]

8000428c <fat_entry_is_dir>:
8000428c:	30 d9       	mov	r9,13
8000428e:	48 48       	lddpc	r8,8000429c <fat_entry_is_dir+0x10>
80004290:	b0 89       	st.b	r8[0x0],r9
80004292:	48 48       	lddpc	r8,800042a0 <fat_entry_is_dir+0x14>
80004294:	11 ac       	ld.ub	r12,r8[0x2]
80004296:	e2 1c 00 10 	andl	r12,0x10,COH
8000429a:	5e fc       	retal	r12
8000429c:	00 00       	add	r0,r0
8000429e:	07 3c       	ld.ub	r12,r3++
800042a0:	00 00       	add	r0,r0
800042a2:	04 ac       	st.w	r2++,r12

800042a4 <fat_clear_entry_info_and_ptr>:
800042a4:	3f f9       	mov	r9,-1
800042a6:	48 c8       	lddpc	r8,800042d4 <fat_clear_entry_info_and_ptr+0x30>
800042a8:	b0 19       	st.h	r8[0x2],r9
800042aa:	48 c8       	lddpc	r8,800042d8 <fat_clear_entry_info_and_ptr+0x34>
800042ac:	f1 59 00 24 	st.h	r8[36],r9
800042b0:	f1 39 00 2d 	ld.ub	r9,r8[45]
800042b4:	30 08       	mov	r8,0
800042b6:	f0 09 18 00 	cp.b	r9,r8
800042ba:	c0 51       	brne	800042c4 <fat_clear_entry_info_and_ptr+0x20>
800042bc:	10 99       	mov	r9,r8
800042be:	48 78       	lddpc	r8,800042d8 <fat_clear_entry_info_and_ptr+0x34>
800042c0:	f1 69 00 2c 	st.b	r8[44],r9
800042c4:	48 68       	lddpc	r8,800042dc <fat_clear_entry_info_and_ptr+0x38>
800042c6:	30 09       	mov	r9,0
800042c8:	b0 a9       	st.b	r8[0x2],r9
800042ca:	30 0a       	mov	r10,0
800042cc:	91 1a       	st.w	r8[0x4],r10
800042ce:	91 2a       	st.w	r8[0x8],r10
800042d0:	b0 89       	st.b	r8[0x0],r9
800042d2:	5e fc       	retal	r12
800042d4:	00 00       	add	r0,r0
800042d6:	07 38       	ld.ub	r8,r3++
800042d8:	00 00       	add	r0,r0
800042da:	06 ec       	st.h	--r3,r12
800042dc:	00 00       	add	r0,r0
800042de:	04 ac       	st.w	r2++,r12

800042e0 <fat_check_eof_name>:
800042e0:	30 08       	mov	r8,0
800042e2:	f0 0c 19 00 	cp.h	r12,r8
800042e6:	5f 0a       	sreq	r10
800042e8:	35 c9       	mov	r9,92
800042ea:	f2 0c 19 00 	cp.h	r12,r9
800042ee:	5f 09       	sreq	r9
800042f0:	f5 e9 10 09 	or	r9,r10,r9
800042f4:	f0 09 18 00 	cp.b	r9,r8
800042f8:	c0 20       	breq	800042fc <fat_check_eof_name+0x1c>
800042fa:	5e ff       	retal	1
800042fc:	32 f8       	mov	r8,47
800042fe:	f0 0c 19 00 	cp.h	r12,r8
80004302:	5f 0c       	sreq	r12
80004304:	5e fc       	retal	r12
80004306:	d7 03       	nop

80004308 <fat_get_ptr_entry>:
80004308:	48 48       	lddpc	r8,80004318 <fat_get_ptr_entry+0x10>
8000430a:	90 98       	ld.uh	r8,r8[0x2]
8000430c:	a5 78       	lsl	r8,0x5
8000430e:	f1 d8 c0 09 	bfextu	r8,r8,0x0,0x9
80004312:	48 3c       	lddpc	r12,8000431c <fat_get_ptr_entry+0x14>
80004314:	10 0c       	add	r12,r8
80004316:	5e fc       	retal	r12
80004318:	00 00       	add	r0,r0
8000431a:	07 38       	ld.ub	r8,r3++
8000431c:	00 00       	add	r0,r0
8000431e:	04 ec       	st.h	--r2,r12

80004320 <fat_entry_longname>:
80004320:	d4 31       	pushm	r0-r7,lr
80004322:	20 3d       	sub	sp,12
80004324:	18 97       	mov	r7,r12
80004326:	16 95       	mov	r5,r11
80004328:	14 96       	mov	r6,r10
8000432a:	50 09       	stdsp	sp[0x0],r9
8000432c:	f0 1f 00 65 	mcall	800044c0 <fat_entry_longname+0x1a0>
80004330:	19 88       	ld.ub	r8,r12[0x0]
80004332:	30 09       	mov	r9,0
80004334:	f2 08 18 00 	cp.b	r8,r9
80004338:	5f 0b       	sreq	r11
8000433a:	3e 5a       	mov	r10,-27
8000433c:	f4 08 18 00 	cp.b	r8,r10
80004340:	5f 0a       	sreq	r10
80004342:	f7 ea 10 0a 	or	r10,r11,r10
80004346:	f2 0a 18 00 	cp.b	r10,r9
8000434a:	c0 71       	brne	80004358 <fat_entry_longname+0x38>
8000434c:	f9 3a 00 0b 	ld.ub	r10,r12[11]
80004350:	30 f9       	mov	r9,15
80004352:	f2 0a 18 00 	cp.b	r10,r9
80004356:	c0 60       	breq	80004362 <fat_entry_longname+0x42>
80004358:	30 b9       	mov	r9,11
8000435a:	4d b8       	lddpc	r8,800044c4 <fat_entry_longname+0x1a4>
8000435c:	b0 89       	st.b	r8[0x0],r9
8000435e:	30 0c       	mov	r12,0
80004360:	ca 98       	rjmp	800044b2 <fat_entry_longname+0x192>
80004362:	4d a9       	lddpc	r9,800044c8 <fat_entry_longname+0x1a8>
80004364:	13 8a       	ld.ub	r10,r9[0x0]
80004366:	30 09       	mov	r9,0
80004368:	f2 0a 18 00 	cp.b	r10,r9
8000436c:	c0 90       	breq	8000437e <fat_entry_longname+0x5e>
8000436e:	e2 18 00 40 	andl	r8,0x40,COH
80004372:	c0 61       	brne	8000437e <fat_entry_longname+0x5e>
80004374:	31 09       	mov	r9,16
80004376:	4d 48       	lddpc	r8,800044c4 <fat_entry_longname+0x1a4>
80004378:	b0 89       	st.b	r8[0x0],r9
8000437a:	30 0c       	mov	r12,0
8000437c:	c9 b8       	rjmp	800044b2 <fat_entry_longname+0x192>
8000437e:	2f fc       	sub	r12,-1
80004380:	30 08       	mov	r8,0
80004382:	fa cb ff f6 	sub	r11,sp,-10
80004386:	30 11       	mov	r1,1
80004388:	30 09       	mov	r9,0
8000438a:	4d 02       	lddpc	r2,800044c8 <fat_entry_longname+0x1a8>
8000438c:	20 15       	sub	r5,1
8000438e:	50 15       	stdsp	sp[0x4],r5
80004390:	19 8a       	ld.ub	r10,r12[0x0]
80004392:	b6 9a       	st.b	r11[0x1],r10
80004394:	19 9a       	ld.ub	r10,r12[0x1]
80004396:	b6 8a       	st.b	r11[0x0],r10
80004398:	e2 06 18 00 	cp.b	r6,r1
8000439c:	c0 f1       	brne	800043ba <fat_entry_longname+0x9a>
8000439e:	05 8a       	ld.ub	r10,r2[0x0]
800043a0:	f2 0a 18 00 	cp.b	r10,r9
800043a4:	c4 01       	brne	80004424 <fat_entry_longname+0x104>
800043a6:	40 1e       	lddsp	lr,sp[0x4]
800043a8:	1c 38       	cp.w	r8,lr
800043aa:	c0 55       	brlt	800043b4 <fat_entry_longname+0x94>
800043ac:	30 08       	mov	r8,0
800043ae:	ae 88       	st.b	r7[0x0],r8
800043b0:	30 1c       	mov	r12,1
800043b2:	c8 08       	rjmp	800044b2 <fat_entry_longname+0x192>
800043b4:	9a 5a       	ld.sh	r10,sp[0xa]
800043b6:	ae 8a       	st.b	r7[0x0],r10
800043b8:	c3 68       	rjmp	80004424 <fat_entry_longname+0x104>
800043ba:	0f 8a       	ld.ub	r10,r7[0x0]
800043bc:	32 a5       	mov	r5,42
800043be:	ea 0a 19 00 	cp.h	r10,r5
800043c2:	c7 70       	breq	800044b0 <fat_entry_longname+0x190>
800043c4:	9a 5e       	ld.sh	lr,sp[0xa]
800043c6:	58 0e       	cp.w	lr,0
800043c8:	c0 e1       	brne	800043e4 <fat_entry_longname+0xc4>
800043ca:	35 c5       	mov	r5,92
800043cc:	ea 0a 19 00 	cp.h	r10,r5
800043d0:	5f 14       	srne	r4
800043d2:	32 f5       	mov	r5,47
800043d4:	ea 0a 19 00 	cp.h	r10,r5
800043d8:	5f 15       	srne	r5
800043da:	e9 e5 00 05 	and	r5,r4,r5
800043de:	f2 05 18 00 	cp.b	r5,r9
800043e2:	c2 60       	breq	8000442e <fat_entry_longname+0x10e>
800043e4:	e9 da c0 10 	bfextu	r4,r10,0x0,0x10
800043e8:	e7 de c0 10 	bfextu	r3,lr,0x0,0x10
800043ec:	40 05       	lddsp	r5,sp[0x0]
800043ee:	f2 05 18 00 	cp.b	r5,r9
800043f2:	5f 15       	srne	r5
800043f4:	e6 c0 ff e0 	sub	r0,r3,-32
800043f8:	00 34       	cp.w	r4,r0
800043fa:	5f 10       	srne	r0
800043fc:	eb e0 10 00 	or	r0,r5,r0
80004400:	f2 00 18 00 	cp.b	r0,r9
80004404:	c1 00       	breq	80004424 <fat_entry_longname+0x104>
80004406:	22 03       	sub	r3,32
80004408:	06 34       	cp.w	r4,r3
8000440a:	5f 14       	srne	r4
8000440c:	08 45       	or	r5,r4
8000440e:	f2 05 18 00 	cp.b	r5,r9
80004412:	c0 90       	breq	80004424 <fat_entry_longname+0x104>
80004414:	fc 0a 19 00 	cp.h	r10,lr
80004418:	c0 60       	breq	80004424 <fat_entry_longname+0x104>
8000441a:	31 69       	mov	r9,22
8000441c:	4a a8       	lddpc	r8,800044c4 <fat_entry_longname+0x1a4>
8000441e:	b0 89       	st.b	r8[0x0],r9
80004420:	30 0c       	mov	r12,0
80004422:	c4 88       	rjmp	800044b2 <fat_entry_longname+0x192>
80004424:	9a 5a       	ld.sh	r10,sp[0xa]
80004426:	30 0e       	mov	lr,0
80004428:	fc 0a 19 00 	cp.h	r10,lr
8000442c:	c0 b1       	brne	80004442 <fat_entry_longname+0x122>
8000442e:	4a 79       	lddpc	r9,800044c8 <fat_entry_longname+0x1a8>
80004430:	13 8a       	ld.ub	r10,r9[0x0]
80004432:	30 09       	mov	r9,0
80004434:	f2 0a 18 00 	cp.b	r10,r9
80004438:	c3 c0       	breq	800044b0 <fat_entry_longname+0x190>
8000443a:	2f f8       	sub	r8,-1
8000443c:	ae 08       	st.h	r7[0x0],r8
8000443e:	30 1c       	mov	r12,1
80004440:	c3 98       	rjmp	800044b2 <fat_entry_longname+0x192>
80004442:	30 4a       	mov	r10,4
80004444:	f4 08 18 00 	cp.b	r8,r10
80004448:	c0 31       	brne	8000444e <fat_entry_longname+0x12e>
8000444a:	2f dc       	sub	r12,-3
8000444c:	c2 78       	rjmp	8000449a <fat_entry_longname+0x17a>
8000444e:	30 aa       	mov	r10,10
80004450:	f4 08 18 00 	cp.b	r8,r10
80004454:	c0 31       	brne	8000445a <fat_entry_longname+0x13a>
80004456:	2f ec       	sub	r12,-2
80004458:	c2 18       	rjmp	8000449a <fat_entry_longname+0x17a>
8000445a:	30 ca       	mov	r10,12
8000445c:	f4 08 18 00 	cp.b	r8,r10
80004460:	c1 d1       	brne	8000449a <fat_entry_longname+0x17a>
80004462:	f9 38 ff e2 	ld.ub	r8,r12[-30]
80004466:	e2 18 00 40 	andl	r8,0x40,COH
8000446a:	c0 61       	brne	80004476 <fat_entry_longname+0x156>
8000446c:	31 09       	mov	r9,16
8000446e:	49 68       	lddpc	r8,800044c4 <fat_entry_longname+0x1a4>
80004470:	b0 89       	st.b	r8[0x0],r9
80004472:	30 0c       	mov	r12,0
80004474:	c1 f8       	rjmp	800044b2 <fat_entry_longname+0x192>
80004476:	30 18       	mov	r8,1
80004478:	f0 06 18 00 	cp.b	r6,r8
8000447c:	c0 b1       	brne	80004492 <fat_entry_longname+0x172>
8000447e:	49 38       	lddpc	r8,800044c8 <fat_entry_longname+0x1a8>
80004480:	11 89       	ld.ub	r9,r8[0x0]
80004482:	30 08       	mov	r8,0
80004484:	f0 09 18 00 	cp.b	r9,r8
80004488:	c1 70       	breq	800044b6 <fat_entry_longname+0x196>
8000448a:	30 e8       	mov	r8,14
8000448c:	ae 08       	st.h	r7[0x0],r8
8000448e:	30 1c       	mov	r12,1
80004490:	c1 18       	rjmp	800044b2 <fat_entry_longname+0x192>
80004492:	0f 9c       	ld.ub	r12,r7[0x1]
80004494:	f0 1f 00 0e 	mcall	800044cc <fat_entry_longname+0x1ac>
80004498:	c0 d8       	rjmp	800044b2 <fat_entry_longname+0x192>
8000449a:	05 8a       	ld.ub	r10,r2[0x0]
8000449c:	ee ce ff ff 	sub	lr,r7,-1
800044a0:	f2 0a 18 00 	cp.b	r10,r9
800044a4:	fc 07 17 00 	moveq	r7,lr
800044a8:	2f f8       	sub	r8,-1
800044aa:	5c 58       	castu.b	r8
800044ac:	2f ec       	sub	r12,-2
800044ae:	c7 1b       	rjmp	80004390 <fat_entry_longname+0x70>
800044b0:	30 1c       	mov	r12,1
800044b2:	2f dd       	sub	sp,-12
800044b4:	d8 32       	popm	r0-r7,pc
800044b6:	30 08       	mov	r8,0
800044b8:	ae 98       	st.b	r7[0x1],r8
800044ba:	30 1c       	mov	r12,1
800044bc:	cf bb       	rjmp	800044b2 <fat_entry_longname+0x192>
800044be:	00 00       	add	r0,r0
800044c0:	80 00       	ld.sh	r0,r0[0x0]
800044c2:	43 08       	lddsp	r8,sp[0xc0]
800044c4:	00 00       	add	r0,r0
800044c6:	07 3c       	ld.ub	r12,r3++
800044c8:	00 00       	add	r0,r0
800044ca:	07 3d       	ld.ub	sp,r3++
800044cc:	80 00       	ld.sh	r0,r0[0x0]
800044ce:	42 e0       	lddsp	r0,sp[0xb8]

800044d0 <fat_entry_shortname>:
800044d0:	d4 31       	pushm	r0-r7,lr
800044d2:	20 3d       	sub	sp,12
800044d4:	18 97       	mov	r7,r12
800044d6:	50 2b       	stdsp	sp[0x8],r11
800044d8:	14 96       	mov	r6,r10
800044da:	31 69       	mov	r9,22
800044dc:	4c 08       	lddpc	r8,800045dc <fat_entry_shortname+0x10c>
800044de:	b0 89       	st.b	r8[0x0],r9
800044e0:	f0 1f 00 40 	mcall	800045e0 <fat_entry_shortname+0x110>
800044e4:	30 08       	mov	r8,0
800044e6:	10 9e       	mov	lr,r8
800044e8:	30 12       	mov	r2,1
800044ea:	30 b3       	mov	r3,11
800044ec:	30 85       	mov	r5,8
800044ee:	30 0a       	mov	r10,0
800044f0:	30 14       	mov	r4,1
800044f2:	e6 08 18 00 	cp.b	r8,r3
800044f6:	c2 00       	breq	80004536 <fat_entry_shortname+0x66>
800044f8:	f8 08 07 09 	ld.ub	r9,r12[r8]
800044fc:	ea 08 18 00 	cp.b	r8,r5
80004500:	5f 00       	sreq	r0
80004502:	f4 02 18 00 	cp.b	r2,r10
80004506:	5f 1b       	srne	r11
80004508:	e1 eb 00 0b 	and	r11,r0,r11
8000450c:	f4 0b 18 00 	cp.b	r11,r10
80004510:	c0 51       	brne	8000451a <fat_entry_shortname+0x4a>
80004512:	32 0b       	mov	r11,32
80004514:	f6 09 18 00 	cp.b	r9,r11
80004518:	c1 01       	brne	80004538 <fat_entry_shortname+0x68>
8000451a:	ea 08 18 00 	cp.b	r8,r5
8000451e:	e0 8b 00 0c 	brhi	80004536 <fat_entry_shortname+0x66>
80004522:	f9 39 00 08 	ld.ub	r9,r12[8]
80004526:	32 01       	mov	r1,32
80004528:	e2 09 18 00 	cp.b	r9,r1
8000452c:	c0 50       	breq	80004536 <fat_entry_shortname+0x66>
8000452e:	30 78       	mov	r8,7
80004530:	32 e9       	mov	r9,46
80004532:	30 02       	mov	r2,0
80004534:	c0 28       	rjmp	80004538 <fat_entry_shortname+0x68>
80004536:	30 09       	mov	r9,0
80004538:	e8 06 18 00 	cp.b	r6,r4
8000453c:	c1 71       	brne	8000456a <fat_entry_shortname+0x9a>
8000453e:	4a ab       	lddpc	r11,800045e4 <fat_entry_shortname+0x114>
80004540:	17 8b       	ld.ub	r11,r11[0x0]
80004542:	f4 0b 18 00 	cp.b	r11,r10
80004546:	c2 e1       	brne	800045a2 <fat_entry_shortname+0xd2>
80004548:	40 2b       	lddsp	r11,sp[0x8]
8000454a:	20 1b       	sub	r11,1
8000454c:	16 3e       	cp.w	lr,r11
8000454e:	c0 35       	brlt	80004554 <fat_entry_shortname+0x84>
80004550:	30 09       	mov	r9,0
80004552:	c0 a8       	rjmp	80004566 <fat_entry_shortname+0x96>
80004554:	f2 c0 00 41 	sub	r0,r9,65
80004558:	31 9b       	mov	r11,25
8000455a:	f6 00 18 00 	cp.b	r0,r11
8000455e:	e0 8b 00 04 	brhi	80004566 <fat_entry_shortname+0x96>
80004562:	2e 09       	sub	r9,-32
80004564:	5c 59       	castu.b	r9
80004566:	ae 89       	st.b	r7[0x0],r9
80004568:	c1 d8       	rjmp	800045a2 <fat_entry_shortname+0xd2>
8000456a:	0f 8b       	ld.ub	r11,r7[0x0]
8000456c:	32 a0       	mov	r0,42
8000456e:	e0 0b 18 00 	cp.b	r11,r0
80004572:	c3 10       	breq	800045d4 <fat_entry_shortname+0x104>
80004574:	58 09       	cp.w	r9,0
80004576:	c0 d1       	brne	80004590 <fat_entry_shortname+0xc0>
80004578:	35 c0       	mov	r0,92
8000457a:	e0 0b 18 00 	cp.b	r11,r0
8000457e:	5f 11       	srne	r1
80004580:	32 f0       	mov	r0,47
80004582:	e0 0b 18 00 	cp.b	r11,r0
80004586:	5f 10       	srne	r0
80004588:	00 61       	and	r1,r0
8000458a:	f4 01 18 00 	cp.b	r1,r10
8000458e:	c0 c0       	breq	800045a6 <fat_entry_shortname+0xd6>
80004590:	f2 0b 18 00 	cp.b	r11,r9
80004594:	c0 70       	breq	800045a2 <fat_entry_shortname+0xd2>
80004596:	f2 c0 ff e0 	sub	r0,r9,-32
8000459a:	00 3b       	cp.w	r11,r0
8000459c:	c0 30       	breq	800045a2 <fat_entry_shortname+0xd2>
8000459e:	30 0c       	mov	r12,0
800045a0:	c1 b8       	rjmp	800045d6 <fat_entry_shortname+0x106>
800045a2:	58 09       	cp.w	r9,0
800045a4:	c0 b1       	brne	800045ba <fat_entry_shortname+0xea>
800045a6:	49 08       	lddpc	r8,800045e4 <fat_entry_shortname+0x114>
800045a8:	11 89       	ld.ub	r9,r8[0x0]
800045aa:	30 08       	mov	r8,0
800045ac:	f0 09 18 00 	cp.b	r9,r8
800045b0:	c1 20       	breq	800045d4 <fat_entry_shortname+0x104>
800045b2:	2f fe       	sub	lr,-1
800045b4:	ae 0e       	st.h	r7[0x0],lr
800045b6:	30 1c       	mov	r12,1
800045b8:	c0 f8       	rjmp	800045d6 <fat_entry_shortname+0x106>
800045ba:	48 b9       	lddpc	r9,800045e4 <fat_entry_shortname+0x114>
800045bc:	13 89       	ld.ub	r9,r9[0x0]
800045be:	ee cb ff ff 	sub	r11,r7,-1
800045c2:	f4 09 18 00 	cp.b	r9,r10
800045c6:	f6 07 17 00 	moveq	r7,r11
800045ca:	2f fe       	sub	lr,-1
800045cc:	5c 5e       	castu.b	lr
800045ce:	2f f8       	sub	r8,-1
800045d0:	5c 58       	castu.b	r8
800045d2:	c9 0b       	rjmp	800044f2 <fat_entry_shortname+0x22>
800045d4:	30 1c       	mov	r12,1
800045d6:	2f dd       	sub	sp,-12
800045d8:	d8 32       	popm	r0-r7,pc
800045da:	00 00       	add	r0,r0
800045dc:	00 00       	add	r0,r0
800045de:	07 3c       	ld.ub	r12,r3++
800045e0:	80 00       	ld.sh	r0,r0[0x0]
800045e2:	43 08       	lddsp	r8,sp[0xc0]
800045e4:	00 00       	add	r0,r0
800045e6:	07 3d       	ld.ub	sp,r3++

800045e8 <fat_get_entry_info>:
800045e8:	d4 01       	pushm	lr
800045ea:	f0 1f 00 10 	mcall	80004628 <fat_get_entry_info+0x40>
800045ee:	49 08       	lddpc	r8,8000462c <fat_get_entry_info+0x44>
800045f0:	f9 39 00 0b 	ld.ub	r9,r12[11]
800045f4:	b0 a9       	st.b	r8[0x2],r9
800045f6:	f8 ca ff ec 	sub	r10,r12,-20
800045fa:	f0 c9 ff fc 	sub	r9,r8,-4
800045fe:	15 8b       	ld.ub	r11,r10[0x0]
80004600:	b2 9b       	st.b	r9[0x1],r11
80004602:	15 9a       	ld.ub	r10,r10[0x1]
80004604:	b2 8a       	st.b	r9[0x0],r10
80004606:	f8 ca ff e6 	sub	r10,r12,-26
8000460a:	15 8b       	ld.ub	r11,r10[0x0]
8000460c:	b2 bb       	st.b	r9[0x3],r11
8000460e:	15 9a       	ld.ub	r10,r10[0x1]
80004610:	b2 aa       	st.b	r9[0x2],r10
80004612:	2e 4c       	sub	r12,-28
80004614:	2f 88       	sub	r8,-8
80004616:	19 89       	ld.ub	r9,r12[0x0]
80004618:	b0 b9       	st.b	r8[0x3],r9
8000461a:	19 99       	ld.ub	r9,r12[0x1]
8000461c:	b0 a9       	st.b	r8[0x2],r9
8000461e:	19 a9       	ld.ub	r9,r12[0x2]
80004620:	b0 99       	st.b	r8[0x1],r9
80004622:	19 b9       	ld.ub	r9,r12[0x3]
80004624:	b0 89       	st.b	r8[0x0],r9
80004626:	d8 02       	popm	pc
80004628:	80 00       	ld.sh	r0,r0[0x0]
8000462a:	43 08       	lddsp	r8,sp[0xc0]
8000462c:	00 00       	add	r0,r0
8000462e:	04 ac       	st.w	r2++,r12

80004630 <fat_entry_check>:
80004630:	eb cd 40 80 	pushm	r7,lr
80004634:	18 97       	mov	r7,r12
80004636:	f0 1f 00 17 	mcall	80004690 <fat_entry_check+0x60>
8000463a:	19 88       	ld.ub	r8,r12[0x0]
8000463c:	58 08       	cp.w	r8,0
8000463e:	c0 61       	brne	8000464a <fat_entry_check+0x1a>
80004640:	30 a9       	mov	r9,10
80004642:	49 58       	lddpc	r8,80004694 <fat_entry_check+0x64>
80004644:	b0 89       	st.b	r8[0x0],r9
80004646:	e3 cf 80 80 	ldm	sp++,r7,pc,r12=0
8000464a:	30 ba       	mov	r10,11
8000464c:	49 29       	lddpc	r9,80004694 <fat_entry_check+0x64>
8000464e:	b2 8a       	st.b	r9[0x0],r10
80004650:	3e 59       	mov	r9,-27
80004652:	f2 08 18 00 	cp.b	r8,r9
80004656:	c1 a0       	breq	8000468a <fat_entry_check+0x5a>
80004658:	32 e9       	mov	r9,46
8000465a:	f2 08 18 00 	cp.b	r8,r9
8000465e:	c1 60       	breq	8000468a <fat_entry_check+0x5a>
80004660:	f9 38 00 0b 	ld.ub	r8,r12[11]
80004664:	10 99       	mov	r9,r8
80004666:	e2 19 00 08 	andl	r9,0x8,COH
8000466a:	c1 01       	brne	8000468a <fat_entry_check+0x5a>
8000466c:	e2 18 00 10 	andl	r8,0x10,COH
80004670:	c0 70       	breq	8000467e <fat_entry_check+0x4e>
80004672:	30 08       	mov	r8,0
80004674:	f0 07 18 00 	cp.b	r7,r8
80004678:	5f 0c       	sreq	r12
8000467a:	e3 cd 80 80 	ldm	sp++,r7,pc
8000467e:	30 18       	mov	r8,1
80004680:	f0 07 18 00 	cp.b	r7,r8
80004684:	5f 0c       	sreq	r12
80004686:	e3 cd 80 80 	ldm	sp++,r7,pc
8000468a:	e3 cf 80 80 	ldm	sp++,r7,pc,r12=0
8000468e:	00 00       	add	r0,r0
80004690:	80 00       	ld.sh	r0,r0[0x0]
80004692:	43 08       	lddsp	r8,sp[0xc0]
80004694:	00 00       	add	r0,r0
80004696:	07 3c       	ld.ub	r12,r3++

80004698 <fat_cache_reset>:
80004698:	48 58       	lddpc	r8,800046ac <fat_cache_reset+0x14>
8000469a:	3f f9       	mov	r9,-1
8000469c:	b0 89       	st.b	r8[0x0],r9
8000469e:	30 09       	mov	r9,0
800046a0:	f1 69 00 08 	st.b	r8[8],r9
800046a4:	3f f9       	mov	r9,-1
800046a6:	91 39       	st.w	r8[0xc],r9
800046a8:	5e fc       	retal	r12
800046aa:	00 00       	add	r0,r0
800046ac:	00 00       	add	r0,r0
800046ae:	07 74       	ld.ub	r4,--r3

800046b0 <fat_cache_mark_sector_as_dirty>:
800046b0:	30 19       	mov	r9,1
800046b2:	48 38       	lddpc	r8,800046bc <fat_cache_mark_sector_as_dirty+0xc>
800046b4:	f1 69 00 08 	st.b	r8[8],r9
800046b8:	5e fc       	retal	r12
800046ba:	00 00       	add	r0,r0
800046bc:	00 00       	add	r0,r0
800046be:	07 74       	ld.ub	r4,--r3

800046c0 <fat_write_entry_file>:
800046c0:	d4 01       	pushm	lr
800046c2:	f0 1f 00 11 	mcall	80004704 <fat_write_entry_file+0x44>
800046c6:	f0 1f 00 11 	mcall	80004708 <fat_write_entry_file+0x48>
800046ca:	49 18       	lddpc	r8,8000470c <fat_write_entry_file+0x4c>
800046cc:	11 a9       	ld.ub	r9,r8[0x2]
800046ce:	f9 69 00 0b 	st.b	r12[11],r9
800046d2:	f8 ca ff ec 	sub	r10,r12,-20
800046d6:	f0 c9 ff fc 	sub	r9,r8,-4
800046da:	13 9b       	ld.ub	r11,r9[0x1]
800046dc:	b4 8b       	st.b	r10[0x0],r11
800046de:	13 8b       	ld.ub	r11,r9[0x0]
800046e0:	b4 9b       	st.b	r10[0x1],r11
800046e2:	f8 ca ff e6 	sub	r10,r12,-26
800046e6:	13 bb       	ld.ub	r11,r9[0x3]
800046e8:	b4 8b       	st.b	r10[0x0],r11
800046ea:	13 a9       	ld.ub	r9,r9[0x2]
800046ec:	b4 99       	st.b	r10[0x1],r9
800046ee:	2e 4c       	sub	r12,-28
800046f0:	2f 88       	sub	r8,-8
800046f2:	11 b9       	ld.ub	r9,r8[0x3]
800046f4:	b8 89       	st.b	r12[0x0],r9
800046f6:	11 a9       	ld.ub	r9,r8[0x2]
800046f8:	b8 99       	st.b	r12[0x1],r9
800046fa:	11 99       	ld.ub	r9,r8[0x1]
800046fc:	b8 a9       	st.b	r12[0x2],r9
800046fe:	11 88       	ld.ub	r8,r8[0x0]
80004700:	b8 b8       	st.b	r12[0x3],r8
80004702:	d8 02       	popm	pc
80004704:	80 00       	ld.sh	r0,r0[0x0]
80004706:	46 b0       	lddsp	r0,sp[0x1ac]
80004708:	80 00       	ld.sh	r0,r0[0x0]
8000470a:	43 08       	lddsp	r8,sp[0xc0]
8000470c:	00 00       	add	r0,r0
8000470e:	04 ac       	st.w	r2++,r12

80004710 <fat_check_nav_access_file>:
80004710:	49 88       	lddpc	r8,80004770 <fat_check_nav_access_file+0x60>
80004712:	11 89       	ld.ub	r9,r8[0x0]
80004714:	30 08       	mov	r8,0
80004716:	f0 09 18 00 	cp.b	r9,r8
8000471a:	c2 a0       	breq	8000476e <fat_check_nav_access_file+0x5e>
8000471c:	49 68       	lddpc	r8,80004774 <fat_check_nav_access_file+0x64>
8000471e:	11 89       	ld.ub	r9,r8[0x0]
80004720:	49 68       	lddpc	r8,80004778 <fat_check_nav_access_file+0x68>
80004722:	11 88       	ld.ub	r8,r8[0x0]
80004724:	f0 09 18 00 	cp.b	r9,r8
80004728:	c2 31       	brne	8000476e <fat_check_nav_access_file+0x5e>
8000472a:	49 38       	lddpc	r8,80004774 <fat_check_nav_access_file+0x64>
8000472c:	70 89       	ld.w	r9,r8[0x20]
8000472e:	49 38       	lddpc	r8,80004778 <fat_check_nav_access_file+0x68>
80004730:	70 88       	ld.w	r8,r8[0x20]
80004732:	10 39       	cp.w	r9,r8
80004734:	c1 d1       	brne	8000476e <fat_check_nav_access_file+0x5e>
80004736:	49 28       	lddpc	r8,8000477c <fat_check_nav_access_file+0x6c>
80004738:	90 19       	ld.sh	r9,r8[0x2]
8000473a:	48 e8       	lddpc	r8,80004770 <fat_check_nav_access_file+0x60>
8000473c:	90 18       	ld.sh	r8,r8[0x2]
8000473e:	f0 09 19 00 	cp.h	r9,r8
80004742:	c1 61       	brne	8000476e <fat_check_nav_access_file+0x5e>
80004744:	58 0c       	cp.w	r12,0
80004746:	c0 b0       	breq	8000475c <fat_check_nav_access_file+0x4c>
80004748:	48 e8       	lddpc	r8,80004780 <fat_check_nav_access_file+0x70>
8000474a:	11 89       	ld.ub	r9,r8[0x0]
8000474c:	30 08       	mov	r8,0
8000474e:	f0 09 18 00 	cp.b	r9,r8
80004752:	c0 e0       	breq	8000476e <fat_check_nav_access_file+0x5e>
80004754:	32 89       	mov	r9,40
80004756:	48 c8       	lddpc	r8,80004784 <fat_check_nav_access_file+0x74>
80004758:	b0 89       	st.b	r8[0x0],r9
8000475a:	5e fd       	retal	0
8000475c:	48 98       	lddpc	r8,80004780 <fat_check_nav_access_file+0x70>
8000475e:	11 88       	ld.ub	r8,r8[0x0]
80004760:	e2 18 00 02 	andl	r8,0x2,COH
80004764:	c0 50       	breq	8000476e <fat_check_nav_access_file+0x5e>
80004766:	32 99       	mov	r9,41
80004768:	48 78       	lddpc	r8,80004784 <fat_check_nav_access_file+0x74>
8000476a:	b0 89       	st.b	r8[0x0],r9
8000476c:	5e fd       	retal	0
8000476e:	5e ff       	retal	1
80004770:	00 00       	add	r0,r0
80004772:	07 34       	ld.ub	r4,r3++
80004774:	00 00       	add	r0,r0
80004776:	06 ec       	st.h	--r3,r12
80004778:	00 00       	add	r0,r0
8000477a:	07 40       	ld.w	r0,--r3
8000477c:	00 00       	add	r0,r0
8000477e:	07 38       	ld.ub	r8,r3++
80004780:	00 00       	add	r0,r0
80004782:	07 24       	ld.uh	r4,r3++
80004784:	00 00       	add	r0,r0
80004786:	07 3c       	ld.ub	r12,r3++

80004788 <fat_invert_nav>:
80004788:	d4 21       	pushm	r4-r7,lr
8000478a:	20 dd       	sub	sp,52
8000478c:	58 0c       	cp.w	r12,0
8000478e:	c5 a0       	breq	80004842 <fat_invert_nav+0xba>
80004790:	1a 97       	mov	r7,sp
80004792:	4a e8       	lddpc	r8,80004848 <fat_invert_nav+0xc0>
80004794:	f0 ea 00 00 	ld.d	r10,r8[0]
80004798:	fa eb 00 00 	st.d	sp[0],r10
8000479c:	f0 ea 00 08 	ld.d	r10,r8[8]
800047a0:	fa eb 00 08 	st.d	sp[8],r10
800047a4:	f0 ea 00 10 	ld.d	r10,r8[16]
800047a8:	fa eb 00 10 	st.d	sp[16],r10
800047ac:	f0 ea 00 18 	ld.d	r10,r8[24]
800047b0:	fa eb 00 18 	st.d	sp[24],r10
800047b4:	f0 ea 00 20 	ld.d	r10,r8[32]
800047b8:	fa eb 00 20 	st.d	sp[32],r10
800047bc:	f0 ea 00 28 	ld.d	r10,r8[40]
800047c0:	fa eb 00 28 	st.d	sp[40],r10
800047c4:	70 c9       	ld.w	r9,r8[0x30]
800047c6:	50 c9       	stdsp	sp[0x30],r9
800047c8:	f8 c6 00 01 	sub	r6,r12,1
800047cc:	5c 56       	castu.b	r6
800047ce:	ec 04 10 34 	mul	r4,r6,52
800047d2:	49 f9       	lddpc	r9,8000484c <fat_invert_nav+0xc4>
800047d4:	12 04       	add	r4,r9
800047d6:	33 45       	mov	r5,52
800047d8:	0a 9a       	mov	r10,r5
800047da:	08 9b       	mov	r11,r4
800047dc:	10 9c       	mov	r12,r8
800047de:	f0 1f 00 1d 	mcall	80004850 <fat_invert_nav+0xc8>
800047e2:	0a 9a       	mov	r10,r5
800047e4:	1a 9b       	mov	r11,sp
800047e6:	08 9c       	mov	r12,r4
800047e8:	f0 1f 00 1a 	mcall	80004850 <fat_invert_nav+0xc8>
800047ec:	49 ac       	lddpc	r12,80004854 <fat_invert_nav+0xcc>
800047ee:	f8 e8 00 00 	ld.d	r8,r12[0]
800047f2:	fa e9 00 00 	st.d	sp[0],r8
800047f6:	f8 e8 00 08 	ld.d	r8,r12[8]
800047fa:	fa e9 00 08 	st.d	sp[8],r8
800047fe:	ec 04 15 04 	lsl	r4,r6,0x4
80004802:	49 68       	lddpc	r8,80004858 <fat_invert_nav+0xd0>
80004804:	10 04       	add	r4,r8
80004806:	31 05       	mov	r5,16
80004808:	0a 9a       	mov	r10,r5
8000480a:	08 9b       	mov	r11,r4
8000480c:	f0 1f 00 11 	mcall	80004850 <fat_invert_nav+0xc8>
80004810:	0a 9a       	mov	r10,r5
80004812:	1a 9b       	mov	r11,sp
80004814:	08 9c       	mov	r12,r4
80004816:	f0 1f 00 0f 	mcall	80004850 <fat_invert_nav+0xc8>
8000481a:	49 14       	lddpc	r4,8000485c <fat_invert_nav+0xd4>
8000481c:	30 45       	mov	r5,4
8000481e:	0a 9a       	mov	r10,r5
80004820:	08 9b       	mov	r11,r4
80004822:	1a 9c       	mov	r12,sp
80004824:	f0 1f 00 0b 	mcall	80004850 <fat_invert_nav+0xc8>
80004828:	48 e8       	lddpc	r8,80004860 <fat_invert_nav+0xd8>
8000482a:	f0 06 00 26 	add	r6,r8,r6<<0x2
8000482e:	0a 9a       	mov	r10,r5
80004830:	0c 9b       	mov	r11,r6
80004832:	08 9c       	mov	r12,r4
80004834:	f0 1f 00 07 	mcall	80004850 <fat_invert_nav+0xc8>
80004838:	0a 9a       	mov	r10,r5
8000483a:	1a 9b       	mov	r11,sp
8000483c:	0c 9c       	mov	r12,r6
8000483e:	f0 1f 00 05 	mcall	80004850 <fat_invert_nav+0xc8>
80004842:	2f 3d       	sub	sp,-52
80004844:	d8 22       	popm	r4-r7,pc
80004846:	00 00       	add	r0,r0
80004848:	00 00       	add	r0,r0
8000484a:	06 ec       	st.h	--r3,r12
8000484c:	00 00       	add	r0,r0
8000484e:	07 40       	ld.w	r0,--r3
80004850:	80 00       	ld.sh	r0,r0[0x0]
80004852:	7c aa       	ld.w	r10,lr[0x28]
80004854:	00 00       	add	r0,r0
80004856:	04 ac       	st.w	r2++,r12
80004858:	00 00       	add	r0,r0
8000485a:	07 24       	ld.uh	r4,r3++
8000485c:	00 00       	add	r0,r0
8000485e:	07 38       	ld.ub	r8,r3++
80004860:	00 00       	add	r0,r0
80004862:	07 34       	ld.ub	r4,r3++

80004864 <fat_cache_flush>:
80004864:	d4 01       	pushm	lr
80004866:	49 08       	lddpc	r8,800048a4 <fat_cache_flush+0x40>
80004868:	f1 39 00 08 	ld.ub	r9,r8[8]
8000486c:	30 18       	mov	r8,1
8000486e:	f0 09 18 00 	cp.b	r9,r8
80004872:	c1 81       	brne	800048a2 <fat_cache_flush+0x3e>
80004874:	48 c8       	lddpc	r8,800048a4 <fat_cache_flush+0x40>
80004876:	30 09       	mov	r9,0
80004878:	f1 69 00 08 	st.b	r8[8],r9
8000487c:	11 8c       	ld.ub	r12,r8[0x0]
8000487e:	f0 1f 00 0b 	mcall	800048a8 <fat_cache_flush+0x44>
80004882:	c0 50       	breq	8000488c <fat_cache_flush+0x28>
80004884:	31 49       	mov	r9,20
80004886:	48 a8       	lddpc	r8,800048ac <fat_cache_flush+0x48>
80004888:	b0 89       	st.b	r8[0x0],r9
8000488a:	d8 0a       	popm	pc,r12=0
8000488c:	48 68       	lddpc	r8,800048a4 <fat_cache_flush+0x40>
8000488e:	48 9a       	lddpc	r10,800048b0 <fat_cache_flush+0x4c>
80004890:	70 1b       	ld.w	r11,r8[0x4]
80004892:	11 8c       	ld.ub	r12,r8[0x0]
80004894:	f0 1f 00 08 	mcall	800048b4 <fat_cache_flush+0x50>
80004898:	c0 50       	breq	800048a2 <fat_cache_flush+0x3e>
8000489a:	30 19       	mov	r9,1
8000489c:	48 48       	lddpc	r8,800048ac <fat_cache_flush+0x48>
8000489e:	b0 89       	st.b	r8[0x0],r9
800048a0:	d8 0a       	popm	pc,r12=0
800048a2:	da 0a       	popm	pc,r12=1
800048a4:	00 00       	add	r0,r0
800048a6:	07 74       	ld.ub	r4,--r3
800048a8:	80 00       	ld.sh	r0,r0[0x0]
800048aa:	6d 48       	ld.w	r8,r6[0x50]
800048ac:	00 00       	add	r0,r0
800048ae:	07 3c       	ld.ub	r12,r3++
800048b0:	00 00       	add	r0,r0
800048b2:	04 ec       	st.h	--r2,r12
800048b4:	80 00       	ld.sh	r0,r0[0x0]
800048b6:	6d 5c       	ld.w	r12,r6[0x54]

800048b8 <fat_cache_clear>:
800048b8:	d4 01       	pushm	lr
800048ba:	e0 6a 02 00 	mov	r10,512
800048be:	30 0b       	mov	r11,0
800048c0:	48 2c       	lddpc	r12,800048c8 <fat_cache_clear+0x10>
800048c2:	f0 1f 00 03 	mcall	800048cc <fat_cache_clear+0x14>
800048c6:	d8 02       	popm	pc
800048c8:	00 00       	add	r0,r0
800048ca:	04 ec       	st.h	--r2,r12
800048cc:	80 00       	ld.sh	r0,r0[0x0]
800048ce:	7d f2       	ld.w	r2,lr[0x7c]

800048d0 <fat_cache_read_sector>:
800048d0:	eb cd 40 80 	pushm	r7,lr
800048d4:	18 97       	mov	r7,r12
800048d6:	49 78       	lddpc	r8,80004930 <fat_cache_read_sector+0x60>
800048d8:	11 89       	ld.ub	r9,r8[0x0]
800048da:	49 78       	lddpc	r8,80004934 <fat_cache_read_sector+0x64>
800048dc:	11 88       	ld.ub	r8,r8[0x0]
800048de:	f0 09 18 00 	cp.b	r9,r8
800048e2:	c0 91       	brne	800048f4 <fat_cache_read_sector+0x24>
800048e4:	49 38       	lddpc	r8,80004930 <fat_cache_read_sector+0x60>
800048e6:	70 19       	ld.w	r9,r8[0x4]
800048e8:	49 48       	lddpc	r8,80004938 <fat_cache_read_sector+0x68>
800048ea:	70 08       	ld.w	r8,r8[0x0]
800048ec:	10 39       	cp.w	r9,r8
800048ee:	c0 31       	brne	800048f4 <fat_cache_read_sector+0x24>
800048f0:	e3 cf 90 80 	ldm	sp++,r7,pc,r12=1
800048f4:	f0 1f 00 12 	mcall	8000493c <fat_cache_read_sector+0x6c>
800048f8:	c1 90       	breq	8000492a <fat_cache_read_sector+0x5a>
800048fa:	f0 1f 00 12 	mcall	80004940 <fat_cache_read_sector+0x70>
800048fe:	48 f8       	lddpc	r8,80004938 <fat_cache_read_sector+0x68>
80004900:	70 0b       	ld.w	r11,r8[0x0]
80004902:	48 c8       	lddpc	r8,80004930 <fat_cache_read_sector+0x60>
80004904:	91 1b       	st.w	r8[0x4],r11
80004906:	58 07       	cp.w	r7,0
80004908:	c0 c0       	breq	80004920 <fat_cache_read_sector+0x50>
8000490a:	48 fa       	lddpc	r10,80004944 <fat_cache_read_sector+0x74>
8000490c:	48 a8       	lddpc	r8,80004934 <fat_cache_read_sector+0x64>
8000490e:	11 8c       	ld.ub	r12,r8[0x0]
80004910:	f0 1f 00 0e 	mcall	80004948 <fat_cache_read_sector+0x78>
80004914:	c0 60       	breq	80004920 <fat_cache_read_sector+0x50>
80004916:	30 19       	mov	r9,1
80004918:	48 d8       	lddpc	r8,8000494c <fat_cache_read_sector+0x7c>
8000491a:	b0 89       	st.b	r8[0x0],r9
8000491c:	e3 cf 80 80 	ldm	sp++,r7,pc,r12=0
80004920:	48 58       	lddpc	r8,80004934 <fat_cache_read_sector+0x64>
80004922:	11 89       	ld.ub	r9,r8[0x0]
80004924:	48 38       	lddpc	r8,80004930 <fat_cache_read_sector+0x60>
80004926:	b0 89       	st.b	r8[0x0],r9
80004928:	30 1c       	mov	r12,1
8000492a:	e3 cd 80 80 	ldm	sp++,r7,pc
8000492e:	00 00       	add	r0,r0
80004930:	00 00       	add	r0,r0
80004932:	07 74       	ld.ub	r4,--r3
80004934:	00 00       	add	r0,r0
80004936:	06 ec       	st.h	--r3,r12
80004938:	00 00       	add	r0,r0
8000493a:	04 a8       	st.w	r2++,r8
8000493c:	80 00       	ld.sh	r0,r0[0x0]
8000493e:	48 64       	lddpc	r4,80004954 <fat_cluster_readnext+0x4>
80004940:	80 00       	ld.sh	r0,r0[0x0]
80004942:	46 98       	lddsp	r8,sp[0x1a4]
80004944:	00 00       	add	r0,r0
80004946:	04 ec       	st.h	--r2,r12
80004948:	80 00       	ld.sh	r0,r0[0x0]
8000494a:	6d 98       	ld.w	r8,r6[0x64]
8000494c:	00 00       	add	r0,r0
8000494e:	07 3c       	ld.ub	r12,r3++

80004950 <fat_cluster_readnext>:
80004950:	d4 01       	pushm	lr
80004952:	49 f8       	lddpc	r8,800049cc <fat_cluster_readnext+0x7c>
80004954:	11 89       	ld.ub	r9,r8[0x0]
80004956:	30 38       	mov	r8,3
80004958:	f0 09 18 00 	cp.b	r9,r8
8000495c:	c0 61       	brne	80004968 <fat_cluster_readnext+0x18>
8000495e:	49 d8       	lddpc	r8,800049d0 <fat_cluster_readnext+0x80>
80004960:	90 09       	ld.sh	r9,r8[0x0]
80004962:	2f c9       	sub	r9,-4
80004964:	b0 09       	st.h	r8[0x0],r9
80004966:	c0 58       	rjmp	80004970 <fat_cluster_readnext+0x20>
80004968:	49 a8       	lddpc	r8,800049d0 <fat_cluster_readnext+0x80>
8000496a:	90 09       	ld.sh	r9,r8[0x0]
8000496c:	2f e9       	sub	r9,-2
8000496e:	b0 09       	st.h	r8[0x0],r9
80004970:	49 88       	lddpc	r8,800049d0 <fat_cluster_readnext+0x80>
80004972:	90 09       	ld.sh	r9,r8[0x0]
80004974:	e0 68 02 00 	mov	r8,512
80004978:	f0 09 19 00 	cp.h	r9,r8
8000497c:	c0 c1       	brne	80004994 <fat_cluster_readnext+0x44>
8000497e:	30 09       	mov	r9,0
80004980:	49 48       	lddpc	r8,800049d0 <fat_cluster_readnext+0x80>
80004982:	b0 09       	st.h	r8[0x0],r9
80004984:	49 48       	lddpc	r8,800049d4 <fat_cluster_readnext+0x84>
80004986:	70 09       	ld.w	r9,r8[0x0]
80004988:	2f f9       	sub	r9,-1
8000498a:	91 09       	st.w	r8[0x0],r9
8000498c:	30 1c       	mov	r12,1
8000498e:	f0 1f 00 13 	mcall	800049d8 <fat_cluster_readnext+0x88>
80004992:	c1 b0       	breq	800049c8 <fat_cluster_readnext+0x78>
80004994:	49 28       	lddpc	r8,800049dc <fat_cluster_readnext+0x8c>
80004996:	2f c8       	sub	r8,-4
80004998:	48 e9       	lddpc	r9,800049d0 <fat_cluster_readnext+0x80>
8000499a:	92 89       	ld.uh	r9,r9[0x0]
8000499c:	49 1a       	lddpc	r10,800049e0 <fat_cluster_readnext+0x90>
8000499e:	f4 09 07 0b 	ld.ub	r11,r10[r9]
800049a2:	b0 bb       	st.b	r8[0x3],r11
800049a4:	12 0a       	add	r10,r9
800049a6:	15 9a       	ld.ub	r10,r10[0x1]
800049a8:	b0 aa       	st.b	r8[0x2],r10
800049aa:	48 9a       	lddpc	r10,800049cc <fat_cluster_readnext+0x7c>
800049ac:	15 8b       	ld.ub	r11,r10[0x0]
800049ae:	30 3a       	mov	r10,3
800049b0:	f4 0b 18 00 	cp.b	r11,r10
800049b4:	c0 20       	breq	800049b8 <fat_cluster_readnext+0x68>
800049b6:	da 0a       	popm	pc,r12=1
800049b8:	48 aa       	lddpc	r10,800049e0 <fat_cluster_readnext+0x90>
800049ba:	f4 09 00 09 	add	r9,r10,r9
800049be:	13 aa       	ld.ub	r10,r9[0x2]
800049c0:	b0 9a       	st.b	r8[0x1],r10
800049c2:	13 b9       	ld.ub	r9,r9[0x3]
800049c4:	b0 89       	st.b	r8[0x0],r9
800049c6:	30 1c       	mov	r12,1
800049c8:	d8 02       	popm	pc
800049ca:	00 00       	add	r0,r0
800049cc:	00 00       	add	r0,r0
800049ce:	07 38       	ld.ub	r8,r3++
800049d0:	00 00       	add	r0,r0
800049d2:	04 bc       	st.h	r2++,r12
800049d4:	00 00       	add	r0,r0
800049d6:	04 a8       	st.w	r2++,r8
800049d8:	80 00       	ld.sh	r0,r0[0x0]
800049da:	48 d0       	lddpc	r0,80004a0c <fat_cluster_val+0x28>
800049dc:	00 00       	add	r0,r0
800049de:	07 8c       	ld.ub	r12,r3[0x0]
800049e0:	00 00       	add	r0,r0
800049e2:	04 ec       	st.h	--r2,r12

800049e4 <fat_cluster_val>:
800049e4:	d4 31       	pushm	r0-r7,lr
800049e6:	18 95       	mov	r5,r12
800049e8:	fe f8 02 18 	ld.w	r8,pc[536]
800049ec:	11 88       	ld.ub	r8,r8[0x0]
800049ee:	30 39       	mov	r9,3
800049f0:	f2 08 18 00 	cp.b	r8,r9
800049f4:	c0 d1       	brne	80004a0e <fat_cluster_val+0x2a>
800049f6:	fe fa 02 0e 	ld.w	r10,pc[526]
800049fa:	74 09       	ld.w	r9,r10[0x0]
800049fc:	a7 99       	lsr	r9,0x7
800049fe:	15 bb       	ld.ub	r11,r10[0x3]
80004a00:	f7 db c0 07 	bfextu	r11,r11,0x0,0x7
80004a04:	a3 6b       	lsl	r11,0x2
80004a06:	fe fa 02 02 	ld.w	r10,pc[514]
80004a0a:	b4 0b       	st.h	r10[0x0],r11
80004a0c:	c2 08       	rjmp	80004a4c <fat_cluster_val+0x68>
80004a0e:	30 29       	mov	r9,2
80004a10:	f2 08 18 00 	cp.b	r8,r9
80004a14:	c0 81       	brne	80004a24 <fat_cluster_val+0x40>
80004a16:	4f ca       	lddpc	r10,80004c04 <fat_cluster_val+0x220>
80004a18:	15 a9       	ld.ub	r9,r10[0x2]
80004a1a:	15 bb       	ld.ub	r11,r10[0x3]
80004a1c:	a1 7b       	lsl	r11,0x1
80004a1e:	4f ba       	lddpc	r10,80004c08 <fat_cluster_val+0x224>
80004a20:	b4 0b       	st.h	r10[0x0],r11
80004a22:	c1 58       	rjmp	80004a4c <fat_cluster_val+0x68>
80004a24:	30 19       	mov	r9,1
80004a26:	f2 08 18 00 	cp.b	r8,r9
80004a2a:	c0 30       	breq	80004a30 <fat_cluster_val+0x4c>
80004a2c:	30 09       	mov	r9,0
80004a2e:	c0 f8       	rjmp	80004a4c <fat_cluster_val+0x68>
80004a30:	4f 59       	lddpc	r9,80004c04 <fat_cluster_val+0x220>
80004a32:	72 09       	ld.w	r9,r9[0x0]
80004a34:	4f 5a       	lddpc	r10,80004c08 <fat_cluster_val+0x224>
80004a36:	f7 d9 c0 2f 	bfextu	r11,r9,0x1,0xf
80004a3a:	12 0b       	add	r11,r9
80004a3c:	b4 0b       	st.h	r10[0x0],r11
80004a3e:	f7 db c1 08 	bfextu	r11,r11,0x8,0x8
80004a42:	f6 09 16 01 	lsr	r9,r11,0x1
80004a46:	f7 db c0 01 	bfextu	r11,r11,0x0,0x1
80004a4a:	b4 8b       	st.b	r10[0x0],r11
80004a4c:	58 05       	cp.w	r5,0
80004a4e:	c2 20       	breq	80004a92 <fat_cluster_val+0xae>
80004a50:	4e fa       	lddpc	r10,80004c0c <fat_cluster_val+0x228>
80004a52:	74 0a       	ld.w	r10,r10[0x0]
80004a54:	14 39       	cp.w	r9,r10
80004a56:	c0 32       	brcc	80004a5c <fat_cluster_val+0x78>
80004a58:	4e da       	lddpc	r10,80004c0c <fat_cluster_val+0x228>
80004a5a:	95 09       	st.w	r10[0x0],r9
80004a5c:	4e da       	lddpc	r10,80004c10 <fat_cluster_val+0x22c>
80004a5e:	74 0a       	ld.w	r10,r10[0x0]
80004a60:	14 39       	cp.w	r9,r10
80004a62:	e0 88 00 04 	brls	80004a6a <fat_cluster_val+0x86>
80004a66:	4e ba       	lddpc	r10,80004c10 <fat_cluster_val+0x22c>
80004a68:	95 09       	st.w	r10[0x0],r9
80004a6a:	30 1a       	mov	r10,1
80004a6c:	f4 08 18 00 	cp.b	r8,r10
80004a70:	c1 11       	brne	80004a92 <fat_cluster_val+0xae>
80004a72:	4e 68       	lddpc	r8,80004c08 <fat_cluster_val+0x224>
80004a74:	90 0a       	ld.sh	r10,r8[0x0]
80004a76:	e0 68 01 ff 	mov	r8,511
80004a7a:	f0 0a 19 00 	cp.h	r10,r8
80004a7e:	c0 a1       	brne	80004a92 <fat_cluster_val+0xae>
80004a80:	f2 c8 ff ff 	sub	r8,r9,-1
80004a84:	4e 3a       	lddpc	r10,80004c10 <fat_cluster_val+0x22c>
80004a86:	74 0a       	ld.w	r10,r10[0x0]
80004a88:	14 38       	cp.w	r8,r10
80004a8a:	e0 88 00 04 	brls	80004a92 <fat_cluster_val+0xae>
80004a8e:	4e 1a       	lddpc	r10,80004c10 <fat_cluster_val+0x22c>
80004a90:	95 08       	st.w	r10[0x0],r8
80004a92:	4e 18       	lddpc	r8,80004c14 <fat_cluster_val+0x230>
80004a94:	70 48       	ld.w	r8,r8[0x10]
80004a96:	10 09       	add	r9,r8
80004a98:	4e 08       	lddpc	r8,80004c18 <fat_cluster_val+0x234>
80004a9a:	91 09       	st.w	r8[0x0],r9
80004a9c:	30 1c       	mov	r12,1
80004a9e:	f0 1f 00 60 	mcall	80004c1c <fat_cluster_val+0x238>
80004aa2:	e0 80 00 ad 	breq	80004bfc <fat_cluster_val+0x218>
80004aa6:	4d 98       	lddpc	r8,80004c08 <fat_cluster_val+0x224>
80004aa8:	90 08       	ld.sh	r8,r8[0x0]
80004aaa:	ed d8 c0 10 	bfextu	r6,r8,0x0,0x10
80004aae:	4d d9       	lddpc	r9,80004c20 <fat_cluster_val+0x23c>
80004ab0:	12 06       	add	r6,r9
80004ab2:	0c 97       	mov	r7,r6
80004ab4:	0f 32       	ld.ub	r2,r7++
80004ab6:	0f 8b       	ld.ub	r11,r7[0x0]
80004ab8:	ec c4 ff fe 	sub	r4,r6,-2
80004abc:	09 81       	ld.ub	r1,r4[0x0]
80004abe:	ec c3 ff fd 	sub	r3,r6,-3
80004ac2:	07 80       	ld.ub	r0,r3[0x0]
80004ac4:	4c f9       	lddpc	r9,80004c00 <fat_cluster_val+0x21c>
80004ac6:	13 8a       	ld.ub	r10,r9[0x0]
80004ac8:	30 19       	mov	r9,1
80004aca:	f2 0a 18 00 	cp.b	r10,r9
80004ace:	c1 11       	brne	80004af0 <fat_cluster_val+0x10c>
80004ad0:	e0 69 01 ff 	mov	r9,511
80004ad4:	f2 08 19 00 	cp.h	r8,r9
80004ad8:	c0 c1       	brne	80004af0 <fat_cluster_val+0x10c>
80004ada:	4d 08       	lddpc	r8,80004c18 <fat_cluster_val+0x234>
80004adc:	70 09       	ld.w	r9,r8[0x0]
80004ade:	2f f9       	sub	r9,-1
80004ae0:	91 09       	st.w	r8[0x0],r9
80004ae2:	30 1c       	mov	r12,1
80004ae4:	f0 1f 00 4e 	mcall	80004c1c <fat_cluster_val+0x238>
80004ae8:	e0 80 00 8a 	breq	80004bfc <fat_cluster_val+0x218>
80004aec:	4c d8       	lddpc	r8,80004c20 <fat_cluster_val+0x23c>
80004aee:	11 8b       	ld.ub	r11,r8[0x0]
80004af0:	58 05       	cp.w	r5,0
80004af2:	c3 11       	brne	80004b54 <fat_cluster_val+0x170>
80004af4:	4c 48       	lddpc	r8,80004c04 <fat_cluster_val+0x220>
80004af6:	f0 c9 ff fc 	sub	r9,r8,-4
80004afa:	f0 cc ff f9 	sub	r12,r8,-7
80004afe:	b8 82       	st.b	r12[0x0],r2
80004b00:	2f a8       	sub	r8,-6
80004b02:	b0 8b       	st.b	r8[0x0],r11
80004b04:	4b fa       	lddpc	r10,80004c00 <fat_cluster_val+0x21c>
80004b06:	15 8a       	ld.ub	r10,r10[0x0]
80004b08:	30 3b       	mov	r11,3
80004b0a:	f6 0a 18 00 	cp.b	r10,r11
80004b0e:	c0 61       	brne	80004b1a <fat_cluster_val+0x136>
80004b10:	b2 91       	st.b	r9[0x1],r1
80004b12:	e1 d0 c0 04 	bfextu	r0,r0,0x0,0x4
80004b16:	b2 80       	st.b	r9[0x0],r0
80004b18:	da 3a       	popm	r0-r7,pc,r12=1
80004b1a:	30 0b       	mov	r11,0
80004b1c:	b2 9b       	st.b	r9[0x1],r11
80004b1e:	b2 8b       	st.b	r9[0x0],r11
80004b20:	30 19       	mov	r9,1
80004b22:	f2 0a 18 00 	cp.b	r10,r9
80004b26:	c0 20       	breq	80004b2a <fat_cluster_val+0x146>
80004b28:	da 3a       	popm	r0-r7,pc,r12=1
80004b2a:	4b 79       	lddpc	r9,80004c04 <fat_cluster_val+0x220>
80004b2c:	13 b9       	ld.ub	r9,r9[0x3]
80004b2e:	f3 d9 c0 01 	bfextu	r9,r9,0x0,0x1
80004b32:	c0 c0       	breq	80004b4a <fat_cluster_val+0x166>
80004b34:	19 8b       	ld.ub	r11,r12[0x0]
80004b36:	a5 8b       	lsr	r11,0x4
80004b38:	11 89       	ld.ub	r9,r8[0x0]
80004b3a:	f2 0a 15 04 	lsl	r10,r9,0x4
80004b3e:	f6 0a 00 0a 	add	r10,r11,r10
80004b42:	b8 8a       	st.b	r12[0x0],r10
80004b44:	a5 89       	lsr	r9,0x4
80004b46:	b0 89       	st.b	r8[0x0],r9
80004b48:	da 3a       	popm	r0-r7,pc,r12=1
80004b4a:	11 89       	ld.ub	r9,r8[0x0]
80004b4c:	f3 d9 c0 04 	bfextu	r9,r9,0x0,0x4
80004b50:	b0 89       	st.b	r8[0x0],r9
80004b52:	da 3a       	popm	r0-r7,pc,r12=1
80004b54:	4a b8       	lddpc	r8,80004c00 <fat_cluster_val+0x21c>
80004b56:	11 88       	ld.ub	r8,r8[0x0]
80004b58:	30 19       	mov	r9,1
80004b5a:	f2 08 18 00 	cp.b	r8,r9
80004b5e:	c3 a1       	brne	80004bd2 <fat_cluster_val+0x1ee>
80004b60:	4a 98       	lddpc	r8,80004c04 <fat_cluster_val+0x220>
80004b62:	11 b8       	ld.ub	r8,r8[0x3]
80004b64:	f1 d8 c0 01 	bfextu	r8,r8,0x0,0x1
80004b68:	c1 10       	breq	80004b8a <fat_cluster_val+0x1a6>
80004b6a:	eb d2 c0 04 	bfextu	r5,r2,0x0,0x4
80004b6e:	4a 68       	lddpc	r8,80004c04 <fat_cluster_val+0x220>
80004b70:	2f c8       	sub	r8,-4
80004b72:	11 b9       	ld.ub	r9,r8[0x3]
80004b74:	f2 0a 15 04 	lsl	r10,r9,0x4
80004b78:	14 05       	add	r5,r10
80004b7a:	5c 55       	castu.b	r5
80004b7c:	a5 89       	lsr	r9,0x4
80004b7e:	11 a8       	ld.ub	r8,r8[0x2]
80004b80:	a5 68       	lsl	r8,0x4
80004b82:	f2 08 00 0a 	add	r10,r9,r8
80004b86:	5c 5a       	castu.b	r10
80004b88:	c0 c8       	rjmp	80004ba0 <fat_cluster_val+0x1bc>
80004b8a:	49 f8       	lddpc	r8,80004c04 <fat_cluster_val+0x220>
80004b8c:	2f c8       	sub	r8,-4
80004b8e:	11 b5       	ld.ub	r5,r8[0x3]
80004b90:	16 9a       	mov	r10,r11
80004b92:	e2 1a 00 f0 	andl	r10,0xf0,COH
80004b96:	11 a8       	ld.ub	r8,r8[0x2]
80004b98:	f1 d8 c0 04 	bfextu	r8,r8,0x0,0x4
80004b9c:	10 0a       	add	r10,r8
80004b9e:	5c 5a       	castu.b	r10
80004ba0:	49 a8       	lddpc	r8,80004c08 <fat_cluster_val+0x224>
80004ba2:	90 09       	ld.sh	r9,r8[0x0]
80004ba4:	e0 68 01 ff 	mov	r8,511
80004ba8:	f0 09 19 00 	cp.h	r9,r8
80004bac:	c2 31       	brne	80004bf2 <fat_cluster_val+0x20e>
80004bae:	49 d8       	lddpc	r8,80004c20 <fat_cluster_val+0x23c>
80004bb0:	b0 8a       	st.b	r8[0x0],r10
80004bb2:	f0 1f 00 1d 	mcall	80004c24 <fat_cluster_val+0x240>
80004bb6:	49 98       	lddpc	r8,80004c18 <fat_cluster_val+0x234>
80004bb8:	70 09       	ld.w	r9,r8[0x0]
80004bba:	20 19       	sub	r9,1
80004bbc:	91 09       	st.w	r8[0x0],r9
80004bbe:	30 1c       	mov	r12,1
80004bc0:	f0 1f 00 17 	mcall	80004c1c <fat_cluster_val+0x238>
80004bc4:	c1 c0       	breq	80004bfc <fat_cluster_val+0x218>
80004bc6:	49 78       	lddpc	r8,80004c20 <fat_cluster_val+0x23c>
80004bc8:	f1 65 01 ff 	st.b	r8[511],r5
80004bcc:	f0 1f 00 16 	mcall	80004c24 <fat_cluster_val+0x240>
80004bd0:	da 3a       	popm	r0-r7,pc,r12=1
80004bd2:	48 d9       	lddpc	r9,80004c04 <fat_cluster_val+0x220>
80004bd4:	2f c9       	sub	r9,-4
80004bd6:	13 b5       	ld.ub	r5,r9[0x3]
80004bd8:	13 aa       	ld.ub	r10,r9[0x2]
80004bda:	30 3b       	mov	r11,3
80004bdc:	f6 08 18 00 	cp.b	r8,r11
80004be0:	c0 91       	brne	80004bf2 <fat_cluster_val+0x20e>
80004be2:	13 98       	ld.ub	r8,r9[0x1]
80004be4:	a8 88       	st.b	r4[0x0],r8
80004be6:	e0 10 ff f0 	andl	r0,0xfff0
80004bea:	13 88       	ld.ub	r8,r9[0x0]
80004bec:	f0 00 00 00 	add	r0,r8,r0
80004bf0:	a6 80       	st.b	r3[0x0],r0
80004bf2:	ac 85       	st.b	r6[0x0],r5
80004bf4:	ae 8a       	st.b	r7[0x0],r10
80004bf6:	f0 1f 00 0c 	mcall	80004c24 <fat_cluster_val+0x240>
80004bfa:	da 3a       	popm	r0-r7,pc,r12=1
80004bfc:	d8 3a       	popm	r0-r7,pc,r12=0
80004bfe:	00 00       	add	r0,r0
80004c00:	00 00       	add	r0,r0
80004c02:	07 38       	ld.ub	r8,r3++
80004c04:	00 00       	add	r0,r0
80004c06:	07 8c       	ld.ub	r12,r3[0x0]
80004c08:	00 00       	add	r0,r0
80004c0a:	04 bc       	st.h	r2++,r12
80004c0c:	00 00       	add	r0,r0
80004c0e:	07 20       	ld.uh	r0,r3++
80004c10:	00 00       	add	r0,r0
80004c12:	04 e8       	st.h	--r2,r8
80004c14:	00 00       	add	r0,r0
80004c16:	06 ec       	st.h	--r3,r12
80004c18:	00 00       	add	r0,r0
80004c1a:	04 a8       	st.w	r2++,r8
80004c1c:	80 00       	ld.sh	r0,r0[0x0]
80004c1e:	48 d0       	lddpc	r0,80004c50 <fat_cluster_list+0x28>
80004c20:	00 00       	add	r0,r0
80004c22:	04 ec       	st.h	--r2,r12
80004c24:	80 00       	ld.sh	r0,r0[0x0]
80004c26:	46 b0       	lddsp	r0,sp[0x1ac]

80004c28 <fat_cluster_list>:
80004c28:	d4 31       	pushm	r0-r7,lr
80004c2a:	20 2d       	sub	sp,8
80004c2c:	18 93       	mov	r3,r12
80004c2e:	16 97       	mov	r7,r11
80004c30:	30 89       	mov	r9,8
80004c32:	fe f8 02 8e 	ld.w	r8,pc[654]
80004c36:	b0 89       	st.b	r8[0x0],r9
80004c38:	30 38       	mov	r8,3
80004c3a:	f0 0c 18 00 	cp.b	r12,r8
80004c3e:	5f 0a       	sreq	r10
80004c40:	50 0a       	stdsp	sp[0x0],r10
80004c42:	fe f9 02 82 	ld.w	r9,pc[642]
80004c46:	13 89       	ld.ub	r9,r9[0x0]
80004c48:	f0 09 18 00 	cp.b	r9,r8
80004c4c:	5f 08       	sreq	r8
80004c4e:	f5 e8 00 08 	and	r8,r10,r8
80004c52:	c0 60       	breq	80004c5e <fat_cluster_list+0x36>
80004c54:	3f fc       	mov	r12,-1
80004c56:	f0 1f 00 9d 	mcall	80004ec8 <fat_cluster_list+0x2a0>
80004c5a:	e0 80 01 2f 	breq	80004eb8 <fat_cluster_list+0x290>
80004c5e:	fe f8 02 6e 	ld.w	r8,pc[622]
80004c62:	70 08       	ld.w	r8,r8[0x0]
80004c64:	58 08       	cp.w	r8,0
80004c66:	c3 b1       	brne	80004cdc <fat_cluster_list+0xb4>
80004c68:	40 09       	lddsp	r9,sp[0x0]
80004c6a:	58 09       	cp.w	r9,0
80004c6c:	e0 81 01 26 	brne	80004eb8 <fat_cluster_list+0x290>
80004c70:	fe f8 02 54 	ld.w	r8,pc[596]
80004c74:	11 88       	ld.ub	r8,r8[0x0]
80004c76:	f0 ca 00 01 	sub	r10,r8,1
80004c7a:	30 19       	mov	r9,1
80004c7c:	f2 0a 18 00 	cp.b	r10,r9
80004c80:	e0 8b 00 23 	brhi	80004cc6 <fat_cluster_list+0x9e>
80004c84:	fe f8 02 48 	ld.w	r8,pc[584]
80004c88:	70 18       	ld.w	r8,r8[0x4]
80004c8a:	fe f9 02 46 	ld.w	r9,pc[582]
80004c8e:	f3 19 00 1a 	ld.uh	r9,r9[26]
80004c92:	12 38       	cp.w	r8,r9
80004c94:	c1 32       	brcc	80004cba <fat_cluster_list+0x92>
80004c96:	fe f9 02 36 	ld.w	r9,pc[566]
80004c9a:	fe fa 02 36 	ld.w	r10,pc[566]
80004c9e:	74 4b       	ld.w	r11,r10[0x10]
80004ca0:	16 08       	add	r8,r11
80004ca2:	f5 1b 00 18 	ld.uh	r11,r10[24]
80004ca6:	16 08       	add	r8,r11
80004ca8:	93 08       	st.w	r9[0x0],r8
80004caa:	f5 1a 00 1a 	ld.uh	r10,r10[26]
80004cae:	72 18       	ld.w	r8,r9[0x4]
80004cb0:	f4 08 01 08 	sub	r8,r10,r8
80004cb4:	93 18       	st.w	r9[0x4],r8
80004cb6:	30 1c       	mov	r12,1
80004cb8:	c0 19       	rjmp	80004eba <fat_cluster_list+0x292>
80004cba:	31 a9       	mov	r9,26
80004cbc:	fe f8 02 04 	ld.w	r8,pc[516]
80004cc0:	b0 89       	st.b	r8[0x0],r9
80004cc2:	30 0c       	mov	r12,0
80004cc4:	cf b8       	rjmp	80004eba <fat_cluster_list+0x292>
80004cc6:	30 39       	mov	r9,3
80004cc8:	f2 08 18 00 	cp.b	r8,r9
80004ccc:	c0 a1       	brne	80004ce0 <fat_cluster_list+0xb8>
80004cce:	fe f8 02 02 	ld.w	r8,pc[514]
80004cd2:	70 69       	ld.w	r9,r8[0x18]
80004cd4:	fe f8 02 00 	ld.w	r8,pc[512]
80004cd8:	91 09       	st.w	r8[0x0],r9
80004cda:	c0 38       	rjmp	80004ce0 <fat_cluster_list+0xb8>
80004cdc:	4f e9       	lddpc	r9,80004ed4 <fat_cluster_list+0x2ac>
80004cde:	93 08       	st.w	r9[0x0],r8
80004ce0:	30 38       	mov	r8,3
80004ce2:	f0 03 18 00 	cp.b	r3,r8
80004ce6:	c0 70       	breq	80004cf4 <fat_cluster_list+0xcc>
80004ce8:	0e 9c       	mov	r12,r7
80004cea:	f0 1f 00 7c 	mcall	80004ed8 <fat_cluster_list+0x2b0>
80004cee:	c0 70       	breq	80004cfc <fat_cluster_list+0xd4>
80004cf0:	30 1c       	mov	r12,1
80004cf2:	ce 48       	rjmp	80004eba <fat_cluster_list+0x292>
80004cf4:	f0 1f 00 7a 	mcall	80004edc <fat_cluster_list+0x2b4>
80004cf8:	f0 1f 00 7a 	mcall	80004ee0 <fat_cluster_list+0x2b8>
80004cfc:	4f 40       	lddpc	r0,80004ecc <fat_cluster_list+0x2a4>
80004cfe:	3f f8       	mov	r8,-1
80004d00:	a0 88       	st.b	r0[0x0],r8
80004d02:	00 96       	mov	r6,r0
80004d04:	4f 35       	lddpc	r5,80004ed0 <fat_cluster_list+0x2a8>
80004d06:	4f 47       	lddpc	r7,80004ed4 <fat_cluster_list+0x2ac>
80004d08:	30 21       	mov	r1,2
80004d0a:	e0 c8 ff f9 	sub	r8,r0,-7
80004d0e:	50 18       	stdsp	sp[0x4],r8
80004d10:	30 12       	mov	r2,1
80004d12:	6c 19       	ld.w	r9,r6[0x4]
80004d14:	0b 98       	ld.ub	r8,r5[0x1]
80004d16:	10 39       	cp.w	r9,r8
80004d18:	c4 32       	brcc	80004d9e <fat_cluster_list+0x176>
80004d1a:	6a 4a       	ld.w	r10,r5[0x10]
80004d1c:	14 09       	add	r9,r10
80004d1e:	6a 5a       	ld.w	r10,r5[0x14]
80004d20:	14 09       	add	r9,r10
80004d22:	6e 0a       	ld.w	r10,r7[0x0]
80004d24:	20 2a       	sub	r10,2
80004d26:	f4 08 02 48 	mul	r8,r10,r8
80004d2a:	f2 08 00 08 	add	r8,r9,r8
80004d2e:	8d 08       	st.w	r6[0x0],r8
80004d30:	e2 03 18 00 	cp.b	r3,r1
80004d34:	c0 d1       	brne	80004d4e <fat_cluster_list+0x126>
80004d36:	4e 67       	lddpc	r7,80004ecc <fat_cluster_list+0x2a4>
80004d38:	4e 68       	lddpc	r8,80004ed0 <fat_cluster_list+0x2a8>
80004d3a:	11 99       	ld.ub	r9,r8[0x1]
80004d3c:	6e 18       	ld.w	r8,r7[0x4]
80004d3e:	f2 08 01 08 	sub	r8,r9,r8
80004d42:	8f 18       	st.w	r7[0x4],r8
80004d44:	f0 1f 00 68 	mcall	80004ee4 <fat_cluster_list+0x2bc>
80004d48:	30 1c       	mov	r12,1
80004d4a:	8f 1c       	st.w	r7[0x4],r12
80004d4c:	cb 78       	rjmp	80004eba <fat_cluster_list+0x292>
80004d4e:	0b 99       	ld.ub	r9,r5[0x1]
80004d50:	40 1a       	lddsp	r10,sp[0x4]
80004d52:	15 88       	ld.ub	r8,r10[0x0]
80004d54:	f2 08 01 08 	sub	r8,r9,r8
80004d58:	8d 18       	st.w	r6[0x4],r8
80004d5a:	e4 03 18 00 	cp.b	r3,r2
80004d5e:	c2 01       	brne	80004d9e <fat_cluster_list+0x176>
80004d60:	4d 99       	lddpc	r9,80004ec4 <fat_cluster_list+0x29c>
80004d62:	13 88       	ld.ub	r8,r9[0x0]
80004d64:	e4 08 18 00 	cp.b	r8,r2
80004d68:	c1 b0       	breq	80004d9e <fat_cluster_list+0x176>
80004d6a:	6e 04       	ld.w	r4,r7[0x0]
80004d6c:	30 0c       	mov	r12,0
80004d6e:	f0 1f 00 5f 	mcall	80004ee8 <fat_cluster_list+0x2c0>
80004d72:	e0 80 00 a3 	breq	80004eb8 <fat_cluster_list+0x290>
80004d76:	6e 09       	ld.w	r9,r7[0x0]
80004d78:	f2 c8 ff ff 	sub	r8,r9,-1
80004d7c:	8f 08       	st.w	r7[0x0],r8
80004d7e:	6e 1a       	ld.w	r10,r7[0x4]
80004d80:	14 38       	cp.w	r8,r10
80004d82:	c0 a0       	breq	80004d96 <fat_cluster_list+0x16e>
80004d84:	8f 09       	st.w	r7[0x0],r9
80004d86:	08 19       	sub	r9,r4
80004d88:	0b 98       	ld.ub	r8,r5[0x1]
80004d8a:	b1 39       	mul	r9,r8
80004d8c:	6c 18       	ld.w	r8,r6[0x4]
80004d8e:	f2 08 00 08 	add	r8,r9,r8
80004d92:	8d 18       	st.w	r6[0x4],r8
80004d94:	c0 58       	rjmp	80004d9e <fat_cluster_list+0x176>
80004d96:	f0 1f 00 56 	mcall	80004eec <fat_cluster_list+0x2c4>
80004d9a:	ce e1       	brne	80004d76 <fat_cluster_list+0x14e>
80004d9c:	c8 e8       	rjmp	80004eb8 <fat_cluster_list+0x290>
80004d9e:	30 0c       	mov	r12,0
80004da0:	f0 1f 00 52 	mcall	80004ee8 <fat_cluster_list+0x2c0>
80004da4:	e0 80 00 8a 	breq	80004eb8 <fat_cluster_list+0x290>
80004da8:	f0 1f 00 52 	mcall	80004ef0 <fat_cluster_list+0x2c8>
80004dac:	18 94       	mov	r4,r12
80004dae:	e4 0c 18 00 	cp.b	r12,r2
80004db2:	e0 80 00 83 	breq	80004eb8 <fat_cluster_list+0x290>
80004db6:	01 89       	ld.ub	r9,r0[0x0]
80004db8:	3f f8       	mov	r8,-1
80004dba:	f0 09 18 00 	cp.b	r9,r8
80004dbe:	c4 61       	brne	80004e4a <fat_cluster_list+0x222>
80004dc0:	e2 0c 18 00 	cp.b	r12,r1
80004dc4:	c2 b1       	brne	80004e1a <fat_cluster_list+0x1f2>
80004dc6:	4c 28       	lddpc	r8,80004ecc <fat_cluster_list+0x2a4>
80004dc8:	70 17       	ld.w	r7,r8[0x4]
80004dca:	4c b9       	lddpc	r9,80004ef4 <fat_cluster_list+0x2cc>
80004dcc:	13 89       	ld.ub	r9,r9[0x0]
80004dce:	f2 09 00 29 	add	r9,r9,r9<<0x2
80004dd2:	4c aa       	lddpc	r10,80004ef8 <fat_cluster_list+0x2d0>
80004dd4:	f4 09 00 29 	add	r9,r10,r9<<0x2
80004dd8:	72 2a       	ld.w	r10,r9[0x8]
80004dda:	0e 1a       	sub	r10,r7
80004ddc:	93 2a       	st.w	r9[0x8],r10
80004dde:	4b d9       	lddpc	r9,80004ed0 <fat_cluster_list+0x2a8>
80004de0:	72 5b       	ld.w	r11,r9[0x14]
80004de2:	72 4a       	ld.w	r10,r9[0x10]
80004de4:	14 0b       	add	r11,r10
80004de6:	13 99       	ld.ub	r9,r9[0x1]
80004de8:	4b ba       	lddpc	r10,80004ed4 <fat_cluster_list+0x2ac>
80004dea:	74 0a       	ld.w	r10,r10[0x0]
80004dec:	20 2a       	sub	r10,2
80004dee:	f2 0a 02 4a 	mul	r10,r9,r10
80004df2:	f6 0a 00 0a 	add	r10,r11,r10
80004df6:	91 0a       	st.w	r8[0x0],r10
80004df8:	91 19       	st.w	r8[0x4],r9
80004dfa:	30 38       	mov	r8,3
80004dfc:	f0 03 18 00 	cp.b	r3,r8
80004e00:	c0 30       	breq	80004e06 <fat_cluster_list+0x1de>
80004e02:	f0 1f 00 39 	mcall	80004ee4 <fat_cluster_list+0x2bc>
80004e06:	4b 28       	lddpc	r8,80004ecc <fat_cluster_list+0x2a4>
80004e08:	4b 39       	lddpc	r9,80004ed4 <fat_cluster_list+0x2ac>
80004e0a:	72 09       	ld.w	r9,r9[0x0]
80004e0c:	91 09       	st.w	r8[0x0],r9
80004e0e:	91 17       	st.w	r8[0x4],r7
80004e10:	31 a9       	mov	r9,26
80004e12:	4a c8       	lddpc	r8,80004ec0 <fat_cluster_list+0x298>
80004e14:	b0 89       	st.b	r8[0x0],r9
80004e16:	30 0c       	mov	r12,0
80004e18:	c5 18       	rjmp	80004eba <fat_cluster_list+0x292>
80004e1a:	0b 98       	ld.ub	r8,r5[0x1]
80004e1c:	6c 19       	ld.w	r9,r6[0x4]
80004e1e:	f2 08 01 08 	sub	r8,r9,r8
80004e22:	8d 18       	st.w	r6[0x4],r8
80004e24:	40 0a       	lddsp	r10,sp[0x0]
80004e26:	58 0a       	cp.w	r10,0
80004e28:	c4 50       	breq	80004eb2 <fat_cluster_list+0x28a>
80004e2a:	58 08       	cp.w	r8,0
80004e2c:	c4 31       	brne	80004eb2 <fat_cluster_list+0x28a>
80004e2e:	6e 18       	ld.w	r8,r7[0x4]
80004e30:	8d 08       	st.w	r6[0x0],r8
80004e32:	e0 68 ff ff 	mov	r8,65535
80004e36:	ea 18 0f ff 	orh	r8,0xfff
80004e3a:	8f 18       	st.w	r7[0x4],r8
80004e3c:	30 1c       	mov	r12,1
80004e3e:	f0 1f 00 2b 	mcall	80004ee8 <fat_cluster_list+0x2c0>
80004e42:	c3 b0       	breq	80004eb8 <fat_cluster_list+0x290>
80004e44:	6c 08       	ld.w	r8,r6[0x0]
80004e46:	8f 18       	st.w	r7[0x4],r8
80004e48:	c3 58       	rjmp	80004eb2 <fat_cluster_list+0x28a>
80004e4a:	e4 03 18 00 	cp.b	r3,r2
80004e4e:	c0 a1       	brne	80004e62 <fat_cluster_list+0x23a>
80004e50:	6e 09       	ld.w	r9,r7[0x0]
80004e52:	2f f9       	sub	r9,-1
80004e54:	6e 18       	ld.w	r8,r7[0x4]
80004e56:	10 39       	cp.w	r9,r8
80004e58:	c1 b0       	breq	80004e8e <fat_cluster_list+0x266>
80004e5a:	f0 1f 00 23 	mcall	80004ee4 <fat_cluster_list+0x2bc>
80004e5e:	30 1c       	mov	r12,1
80004e60:	c2 d8       	rjmp	80004eba <fat_cluster_list+0x292>
80004e62:	40 09       	lddsp	r9,sp[0x0]
80004e64:	58 09       	cp.w	r9,0
80004e66:	c1 40       	breq	80004e8e <fat_cluster_list+0x266>
80004e68:	6e 18       	ld.w	r8,r7[0x4]
80004e6a:	8d 08       	st.w	r6[0x0],r8
80004e6c:	30 08       	mov	r8,0
80004e6e:	8f 18       	st.w	r7[0x4],r8
80004e70:	0b 98       	ld.ub	r8,r5[0x1]
80004e72:	6c 19       	ld.w	r9,r6[0x4]
80004e74:	10 39       	cp.w	r9,r8
80004e76:	c0 62       	brcc	80004e82 <fat_cluster_list+0x25a>
80004e78:	e0 68 ff ff 	mov	r8,65535
80004e7c:	ea 18 0f ff 	orh	r8,0xfff
80004e80:	8f 18       	st.w	r7[0x4],r8
80004e82:	30 1c       	mov	r12,1
80004e84:	f0 1f 00 19 	mcall	80004ee8 <fat_cluster_list+0x2c0>
80004e88:	c1 80       	breq	80004eb8 <fat_cluster_list+0x290>
80004e8a:	6c 08       	ld.w	r8,r6[0x0]
80004e8c:	8f 18       	st.w	r7[0x4],r8
80004e8e:	e2 04 18 00 	cp.b	r4,r1
80004e92:	c0 b1       	brne	80004ea8 <fat_cluster_list+0x280>
80004e94:	40 0a       	lddsp	r10,sp[0x0]
80004e96:	58 0a       	cp.w	r10,0
80004e98:	c0 40       	breq	80004ea0 <fat_cluster_list+0x278>
80004e9a:	f0 1f 00 19 	mcall	80004efc <fat_cluster_list+0x2d4>
80004e9e:	c0 e8       	rjmp	80004eba <fat_cluster_list+0x292>
80004ea0:	f0 1f 00 11 	mcall	80004ee4 <fat_cluster_list+0x2bc>
80004ea4:	30 1c       	mov	r12,1
80004ea6:	c0 a8       	rjmp	80004eba <fat_cluster_list+0x292>
80004ea8:	0b 99       	ld.ub	r9,r5[0x1]
80004eaa:	6c 18       	ld.w	r8,r6[0x4]
80004eac:	f2 08 00 08 	add	r8,r9,r8
80004eb0:	8d 18       	st.w	r6[0x4],r8
80004eb2:	6e 18       	ld.w	r8,r7[0x4]
80004eb4:	8f 08       	st.w	r7[0x0],r8
80004eb6:	c2 eb       	rjmp	80004d12 <fat_cluster_list+0xea>
80004eb8:	30 0c       	mov	r12,0
80004eba:	2f ed       	sub	sp,-8
80004ebc:	d8 32       	popm	r0-r7,pc
80004ebe:	00 00       	add	r0,r0
80004ec0:	00 00       	add	r0,r0
80004ec2:	07 3c       	ld.ub	r12,r3++
80004ec4:	00 00       	add	r0,r0
80004ec6:	07 38       	ld.ub	r8,r3++
80004ec8:	80 00       	ld.sh	r0,r0[0x0]
80004eca:	56 0c       	stdsp	sp[0x180],r12
80004ecc:	00 00       	add	r0,r0
80004ece:	07 94       	ld.ub	r4,r3[0x1]
80004ed0:	00 00       	add	r0,r0
80004ed2:	06 ec       	st.h	--r3,r12
80004ed4:	00 00       	add	r0,r0
80004ed6:	07 8c       	ld.ub	r12,r3[0x0]
80004ed8:	80 00       	ld.sh	r0,r0[0x0]
80004eda:	41 68       	lddsp	r8,sp[0x58]
80004edc:	80 00       	ld.sh	r0,r0[0x0]
80004ede:	40 38       	lddsp	r8,sp[0xc]
80004ee0:	80 00       	ld.sh	r0,r0[0x0]
80004ee2:	52 50       	stdsp	sp[0x94],r0
80004ee4:	80 00       	ld.sh	r0,r0[0x0]
80004ee6:	41 10       	lddsp	r0,sp[0x44]
80004ee8:	80 00       	ld.sh	r0,r0[0x0]
80004eea:	49 e4       	lddpc	r4,80004f60 <fat_read_dir+0x60>
80004eec:	80 00       	ld.sh	r0,r0[0x0]
80004eee:	49 50       	lddpc	r0,80004f40 <fat_read_dir+0x40>
80004ef0:	80 00       	ld.sh	r0,r0[0x0]
80004ef2:	3f d8       	mov	r8,-3
80004ef4:	00 00       	add	r0,r0
80004ef6:	07 3e       	ld.ub	lr,r3++
80004ef8:	00 00       	add	r0,r0
80004efa:	04 c0       	st.b	r2++,r0
80004efc:	80 00       	ld.sh	r0,r0[0x0]
80004efe:	52 dc       	stdsp	sp[0xb4],r12

80004f00 <fat_read_dir>:
80004f00:	eb cd 40 80 	pushm	r7,lr
80004f04:	49 98       	lddpc	r8,80004f68 <fat_read_dir+0x68>
80004f06:	90 97       	ld.uh	r7,r8[0x2]
80004f08:	a5 87       	lsr	r7,0x4
80004f0a:	49 98       	lddpc	r8,80004f6c <fat_read_dir+0x6c>
80004f0c:	11 89       	ld.ub	r9,r8[0x0]
80004f0e:	49 98       	lddpc	r8,80004f70 <fat_read_dir+0x70>
80004f10:	11 88       	ld.ub	r8,r8[0x0]
80004f12:	f0 09 18 00 	cp.b	r9,r8
80004f16:	c0 d1       	brne	80004f30 <fat_read_dir+0x30>
80004f18:	49 58       	lddpc	r8,80004f6c <fat_read_dir+0x6c>
80004f1a:	70 39       	ld.w	r9,r8[0xc]
80004f1c:	49 58       	lddpc	r8,80004f70 <fat_read_dir+0x70>
80004f1e:	70 88       	ld.w	r8,r8[0x20]
80004f20:	10 39       	cp.w	r9,r8
80004f22:	c0 71       	brne	80004f30 <fat_read_dir+0x30>
80004f24:	49 28       	lddpc	r8,80004f6c <fat_read_dir+0x6c>
80004f26:	70 48       	ld.w	r8,r8[0x10]
80004f28:	0e 38       	cp.w	r8,r7
80004f2a:	c0 31       	brne	80004f30 <fat_read_dir+0x30>
80004f2c:	e3 cf 90 80 	ldm	sp++,r7,pc,r12=1
80004f30:	49 18       	lddpc	r8,80004f74 <fat_read_dir+0x74>
80004f32:	49 09       	lddpc	r9,80004f70 <fat_read_dir+0x70>
80004f34:	72 89       	ld.w	r9,r9[0x20]
80004f36:	91 09       	st.w	r8[0x0],r9
80004f38:	91 17       	st.w	r8[0x4],r7
80004f3a:	30 0b       	mov	r11,0
80004f3c:	30 2c       	mov	r12,2
80004f3e:	f0 1f 00 0f 	mcall	80004f78 <fat_read_dir+0x78>
80004f42:	c1 00       	breq	80004f62 <fat_read_dir+0x62>
80004f44:	48 c8       	lddpc	r8,80004f74 <fat_read_dir+0x74>
80004f46:	70 09       	ld.w	r9,r8[0x0]
80004f48:	48 d8       	lddpc	r8,80004f7c <fat_read_dir+0x7c>
80004f4a:	91 09       	st.w	r8[0x0],r9
80004f4c:	30 1c       	mov	r12,1
80004f4e:	f0 1f 00 0d 	mcall	80004f80 <fat_read_dir+0x80>
80004f52:	c0 80       	breq	80004f62 <fat_read_dir+0x62>
80004f54:	48 68       	lddpc	r8,80004f6c <fat_read_dir+0x6c>
80004f56:	48 79       	lddpc	r9,80004f70 <fat_read_dir+0x70>
80004f58:	72 89       	ld.w	r9,r9[0x20]
80004f5a:	91 39       	st.w	r8[0xc],r9
80004f5c:	91 47       	st.w	r8[0x10],r7
80004f5e:	e3 cf 90 80 	ldm	sp++,r7,pc,r12=1
80004f62:	e3 cf 80 80 	ldm	sp++,r7,pc,r12=0
80004f66:	00 00       	add	r0,r0
80004f68:	00 00       	add	r0,r0
80004f6a:	07 38       	ld.ub	r8,r3++
80004f6c:	00 00       	add	r0,r0
80004f6e:	07 74       	ld.ub	r4,--r3
80004f70:	00 00       	add	r0,r0
80004f72:	06 ec       	st.h	--r3,r12
80004f74:	00 00       	add	r0,r0
80004f76:	07 94       	ld.ub	r4,r3[0x1]
80004f78:	80 00       	ld.sh	r0,r0[0x0]
80004f7a:	4c 28       	lddpc	r8,80005080 <fat_check_device+0x20>
80004f7c:	00 00       	add	r0,r0
80004f7e:	04 a8       	st.w	r2++,r8
80004f80:	80 00       	ld.sh	r0,r0[0x0]
80004f82:	48 d0       	lddpc	r0,80004fb4 <fat_read_file+0x30>

80004f84 <fat_read_file>:
80004f84:	eb cd 40 c0 	pushm	r6-r7,lr
80004f88:	18 97       	mov	r7,r12
80004f8a:	4a e8       	lddpc	r8,80005040 <fat_read_file+0xbc>
80004f8c:	70 38       	ld.w	r8,r8[0xc]
80004f8e:	f0 06 16 09 	lsr	r6,r8,0x9
80004f92:	30 29       	mov	r9,2
80004f94:	f2 0c 18 00 	cp.b	r12,r9
80004f98:	c1 31       	brne	80004fbe <fat_read_file+0x3a>
80004f9a:	4a b8       	lddpc	r8,80005044 <fat_read_file+0xc0>
80004f9c:	11 89       	ld.ub	r9,r8[0x0]
80004f9e:	4a b8       	lddpc	r8,80005048 <fat_read_file+0xc4>
80004fa0:	11 88       	ld.ub	r8,r8[0x0]
80004fa2:	f0 09 18 00 	cp.b	r9,r8
80004fa6:	c1 91       	brne	80004fd8 <fat_read_file+0x54>
80004fa8:	4a 78       	lddpc	r8,80005044 <fat_read_file+0xc0>
80004faa:	70 39       	ld.w	r9,r8[0xc]
80004fac:	4a 58       	lddpc	r8,80005040 <fat_read_file+0xbc>
80004fae:	70 18       	ld.w	r8,r8[0x4]
80004fb0:	10 39       	cp.w	r9,r8
80004fb2:	c1 31       	brne	80004fd8 <fat_read_file+0x54>
80004fb4:	4a 48       	lddpc	r8,80005044 <fat_read_file+0xc0>
80004fb6:	70 48       	ld.w	r8,r8[0x10]
80004fb8:	0c 38       	cp.w	r8,r6
80004fba:	c0 f1       	brne	80004fd8 <fat_read_file+0x54>
80004fbc:	c3 38       	rjmp	80005022 <fat_read_file+0x9e>
80004fbe:	30 39       	mov	r9,3
80004fc0:	f2 0c 18 00 	cp.b	r12,r9
80004fc4:	c3 31       	brne	8000502a <fat_read_file+0xa6>
80004fc6:	49 f9       	lddpc	r9,80005040 <fat_read_file+0xbc>
80004fc8:	72 19       	ld.w	r9,r9[0x4]
80004fca:	58 09       	cp.w	r9,0
80004fcc:	c2 b0       	breq	80005022 <fat_read_file+0x9e>
80004fce:	f1 d8 c0 09 	bfextu	r8,r8,0x0,0x9
80004fd2:	c2 c0       	breq	8000502a <fat_read_file+0xa6>
80004fd4:	2f f6       	sub	r6,-1
80004fd6:	c2 a8       	rjmp	8000502a <fat_read_file+0xa6>
80004fd8:	49 d8       	lddpc	r8,8000504c <fat_read_file+0xc8>
80004fda:	49 a9       	lddpc	r9,80005040 <fat_read_file+0xbc>
80004fdc:	72 19       	ld.w	r9,r9[0x4]
80004fde:	91 09       	st.w	r8[0x0],r9
80004fe0:	91 16       	st.w	r8[0x4],r6
80004fe2:	30 1b       	mov	r11,1
80004fe4:	16 9c       	mov	r12,r11
80004fe6:	f0 1f 00 1b 	mcall	80005050 <fat_read_file+0xcc>
80004fea:	c1 e0       	breq	80005026 <fat_read_file+0xa2>
80004fec:	49 88       	lddpc	r8,8000504c <fat_read_file+0xc8>
80004fee:	70 09       	ld.w	r9,r8[0x0]
80004ff0:	49 98       	lddpc	r8,80005054 <fat_read_file+0xd0>
80004ff2:	91 09       	st.w	r8[0x0],r9
80004ff4:	30 1c       	mov	r12,1
80004ff6:	f0 1f 00 19 	mcall	80005058 <fat_read_file+0xd4>
80004ffa:	c1 60       	breq	80005026 <fat_read_file+0xa2>
80004ffc:	49 28       	lddpc	r8,80005044 <fat_read_file+0xc0>
80004ffe:	49 19       	lddpc	r9,80005040 <fat_read_file+0xbc>
80005000:	72 19       	ld.w	r9,r9[0x4]
80005002:	91 39       	st.w	r8[0xc],r9
80005004:	91 46       	st.w	r8[0x10],r6
80005006:	e3 cf 90 c0 	ldm	sp++,r6-r7,pc,r12=1
8000500a:	30 38       	mov	r8,3
8000500c:	f0 07 18 00 	cp.b	r7,r8
80005010:	c0 b1       	brne	80005026 <fat_read_file+0xa2>
80005012:	49 38       	lddpc	r8,8000505c <fat_read_file+0xd8>
80005014:	11 89       	ld.ub	r9,r8[0x0]
80005016:	31 a8       	mov	r8,26
80005018:	f0 09 18 00 	cp.b	r9,r8
8000501c:	5f 0c       	sreq	r12
8000501e:	e3 cd 80 c0 	ldm	sp++,r6-r7,pc
80005022:	e3 cf 90 c0 	ldm	sp++,r6-r7,pc,r12=1
80005026:	e3 cf 80 c0 	ldm	sp++,r6-r7,pc,r12=0
8000502a:	48 98       	lddpc	r8,8000504c <fat_read_file+0xc8>
8000502c:	48 59       	lddpc	r9,80005040 <fat_read_file+0xbc>
8000502e:	72 19       	ld.w	r9,r9[0x4]
80005030:	91 09       	st.w	r8[0x0],r9
80005032:	91 16       	st.w	r8[0x4],r6
80005034:	30 1b       	mov	r11,1
80005036:	0e 9c       	mov	r12,r7
80005038:	f0 1f 00 06 	mcall	80005050 <fat_read_file+0xcc>
8000503c:	ce 70       	breq	8000500a <fat_read_file+0x86>
8000503e:	cf 2b       	rjmp	80005022 <fat_read_file+0x9e>
80005040:	00 00       	add	r0,r0
80005042:	04 ac       	st.w	r2++,r12
80005044:	00 00       	add	r0,r0
80005046:	07 74       	ld.ub	r4,--r3
80005048:	00 00       	add	r0,r0
8000504a:	06 ec       	st.h	--r3,r12
8000504c:	00 00       	add	r0,r0
8000504e:	07 94       	ld.ub	r4,r3[0x1]
80005050:	80 00       	ld.sh	r0,r0[0x0]
80005052:	4c 28       	lddpc	r8,80005158 <fat_check_mount+0x4>
80005054:	00 00       	add	r0,r0
80005056:	04 a8       	st.w	r2++,r8
80005058:	80 00       	ld.sh	r0,r0[0x0]
8000505a:	48 d0       	lddpc	r0,8000508c <fat_check_device+0x2c>
8000505c:	00 00       	add	r0,r0
8000505e:	07 3c       	ld.ub	r12,r3++

80005060 <fat_check_device>:
80005060:	d4 31       	pushm	r0-r7,lr
80005062:	4a 28       	lddpc	r8,800050e8 <fat_check_device+0x88>
80005064:	11 89       	ld.ub	r9,r8[0x0]
80005066:	30 08       	mov	r8,0
80005068:	f0 09 18 00 	cp.b	r9,r8
8000506c:	c3 c1       	brne	800050e4 <fat_check_device+0x84>
8000506e:	4a 08       	lddpc	r8,800050ec <fat_check_device+0x8c>
80005070:	11 89       	ld.ub	r9,r8[0x0]
80005072:	3f f8       	mov	r8,-1
80005074:	f0 09 18 00 	cp.b	r9,r8
80005078:	c0 51       	brne	80005082 <fat_check_device+0x22>
8000507a:	30 19       	mov	r9,1
8000507c:	49 d8       	lddpc	r8,800050f0 <fat_check_device+0x90>
8000507e:	b0 89       	st.b	r8[0x0],r9
80005080:	d8 3a       	popm	r0-r7,pc,r12=0
80005082:	30 02       	mov	r2,0
80005084:	49 a5       	lddpc	r5,800050ec <fat_check_device+0x8c>
80005086:	49 c1       	lddpc	r1,800050f4 <fat_check_device+0x94>
80005088:	30 06       	mov	r6,0
8000508a:	49 c0       	lddpc	r0,800050f8 <fat_check_device+0x98>
8000508c:	49 c4       	lddpc	r4,800050fc <fat_check_device+0x9c>
8000508e:	49 d3       	lddpc	r3,80005100 <fat_check_device+0xa0>
80005090:	0b 8c       	ld.ub	r12,r5[0x0]
80005092:	f0 1f 00 1d 	mcall	80005104 <fat_check_device+0xa4>
80005096:	18 97       	mov	r7,r12
80005098:	c2 60       	breq	800050e4 <fat_check_device+0x84>
8000509a:	a2 86       	st.b	r1[0x0],r6
8000509c:	a0 86       	st.b	r0[0x0],r6
8000509e:	0b 88       	ld.ub	r8,r5[0x0]
800050a0:	09 89       	ld.ub	r9,r4[0x0]
800050a2:	f0 09 18 00 	cp.b	r9,r8
800050a6:	c0 51       	brne	800050b0 <fat_check_device+0x50>
800050a8:	49 89       	lddpc	r9,80005108 <fat_check_device+0xa8>
800050aa:	b2 86       	st.b	r9[0x0],r6
800050ac:	49 89       	lddpc	r9,8000510c <fat_check_device+0xac>
800050ae:	b2 86       	st.b	r9[0x0],r6
800050b0:	07 89       	ld.ub	r9,r3[0x0]
800050b2:	f0 09 18 00 	cp.b	r9,r8
800050b6:	c0 31       	brne	800050bc <fat_check_device+0x5c>
800050b8:	f0 1f 00 16 	mcall	80005110 <fat_check_device+0xb0>
800050bc:	f0 1f 00 16 	mcall	80005114 <fat_check_device+0xb4>
800050c0:	30 18       	mov	r8,1
800050c2:	48 c9       	lddpc	r9,800050f0 <fat_check_device+0x90>
800050c4:	b2 88       	st.b	r9[0x0],r8
800050c6:	58 37       	cp.w	r7,3
800050c8:	c0 81       	brne	800050d8 <fat_check_device+0x78>
800050ca:	10 02       	add	r2,r8
800050cc:	5c 52       	castu.b	r2
800050ce:	36 48       	mov	r8,100
800050d0:	f0 02 18 00 	cp.b	r2,r8
800050d4:	cd e1       	brne	80005090 <fat_check_device+0x30>
800050d6:	c0 88       	rjmp	800050e6 <fat_check_device+0x86>
800050d8:	58 27       	cp.w	r7,2
800050da:	c0 61       	brne	800050e6 <fat_check_device+0x86>
800050dc:	31 89       	mov	r9,24
800050de:	48 58       	lddpc	r8,800050f0 <fat_check_device+0x90>
800050e0:	b0 89       	st.b	r8[0x0],r9
800050e2:	d8 3a       	popm	r0-r7,pc,r12=0
800050e4:	da 3a       	popm	r0-r7,pc,r12=1
800050e6:	d8 3a       	popm	r0-r7,pc,r12=0
800050e8:	00 00       	add	r0,r0
800050ea:	04 be       	st.h	r2++,lr
800050ec:	00 00       	add	r0,r0
800050ee:	06 ec       	st.h	--r3,r12
800050f0:	00 00       	add	r0,r0
800050f2:	07 3c       	ld.ub	r12,r3++
800050f4:	00 00       	add	r0,r0
800050f6:	07 38       	ld.ub	r8,r3++
800050f8:	00 00       	add	r0,r0
800050fa:	04 ac       	st.w	r2++,r12
800050fc:	00 00       	add	r0,r0
800050fe:	07 40       	ld.w	r0,--r3
80005100:	00 00       	add	r0,r0
80005102:	07 74       	ld.ub	r4,--r3
80005104:	80 00       	ld.sh	r0,r0[0x0]
80005106:	6d 14       	ld.w	r4,r6[0x44]
80005108:	00 00       	add	r0,r0
8000510a:	07 34       	ld.ub	r4,r3++
8000510c:	00 00       	add	r0,r0
8000510e:	07 24       	ld.uh	r4,r3++
80005110:	80 00       	ld.sh	r0,r0[0x0]
80005112:	46 98       	lddsp	r8,sp[0x1a4]
80005114:	80 00       	ld.sh	r0,r0[0x0]
80005116:	40 38       	lddsp	r8,sp[0xc]

80005118 <fat_check_noopen>:
80005118:	d4 01       	pushm	lr
8000511a:	f0 1f 00 0b 	mcall	80005144 <fat_check_noopen+0x2c>
8000511e:	c1 10       	breq	80005140 <fat_check_noopen+0x28>
80005120:	48 a8       	lddpc	r8,80005148 <fat_check_noopen+0x30>
80005122:	11 89       	ld.ub	r9,r8[0x0]
80005124:	30 08       	mov	r8,0
80005126:	f0 09 18 00 	cp.b	r9,r8
8000512a:	c0 b0       	breq	80005140 <fat_check_noopen+0x28>
8000512c:	48 88       	lddpc	r8,8000514c <fat_check_noopen+0x34>
8000512e:	11 89       	ld.ub	r9,r8[0x0]
80005130:	30 08       	mov	r8,0
80005132:	f0 09 18 00 	cp.b	r9,r8
80005136:	c0 50       	breq	80005140 <fat_check_noopen+0x28>
80005138:	30 59       	mov	r9,5
8000513a:	48 68       	lddpc	r8,80005150 <fat_check_noopen+0x38>
8000513c:	b0 89       	st.b	r8[0x0],r9
8000513e:	d8 0a       	popm	pc,r12=0
80005140:	da 0a       	popm	pc,r12=1
80005142:	00 00       	add	r0,r0
80005144:	80 00       	ld.sh	r0,r0[0x0]
80005146:	50 60       	stdsp	sp[0x18],r0
80005148:	00 00       	add	r0,r0
8000514a:	07 38       	ld.ub	r8,r3++
8000514c:	00 00       	add	r0,r0
8000514e:	04 ac       	st.w	r2++,r12
80005150:	00 00       	add	r0,r0
80005152:	07 3c       	ld.ub	r12,r3++

80005154 <fat_check_mount>:
80005154:	d4 01       	pushm	lr
80005156:	f0 1f 00 0a 	mcall	8000517c <fat_check_mount+0x28>
8000515a:	c0 f0       	breq	80005178 <fat_check_mount+0x24>
8000515c:	48 98       	lddpc	r8,80005180 <fat_check_mount+0x2c>
8000515e:	11 89       	ld.ub	r9,r8[0x0]
80005160:	30 08       	mov	r8,0
80005162:	f0 09 18 00 	cp.b	r9,r8
80005166:	c0 81       	brne	80005176 <fat_check_mount+0x22>
80005168:	f0 1f 00 07 	mcall	80005184 <fat_check_mount+0x30>
8000516c:	c0 51       	brne	80005176 <fat_check_mount+0x22>
8000516e:	30 e9       	mov	r9,14
80005170:	48 68       	lddpc	r8,80005188 <fat_check_mount+0x34>
80005172:	b0 89       	st.b	r8[0x0],r9
80005174:	d8 02       	popm	pc
80005176:	30 1c       	mov	r12,1
80005178:	d8 02       	popm	pc
8000517a:	00 00       	add	r0,r0
8000517c:	80 00       	ld.sh	r0,r0[0x0]
8000517e:	50 60       	stdsp	sp[0x18],r0
80005180:	00 00       	add	r0,r0
80005182:	07 38       	ld.ub	r8,r3++
80005184:	80 00       	ld.sh	r0,r0[0x0]
80005186:	5c 5c       	castu.b	r12
80005188:	00 00       	add	r0,r0
8000518a:	07 3c       	ld.ub	r12,r3++

8000518c <fat_check_mount_select>:
8000518c:	d4 01       	pushm	lr
8000518e:	f0 1f 00 04 	mcall	8000519c <fat_check_mount_select+0x10>
80005192:	c0 30       	breq	80005198 <fat_check_mount_select+0xc>
80005194:	f0 1f 00 03 	mcall	800051a0 <fat_check_mount_select+0x14>
80005198:	d8 02       	popm	pc
8000519a:	00 00       	add	r0,r0
8000519c:	80 00       	ld.sh	r0,r0[0x0]
8000519e:	51 54       	stdsp	sp[0x54],r4
800051a0:	80 00       	ld.sh	r0,r0[0x0]
800051a2:	3f 9c       	mov	r12,-7

800051a4 <fat_check_mount_select_open>:
800051a4:	d4 01       	pushm	lr
800051a6:	f0 1f 00 06 	mcall	800051bc <fat_check_mount_select_open+0x18>
800051aa:	c0 70       	breq	800051b8 <fat_check_mount_select_open+0x14>
800051ac:	f0 1f 00 05 	mcall	800051c0 <fat_check_mount_select_open+0x1c>
800051b0:	c0 40       	breq	800051b8 <fat_check_mount_select_open+0x14>
800051b2:	f0 1f 00 05 	mcall	800051c4 <fat_check_mount_select_open+0x20>
800051b6:	d8 02       	popm	pc
800051b8:	d8 0a       	popm	pc,r12=0
800051ba:	00 00       	add	r0,r0
800051bc:	80 00       	ld.sh	r0,r0[0x0]
800051be:	51 54       	stdsp	sp[0x54],r4
800051c0:	80 00       	ld.sh	r0,r0[0x0]
800051c2:	3f 9c       	mov	r12,-7
800051c4:	80 00       	ld.sh	r0,r0[0x0]
800051c6:	3f 7c       	mov	r12,-9

800051c8 <fat_check_mount_select_noopen>:
800051c8:	d4 01       	pushm	lr
800051ca:	f0 1f 00 06 	mcall	800051e0 <fat_check_mount_select_noopen+0x18>
800051ce:	c0 70       	breq	800051dc <fat_check_mount_select_noopen+0x14>
800051d0:	f0 1f 00 05 	mcall	800051e4 <fat_check_mount_select_noopen+0x1c>
800051d4:	c0 40       	breq	800051dc <fat_check_mount_select_noopen+0x14>
800051d6:	f0 1f 00 05 	mcall	800051e8 <fat_check_mount_select_noopen+0x20>
800051da:	d8 02       	popm	pc
800051dc:	d8 0a       	popm	pc,r12=0
800051de:	00 00       	add	r0,r0
800051e0:	80 00       	ld.sh	r0,r0[0x0]
800051e2:	51 54       	stdsp	sp[0x54],r4
800051e4:	80 00       	ld.sh	r0,r0[0x0]
800051e6:	3f 9c       	mov	r12,-7
800051e8:	80 00       	ld.sh	r0,r0[0x0]
800051ea:	51 18       	stdsp	sp[0x44],r8

800051ec <fat_check_mount_noopen>:
800051ec:	d4 01       	pushm	lr
800051ee:	f0 1f 00 04 	mcall	800051fc <fat_check_mount_noopen+0x10>
800051f2:	c0 30       	breq	800051f8 <fat_check_mount_noopen+0xc>
800051f4:	f0 1f 00 03 	mcall	80005200 <fat_check_mount_noopen+0x14>
800051f8:	d8 02       	popm	pc
800051fa:	00 00       	add	r0,r0
800051fc:	80 00       	ld.sh	r0,r0[0x0]
800051fe:	51 54       	stdsp	sp[0x54],r4
80005200:	80 00       	ld.sh	r0,r0[0x0]
80005202:	51 18       	stdsp	sp[0x44],r8

80005204 <fat_translate_char_shortname>:
80005204:	f8 c9 00 21 	sub	r9,r12,33
80005208:	35 d8       	mov	r8,93
8000520a:	f0 09 18 00 	cp.b	r9,r8
8000520e:	e0 8b 00 1d 	brhi	80005248 <fat_translate_char_shortname+0x44>
80005212:	f8 c9 00 61 	sub	r9,r12,97
80005216:	31 98       	mov	r8,25
80005218:	f0 09 18 00 	cp.b	r9,r8
8000521c:	e0 88 00 07 	brls	8000522a <fat_translate_char_shortname+0x26>
80005220:	32 b8       	mov	r8,43
80005222:	f0 0c 18 00 	cp.b	r12,r8
80005226:	c0 51       	brne	80005230 <fat_translate_char_shortname+0x2c>
80005228:	c1 08       	rjmp	80005248 <fat_translate_char_shortname+0x44>
8000522a:	22 0c       	sub	r12,32
8000522c:	5c 5c       	castu.b	r12
8000522e:	5e fc       	retal	r12
80005230:	48 7a       	lddpc	r10,8000524c <fat_translate_char_shortname+0x48>
80005232:	f4 c8 ff ff 	sub	r8,r10,-1
80005236:	2f 9a       	sub	r10,-7
80005238:	11 89       	ld.ub	r9,r8[0x0]
8000523a:	f8 09 18 00 	cp.b	r9,r12
8000523e:	c0 50       	breq	80005248 <fat_translate_char_shortname+0x44>
80005240:	2f f8       	sub	r8,-1
80005242:	14 38       	cp.w	r8,r10
80005244:	cf a1       	brne	80005238 <fat_translate_char_shortname+0x34>
80005246:	5e fc       	retal	r12
80005248:	5e fd       	retal	0
8000524a:	00 00       	add	r0,r0
8000524c:	80 00       	ld.sh	r0,r0[0x0]
8000524e:	80 dc       	ld.uh	r12,r0[0xa]

80005250 <fat_clear_info_fat_mod>:
80005250:	3f f9       	mov	r9,-1
80005252:	48 48       	lddpc	r8,80005260 <fat_clear_info_fat_mod+0x10>
80005254:	91 09       	st.w	r8[0x0],r9
80005256:	30 09       	mov	r9,0
80005258:	48 38       	lddpc	r8,80005264 <fat_clear_info_fat_mod+0x14>
8000525a:	91 09       	st.w	r8[0x0],r9
8000525c:	5e fc       	retal	r12
8000525e:	00 00       	add	r0,r0
80005260:	00 00       	add	r0,r0
80005262:	07 20       	ld.uh	r0,r3++
80005264:	00 00       	add	r0,r0
80005266:	04 e8       	st.h	--r2,r8

80005268 <fat_clear_cluster>:
80005268:	d4 21       	pushm	r4-r7,lr
8000526a:	30 0b       	mov	r11,0
8000526c:	49 58       	lddpc	r8,800052c0 <fat_clear_cluster+0x58>
8000526e:	91 1b       	st.w	r8[0x4],r11
80005270:	30 2c       	mov	r12,2
80005272:	f0 1f 00 15 	mcall	800052c4 <fat_clear_cluster+0x5c>
80005276:	c2 30       	breq	800052bc <fat_clear_cluster+0x54>
80005278:	49 48       	lddpc	r8,800052c8 <fat_clear_cluster+0x60>
8000527a:	11 98       	ld.ub	r8,r8[0x1]
8000527c:	49 19       	lddpc	r9,800052c0 <fat_clear_cluster+0x58>
8000527e:	72 0a       	ld.w	r10,r9[0x0]
80005280:	20 1a       	sub	r10,1
80005282:	10 0a       	add	r10,r8
80005284:	49 29       	lddpc	r9,800052cc <fat_clear_cluster+0x64>
80005286:	93 0a       	st.w	r9[0x0],r10
80005288:	58 08       	cp.w	r8,0
8000528a:	c1 a0       	breq	800052be <fat_clear_cluster+0x56>
8000528c:	30 07       	mov	r7,0
8000528e:	0e 94       	mov	r4,r7
80005290:	12 96       	mov	r6,r9
80005292:	48 e5       	lddpc	r5,800052c8 <fat_clear_cluster+0x60>
80005294:	08 9c       	mov	r12,r4
80005296:	f0 1f 00 0f 	mcall	800052d0 <fat_clear_cluster+0x68>
8000529a:	c1 10       	breq	800052bc <fat_clear_cluster+0x54>
8000529c:	58 07       	cp.w	r7,0
8000529e:	c0 31       	brne	800052a4 <fat_clear_cluster+0x3c>
800052a0:	f0 1f 00 0d 	mcall	800052d4 <fat_clear_cluster+0x6c>
800052a4:	f0 1f 00 0d 	mcall	800052d8 <fat_clear_cluster+0x70>
800052a8:	6c 08       	ld.w	r8,r6[0x0]
800052aa:	20 18       	sub	r8,1
800052ac:	8d 08       	st.w	r6[0x0],r8
800052ae:	2f f7       	sub	r7,-1
800052b0:	5c 57       	castu.b	r7
800052b2:	0b 98       	ld.ub	r8,r5[0x1]
800052b4:	ee 08 18 00 	cp.b	r8,r7
800052b8:	ce e1       	brne	80005294 <fat_clear_cluster+0x2c>
800052ba:	c0 28       	rjmp	800052be <fat_clear_cluster+0x56>
800052bc:	d8 2a       	popm	r4-r7,pc,r12=0
800052be:	da 2a       	popm	r4-r7,pc,r12=1
800052c0:	00 00       	add	r0,r0
800052c2:	07 94       	ld.ub	r4,r3[0x1]
800052c4:	80 00       	ld.sh	r0,r0[0x0]
800052c6:	4c 28       	lddpc	r8,800053cc <fat_initialize_dir+0x7c>
800052c8:	00 00       	add	r0,r0
800052ca:	06 ec       	st.h	--r3,r12
800052cc:	00 00       	add	r0,r0
800052ce:	04 a8       	st.w	r2++,r8
800052d0:	80 00       	ld.sh	r0,r0[0x0]
800052d2:	48 d0       	lddpc	r0,80005304 <fat_update_fat2+0x28>
800052d4:	80 00       	ld.sh	r0,r0[0x0]
800052d6:	48 b8       	lddpc	r8,80005300 <fat_update_fat2+0x24>
800052d8:	80 00       	ld.sh	r0,r0[0x0]
800052da:	46 b0       	lddsp	r0,sp[0x1ac]

800052dc <fat_update_fat2>:
800052dc:	eb cd 40 fc 	pushm	r2-r7,lr
800052e0:	49 68       	lddpc	r8,80005338 <fat_update_fat2+0x5c>
800052e2:	70 08       	ld.w	r8,r8[0x0]
800052e4:	49 69       	lddpc	r9,8000533c <fat_update_fat2+0x60>
800052e6:	72 09       	ld.w	r9,r9[0x0]
800052e8:	12 38       	cp.w	r8,r9
800052ea:	e0 8b 00 25 	brhi	80005334 <fat_update_fat2+0x58>
800052ee:	49 55       	lddpc	r5,80005340 <fat_update_fat2+0x64>
800052f0:	49 57       	lddpc	r7,80005344 <fat_update_fat2+0x68>
800052f2:	30 13       	mov	r3,1
800052f4:	49 16       	lddpc	r6,80005338 <fat_update_fat2+0x5c>
800052f6:	30 02       	mov	r2,0
800052f8:	49 14       	lddpc	r4,8000533c <fat_update_fat2+0x60>
800052fa:	6e 49       	ld.w	r9,r7[0x10]
800052fc:	12 08       	add	r8,r9
800052fe:	8b 08       	st.w	r5[0x0],r8
80005300:	06 9c       	mov	r12,r3
80005302:	f0 1f 00 12 	mcall	80005348 <fat_update_fat2+0x6c>
80005306:	c1 50       	breq	80005330 <fat_update_fat2+0x54>
80005308:	6e 19       	ld.w	r9,r7[0x4]
8000530a:	6e 48       	ld.w	r8,r7[0x10]
8000530c:	f2 08 00 08 	add	r8,r9,r8
80005310:	6c 09       	ld.w	r9,r6[0x0]
80005312:	12 08       	add	r8,r9
80005314:	8b 08       	st.w	r5[0x0],r8
80005316:	04 9c       	mov	r12,r2
80005318:	f0 1f 00 0c 	mcall	80005348 <fat_update_fat2+0x6c>
8000531c:	c0 a0       	breq	80005330 <fat_update_fat2+0x54>
8000531e:	f0 1f 00 0c 	mcall	8000534c <fat_update_fat2+0x70>
80005322:	6c 08       	ld.w	r8,r6[0x0]
80005324:	2f f8       	sub	r8,-1
80005326:	8d 08       	st.w	r6[0x0],r8
80005328:	68 09       	ld.w	r9,r4[0x0]
8000532a:	10 39       	cp.w	r9,r8
8000532c:	ce 72       	brcc	800052fa <fat_update_fat2+0x1e>
8000532e:	c0 38       	rjmp	80005334 <fat_update_fat2+0x58>
80005330:	e3 cf 80 fc 	ldm	sp++,r2-r7,pc,r12=0
80005334:	e3 cf 90 fc 	ldm	sp++,r2-r7,pc,r12=1
80005338:	00 00       	add	r0,r0
8000533a:	07 20       	ld.uh	r0,r3++
8000533c:	00 00       	add	r0,r0
8000533e:	04 e8       	st.h	--r2,r8
80005340:	00 00       	add	r0,r0
80005342:	04 a8       	st.w	r2++,r8
80005344:	00 00       	add	r0,r0
80005346:	06 ec       	st.h	--r3,r12
80005348:	80 00       	ld.sh	r0,r0[0x0]
8000534a:	48 d0       	lddpc	r0,8000537c <fat_initialize_dir+0x2c>
8000534c:	80 00       	ld.sh	r0,r0[0x0]
8000534e:	46 b0       	lddsp	r0,sp[0x1ac]

80005350 <fat_initialize_dir>:
80005350:	d4 01       	pushm	lr
80005352:	f0 1f 00 21 	mcall	800053d4 <fat_initialize_dir+0x84>
80005356:	c3 e0       	breq	800053d2 <fat_initialize_dir+0x82>
80005358:	f0 1f 00 20 	mcall	800053d8 <fat_initialize_dir+0x88>
8000535c:	4a 0b       	lddpc	r11,800053dc <fat_initialize_dir+0x8c>
8000535e:	16 98       	mov	r8,r11
80005360:	32 e9       	mov	r9,46
80005362:	10 c9       	st.b	r8++,r9
80005364:	f6 ca ff f5 	sub	r10,r11,-11
80005368:	32 09       	mov	r9,32
8000536a:	10 c9       	st.b	r8++,r9
8000536c:	14 38       	cp.w	r8,r10
8000536e:	cf e1       	brne	8000536a <fat_initialize_dir+0x1a>
80005370:	49 b8       	lddpc	r8,800053dc <fat_initialize_dir+0x8c>
80005372:	31 09       	mov	r9,16
80005374:	f1 69 00 0b 	st.b	r8[11],r9
80005378:	49 a9       	lddpc	r9,800053e0 <fat_initialize_dir+0x90>
8000537a:	2f c9       	sub	r9,-4
8000537c:	13 ba       	ld.ub	r10,r9[0x3]
8000537e:	f1 6a 00 1a 	st.b	r8[26],r10
80005382:	13 aa       	ld.ub	r10,r9[0x2]
80005384:	f1 6a 00 1b 	st.b	r8[27],r10
80005388:	13 9a       	ld.ub	r10,r9[0x1]
8000538a:	f1 6a 00 14 	st.b	r8[20],r10
8000538e:	13 89       	ld.ub	r9,r9[0x0]
80005390:	f1 69 00 15 	st.b	r8[21],r9
80005394:	32 e9       	mov	r9,46
80005396:	f1 69 00 20 	st.b	r8[32],r9
8000539a:	f1 69 00 21 	st.b	r8[33],r9
8000539e:	2d e8       	sub	r8,-34
800053a0:	f6 ca ff d5 	sub	r10,r11,-43
800053a4:	32 09       	mov	r9,32
800053a6:	10 c9       	st.b	r8++,r9
800053a8:	14 38       	cp.w	r8,r10
800053aa:	cf e1       	brne	800053a6 <fat_initialize_dir+0x56>
800053ac:	48 c8       	lddpc	r8,800053dc <fat_initialize_dir+0x8c>
800053ae:	31 09       	mov	r9,16
800053b0:	f1 69 00 2b 	st.b	r8[43],r9
800053b4:	48 c9       	lddpc	r9,800053e4 <fat_initialize_dir+0x94>
800053b6:	2e 09       	sub	r9,-32
800053b8:	13 ba       	ld.ub	r10,r9[0x3]
800053ba:	f1 6a 00 3a 	st.b	r8[58],r10
800053be:	13 aa       	ld.ub	r10,r9[0x2]
800053c0:	f1 6a 00 3b 	st.b	r8[59],r10
800053c4:	13 9a       	ld.ub	r10,r9[0x1]
800053c6:	f1 6a 00 34 	st.b	r8[52],r10
800053ca:	13 89       	ld.ub	r9,r9[0x0]
800053cc:	f1 69 00 35 	st.b	r8[53],r9
800053d0:	30 1c       	mov	r12,1
800053d2:	d8 02       	popm	pc
800053d4:	80 00       	ld.sh	r0,r0[0x0]
800053d6:	52 68       	stdsp	sp[0x98],r8
800053d8:	80 00       	ld.sh	r0,r0[0x0]
800053da:	46 b0       	lddsp	r0,sp[0x1ac]
800053dc:	00 00       	add	r0,r0
800053de:	04 ec       	st.h	--r2,r12
800053e0:	00 00       	add	r0,r0
800053e2:	04 ac       	st.w	r2++,r12
800053e4:	00 00       	add	r0,r0
800053e6:	06 ec       	st.h	--r3,r12

800053e8 <fat_create_long_name_entry>:
800053e8:	d4 31       	pushm	r0-r7,lr
800053ea:	20 5d       	sub	sp,20
800053ec:	18 97       	mov	r7,r12
800053ee:	50 3b       	stdsp	sp[0xc],r11
800053f0:	14 96       	mov	r6,r10
800053f2:	f0 1f 00 30 	mcall	800054b0 <fat_create_long_name_entry+0xc8>
800053f6:	f0 1f 00 30 	mcall	800054b4 <fat_create_long_name_entry+0xcc>
800053fa:	18 c6       	st.b	r12++,r6
800053fc:	30 01       	mov	r1,0
800053fe:	30 18       	mov	r8,1
80005400:	30 b9       	mov	r9,11
80005402:	30 f3       	mov	r3,15
80005404:	30 c6       	mov	r6,12
80005406:	31 ab       	mov	r11,26
80005408:	30 0a       	mov	r10,0
8000540a:	31 fe       	mov	lr,31
8000540c:	31 b5       	mov	r5,27
8000540e:	30 d2       	mov	r2,13
80005410:	50 01       	stdsp	sp[0x0],r1
80005412:	f2 08 18 00 	cp.b	r8,r9
80005416:	c0 31       	brne	8000541c <fat_create_long_name_entry+0x34>
80005418:	b8 83       	st.b	r12[0x0],r3
8000541a:	c4 58       	rjmp	800054a4 <fat_create_long_name_entry+0xbc>
8000541c:	ec 08 18 00 	cp.b	r8,r6
80005420:	5f 00       	sreq	r0
80005422:	f6 08 18 00 	cp.b	r8,r11
80005426:	5f 04       	sreq	r4
80005428:	08 40       	or	r0,r4
8000542a:	00 94       	mov	r4,r0
8000542c:	f4 00 18 00 	cp.b	r0,r10
80005430:	c3 21       	brne	80005494 <fat_create_long_name_entry+0xac>
80005432:	ea 08 18 00 	cp.b	r8,r5
80005436:	c3 70       	breq	800054a4 <fat_create_long_name_entry+0xbc>
80005438:	e4 08 18 00 	cp.b	r8,r2
8000543c:	c0 41       	brne	80005444 <fat_create_long_name_entry+0x5c>
8000543e:	40 34       	lddsp	r4,sp[0xc]
80005440:	b8 84       	st.b	r12[0x0],r4
80005442:	c3 18       	rjmp	800054a4 <fat_create_long_name_entry+0xbc>
80005444:	40 01       	lddsp	r1,sp[0x0]
80005446:	58 01       	cp.w	r1,0
80005448:	c2 41       	brne	80005490 <fat_create_long_name_entry+0xa8>
8000544a:	0f 84       	ld.ub	r4,r7[0x0]
8000544c:	fb 54 00 12 	st.h	sp[18],r4
80005450:	35 c1       	mov	r1,92
80005452:	e2 04 19 00 	cp.h	r4,r1
80005456:	5f 00       	sreq	r0
80005458:	50 20       	stdsp	sp[0x8],r0
8000545a:	32 f0       	mov	r0,47
8000545c:	e0 04 19 00 	cp.h	r4,r0
80005460:	5f 01       	sreq	r1
80005462:	40 20       	lddsp	r0,sp[0x8]
80005464:	02 40       	or	r0,r1
80005466:	f4 00 18 00 	cp.b	r0,r10
8000546a:	c0 50       	breq	80005474 <fat_create_long_name_entry+0x8c>
8000546c:	30 04       	mov	r4,0
8000546e:	fb 54 00 12 	st.h	sp[18],r4
80005472:	c0 38       	rjmp	80005478 <fat_create_long_name_entry+0x90>
80005474:	58 04       	cp.w	r4,0
80005476:	c0 31       	brne	8000547c <fat_create_long_name_entry+0x94>
80005478:	30 14       	mov	r4,1
8000547a:	50 04       	stdsp	sp[0x0],r4
8000547c:	fa c4 ff ee 	sub	r4,sp,-18
80005480:	09 90       	ld.ub	r0,r4[0x1]
80005482:	18 c0       	st.b	r12++,r0
80005484:	09 84       	ld.ub	r4,r4[0x0]
80005486:	b8 84       	st.b	r12[0x0],r4
80005488:	2f f8       	sub	r8,-1
8000548a:	5c 58       	castu.b	r8
8000548c:	2f f7       	sub	r7,-1
8000548e:	c0 38       	rjmp	80005494 <fat_create_long_name_entry+0xac>
80005490:	3f f1       	mov	r1,-1
80005492:	b8 81       	st.b	r12[0x0],r1
80005494:	2f f8       	sub	r8,-1
80005496:	5c 58       	castu.b	r8
80005498:	fc 08 18 00 	cp.b	r8,lr
8000549c:	e0 8b 00 08 	brhi	800054ac <fat_create_long_name_entry+0xc4>
800054a0:	2f fc       	sub	r12,-1
800054a2:	cb 8b       	rjmp	80005412 <fat_create_long_name_entry+0x2a>
800054a4:	2f f8       	sub	r8,-1
800054a6:	5c 58       	castu.b	r8
800054a8:	2f fc       	sub	r12,-1
800054aa:	cb 4b       	rjmp	80005412 <fat_create_long_name_entry+0x2a>
800054ac:	2f bd       	sub	sp,-20
800054ae:	d8 32       	popm	r0-r7,pc
800054b0:	80 00       	ld.sh	r0,r0[0x0]
800054b2:	46 b0       	lddsp	r0,sp[0x1ac]
800054b4:	80 00       	ld.sh	r0,r0[0x0]
800054b6:	43 08       	lddsp	r8,sp[0xc0]

800054b8 <fat_delete_file>:
800054b8:	d4 31       	pushm	r0-r7,lr
800054ba:	20 1d       	sub	sp,4
800054bc:	50 0c       	stdsp	sp[0x0],r12
800054be:	30 03       	mov	r3,0
800054c0:	30 f4       	mov	r4,15
800054c2:	30 05       	mov	r5,0
800054c4:	3e 52       	mov	r2,-27
800054c6:	49 a6       	lddpc	r6,8000552c <fat_delete_file+0x74>
800054c8:	30 10       	mov	r0,1
800054ca:	f0 1f 00 1a 	mcall	80005530 <fat_delete_file+0x78>
800054ce:	c2 d0       	breq	80005528 <fat_delete_file+0x70>
800054d0:	f0 1f 00 19 	mcall	80005534 <fat_delete_file+0x7c>
800054d4:	19 81       	ld.ub	r1,r12[0x0]
800054d6:	f8 c7 ff f5 	sub	r7,r12,-11
800054da:	0f 88       	ld.ub	r8,r7[0x0]
800054dc:	e8 08 18 00 	cp.b	r8,r4
800054e0:	5f 19       	srne	r9
800054e2:	ea 03 18 00 	cp.b	r3,r5
800054e6:	5f 18       	srne	r8
800054e8:	f3 e8 00 08 	and	r8,r9,r8
800054ec:	ea 08 18 00 	cp.b	r8,r5
800054f0:	c1 01       	brne	80005510 <fat_delete_file+0x58>
800054f2:	b8 82       	st.b	r12[0x0],r2
800054f4:	f0 1f 00 11 	mcall	80005538 <fat_delete_file+0x80>
800054f8:	0f 88       	ld.ub	r8,r7[0x0]
800054fa:	e8 08 18 00 	cp.b	r8,r4
800054fe:	c0 41       	brne	80005506 <fat_delete_file+0x4e>
80005500:	e2 11 00 40 	andl	r1,0x40,COH
80005504:	c0 61       	brne	80005510 <fat_delete_file+0x58>
80005506:	8c 18       	ld.sh	r8,r6[0x2]
80005508:	20 18       	sub	r8,1
8000550a:	ac 18       	st.h	r6[0x2],r8
8000550c:	00 93       	mov	r3,r0
8000550e:	cd eb       	rjmp	800054ca <fat_delete_file+0x12>
80005510:	40 08       	lddsp	r8,sp[0x0]
80005512:	58 08       	cp.w	r8,0
80005514:	c0 31       	brne	8000551a <fat_delete_file+0x62>
80005516:	30 1c       	mov	r12,1
80005518:	c0 88       	rjmp	80005528 <fat_delete_file+0x70>
8000551a:	30 09       	mov	r9,0
8000551c:	48 88       	lddpc	r8,8000553c <fat_delete_file+0x84>
8000551e:	91 39       	st.w	r8[0xc],r9
80005520:	30 3c       	mov	r12,3
80005522:	f0 1f 00 08 	mcall	80005540 <fat_delete_file+0x88>
80005526:	5f 1c       	srne	r12
80005528:	2f fd       	sub	sp,-4
8000552a:	d8 32       	popm	r0-r7,pc
8000552c:	00 00       	add	r0,r0
8000552e:	07 38       	ld.ub	r8,r3++
80005530:	80 00       	ld.sh	r0,r0[0x0]
80005532:	4f 00       	lddpc	r0,800056f0 <fat_allocfreespace+0x44>
80005534:	80 00       	ld.sh	r0,r0[0x0]
80005536:	43 08       	lddsp	r8,sp[0xc0]
80005538:	80 00       	ld.sh	r0,r0[0x0]
8000553a:	46 b0       	lddsp	r0,sp[0x1ac]
8000553c:	00 00       	add	r0,r0
8000553e:	04 ac       	st.w	r2++,r12
80005540:	80 00       	ld.sh	r0,r0[0x0]
80005542:	4f 84       	lddpc	r4,80005720 <fat_allocfreespace+0x74>

80005544 <fat_garbage_collector_entry>:
80005544:	eb cd 40 fc 	pushm	r2-r7,lr
80005548:	20 8d       	sub	sp,32
8000554a:	30 06       	mov	r6,0
8000554c:	0c 97       	mov	r7,r6
8000554e:	4a 95       	lddpc	r5,800055f0 <fat_garbage_collector_entry+0xac>
80005550:	3e 54       	mov	r4,-27
80005552:	1a 93       	mov	r3,sp
80005554:	32 02       	mov	r2,32
80005556:	aa 17       	st.h	r5[0x2],r7
80005558:	f0 1f 00 27 	mcall	800055f4 <fat_garbage_collector_entry+0xb0>
8000555c:	c0 81       	brne	8000556c <fat_garbage_collector_entry+0x28>
8000555e:	4a 78       	lddpc	r8,800055f8 <fat_garbage_collector_entry+0xb4>
80005560:	11 89       	ld.ub	r9,r8[0x0]
80005562:	31 a8       	mov	r8,26
80005564:	f0 09 18 00 	cp.b	r9,r8
80005568:	c3 d1       	brne	800055e2 <fat_garbage_collector_entry+0x9e>
8000556a:	c0 68       	rjmp	80005576 <fat_garbage_collector_entry+0x32>
8000556c:	f0 1f 00 24 	mcall	800055fc <fat_garbage_collector_entry+0xb8>
80005570:	19 88       	ld.ub	r8,r12[0x0]
80005572:	58 08       	cp.w	r8,0
80005574:	c1 b1       	brne	800055aa <fat_garbage_collector_entry+0x66>
80005576:	49 f8       	lddpc	r8,800055f0 <fat_garbage_collector_entry+0xac>
80005578:	b0 16       	st.h	r8[0x2],r6
8000557a:	ec 07 19 00 	cp.h	r7,r6
8000557e:	c3 40       	breq	800055e6 <fat_garbage_collector_entry+0xa2>
80005580:	32 05       	mov	r5,32
80005582:	30 04       	mov	r4,0
80005584:	49 b6       	lddpc	r6,800055f0 <fat_garbage_collector_entry+0xac>
80005586:	f0 1f 00 1c 	mcall	800055f4 <fat_garbage_collector_entry+0xb0>
8000558a:	c2 c0       	breq	800055e2 <fat_garbage_collector_entry+0x9e>
8000558c:	f0 1f 00 1c 	mcall	800055fc <fat_garbage_collector_entry+0xb8>
80005590:	0a 9a       	mov	r10,r5
80005592:	08 9b       	mov	r11,r4
80005594:	f0 1f 00 1b 	mcall	80005600 <fat_garbage_collector_entry+0xbc>
80005598:	f0 1f 00 1b 	mcall	80005604 <fat_garbage_collector_entry+0xc0>
8000559c:	8c 18       	ld.sh	r8,r6[0x2]
8000559e:	2f f8       	sub	r8,-1
800055a0:	ac 18       	st.h	r6[0x2],r8
800055a2:	f0 07 19 00 	cp.h	r7,r8
800055a6:	cf 01       	brne	80005586 <fat_garbage_collector_entry+0x42>
800055a8:	c1 f8       	rjmp	800055e6 <fat_garbage_collector_entry+0xa2>
800055aa:	e8 08 18 00 	cp.b	r8,r4
800055ae:	c1 70       	breq	800055dc <fat_garbage_collector_entry+0x98>
800055b0:	ec 07 19 00 	cp.h	r7,r6
800055b4:	c1 20       	breq	800055d8 <fat_garbage_collector_entry+0x94>
800055b6:	04 9a       	mov	r10,r2
800055b8:	18 9b       	mov	r11,r12
800055ba:	1a 9c       	mov	r12,sp
800055bc:	f0 1f 00 13 	mcall	80005608 <fat_garbage_collector_entry+0xc4>
800055c0:	aa 16       	st.h	r5[0x2],r6
800055c2:	f0 1f 00 0d 	mcall	800055f4 <fat_garbage_collector_entry+0xb0>
800055c6:	c0 e0       	breq	800055e2 <fat_garbage_collector_entry+0x9e>
800055c8:	f0 1f 00 0d 	mcall	800055fc <fat_garbage_collector_entry+0xb8>
800055cc:	04 9a       	mov	r10,r2
800055ce:	1a 9b       	mov	r11,sp
800055d0:	f0 1f 00 0e 	mcall	80005608 <fat_garbage_collector_entry+0xc4>
800055d4:	f0 1f 00 0c 	mcall	80005604 <fat_garbage_collector_entry+0xc0>
800055d8:	2f f6       	sub	r6,-1
800055da:	5c 86       	casts.h	r6
800055dc:	2f f7       	sub	r7,-1
800055de:	5c 87       	casts.h	r7
800055e0:	cb bb       	rjmp	80005556 <fat_garbage_collector_entry+0x12>
800055e2:	30 0c       	mov	r12,0
800055e4:	c0 28       	rjmp	800055e8 <fat_garbage_collector_entry+0xa4>
800055e6:	30 1c       	mov	r12,1
800055e8:	2f 8d       	sub	sp,-32
800055ea:	e3 cd 80 fc 	ldm	sp++,r2-r7,pc
800055ee:	00 00       	add	r0,r0
800055f0:	00 00       	add	r0,r0
800055f2:	07 38       	ld.ub	r8,r3++
800055f4:	80 00       	ld.sh	r0,r0[0x0]
800055f6:	4f 00       	lddpc	r0,800057b4 <fat_allocfreespace+0x108>
800055f8:	00 00       	add	r0,r0
800055fa:	07 3c       	ld.ub	r12,r3++
800055fc:	80 00       	ld.sh	r0,r0[0x0]
800055fe:	43 08       	lddsp	r8,sp[0xc0]
80005600:	80 00       	ld.sh	r0,r0[0x0]
80005602:	7d f2       	ld.w	r2,lr[0x7c]
80005604:	80 00       	ld.sh	r0,r0[0x0]
80005606:	46 b0       	lddsp	r0,sp[0x1ac]
80005608:	80 00       	ld.sh	r0,r0[0x0]
8000560a:	7c aa       	ld.w	r10,lr[0x28]

8000560c <fat_write_fat32_FSInfo>:
8000560c:	eb cd 40 c0 	pushm	r6-r7,lr
80005610:	20 1d       	sub	sp,4
80005612:	50 0c       	stdsp	sp[0x0],r12
80005614:	49 c8       	lddpc	r8,80005684 <fat_write_fat32_FSInfo+0x78>
80005616:	90 c9       	ld.uh	r9,r8[0x8]
80005618:	70 4a       	ld.w	r10,r8[0x10]
8000561a:	49 c8       	lddpc	r8,80005688 <fat_write_fat32_FSInfo+0x7c>
8000561c:	12 1a       	sub	r10,r9
8000561e:	91 0a       	st.w	r8[0x0],r10
80005620:	30 0c       	mov	r12,0
80005622:	f0 1f 00 1b 	mcall	8000568c <fat_write_fat32_FSInfo+0x80>
80005626:	c2 c0       	breq	8000567e <fat_write_fat32_FSInfo+0x72>
80005628:	f0 1f 00 1a 	mcall	80005690 <fat_write_fat32_FSInfo+0x84>
8000562c:	f0 1f 00 1a 	mcall	80005694 <fat_write_fat32_FSInfo+0x88>
80005630:	49 a7       	lddpc	r7,80005698 <fat_write_fat32_FSInfo+0x8c>
80005632:	30 46       	mov	r6,4
80005634:	0c 9a       	mov	r10,r6
80005636:	49 ab       	lddpc	r11,8000569c <fat_write_fat32_FSInfo+0x90>
80005638:	0e 9c       	mov	r12,r7
8000563a:	f0 1f 00 1a 	mcall	800056a0 <fat_write_fat32_FSInfo+0x94>
8000563e:	0c 9a       	mov	r10,r6
80005640:	49 9b       	lddpc	r11,800056a4 <fat_write_fat32_FSInfo+0x98>
80005642:	ee cc fe 1c 	sub	r12,r7,-484
80005646:	f0 1f 00 17 	mcall	800056a0 <fat_write_fat32_FSInfo+0x94>
8000564a:	1b b9       	ld.ub	r9,sp[0x3]
8000564c:	ef 69 01 e8 	st.b	r7[488],r9
80005650:	1b a9       	ld.ub	r9,sp[0x2]
80005652:	ef 69 01 e9 	st.b	r7[489],r9
80005656:	1b 99       	ld.ub	r9,sp[0x1]
80005658:	ef 69 01 ea 	st.b	r7[490],r9
8000565c:	1b 88       	ld.ub	r8,sp[0x0]
8000565e:	ef 68 01 eb 	st.b	r7[491],r8
80005662:	0c 9a       	mov	r10,r6
80005664:	e0 6b 00 ff 	mov	r11,255
80005668:	ee cc fe 14 	sub	r12,r7,-492
8000566c:	f0 1f 00 0f 	mcall	800056a8 <fat_write_fat32_FSInfo+0x9c>
80005670:	35 58       	mov	r8,85
80005672:	ef 68 01 fe 	st.b	r7[510],r8
80005676:	3a a8       	mov	r8,-86
80005678:	ef 68 01 ff 	st.b	r7[511],r8
8000567c:	30 1c       	mov	r12,1
8000567e:	2f fd       	sub	sp,-4
80005680:	e3 cd 80 c0 	ldm	sp++,r6-r7,pc
80005684:	00 00       	add	r0,r0
80005686:	06 ec       	st.h	--r3,r12
80005688:	00 00       	add	r0,r0
8000568a:	04 a8       	st.w	r2++,r8
8000568c:	80 00       	ld.sh	r0,r0[0x0]
8000568e:	48 d0       	lddpc	r0,800056c0 <fat_allocfreespace+0x14>
80005690:	80 00       	ld.sh	r0,r0[0x0]
80005692:	46 b0       	lddsp	r0,sp[0x1ac]
80005694:	80 00       	ld.sh	r0,r0[0x0]
80005696:	48 b8       	lddpc	r8,800056c0 <fat_allocfreespace+0x14>
80005698:	00 00       	add	r0,r0
8000569a:	04 ec       	st.h	--r2,r12
8000569c:	80 00       	ld.sh	r0,r0[0x0]
8000569e:	80 d0       	ld.uh	r0,r0[0xa]
800056a0:	80 00       	ld.sh	r0,r0[0x0]
800056a2:	7c aa       	ld.w	r10,lr[0x28]
800056a4:	80 00       	ld.sh	r0,r0[0x0]
800056a6:	80 e4       	ld.uh	r4,r0[0xc]
800056a8:	80 00       	ld.sh	r0,r0[0x0]
800056aa:	7d f2       	ld.w	r2,lr[0x7c]

800056ac <fat_allocfreespace>:
800056ac:	d4 31       	pushm	r0-r7,lr
800056ae:	20 1d       	sub	sp,4
800056b0:	4c d8       	lddpc	r8,800057e4 <fat_allocfreespace+0x138>
800056b2:	11 89       	ld.ub	r9,r8[0x0]
800056b4:	30 38       	mov	r8,3
800056b6:	f0 09 18 00 	cp.b	r9,r8
800056ba:	c0 61       	brne	800056c6 <fat_allocfreespace+0x1a>
800056bc:	3f fc       	mov	r12,-1
800056be:	f0 1f 00 4b 	mcall	800057e8 <fat_allocfreespace+0x13c>
800056c2:	e0 80 00 8d 	breq	800057dc <fat_allocfreespace+0x130>
800056c6:	4c a1       	lddpc	r1,800057ec <fat_allocfreespace+0x140>
800056c8:	03 89       	ld.ub	r9,r1[0x0]
800056ca:	3f f8       	mov	r8,-1
800056cc:	f0 09 18 00 	cp.b	r9,r8
800056d0:	c0 71       	brne	800056de <fat_allocfreespace+0x32>
800056d2:	30 19       	mov	r9,1
800056d4:	50 09       	stdsp	sp[0x0],r9
800056d6:	30 29       	mov	r9,2
800056d8:	4c 68       	lddpc	r8,800057f0 <fat_allocfreespace+0x144>
800056da:	91 09       	st.w	r8[0x0],r9
800056dc:	c0 88       	rjmp	800056ec <fat_allocfreespace+0x40>
800056de:	4c 48       	lddpc	r8,800057ec <fat_allocfreespace+0x140>
800056e0:	70 09       	ld.w	r9,r8[0x0]
800056e2:	2f f9       	sub	r9,-1
800056e4:	4c 38       	lddpc	r8,800057f0 <fat_allocfreespace+0x144>
800056e6:	91 09       	st.w	r8[0x0],r9
800056e8:	30 18       	mov	r8,1
800056ea:	50 08       	stdsp	sp[0x0],r8
800056ec:	f0 1f 00 42 	mcall	800057f4 <fat_allocfreespace+0x148>
800056f0:	4c 08       	lddpc	r8,800057f0 <fat_allocfreespace+0x144>
800056f2:	70 09       	ld.w	r9,r8[0x0]
800056f4:	4c 18       	lddpc	r8,800057f8 <fat_allocfreespace+0x14c>
800056f6:	70 38       	ld.w	r8,r8[0xc]
800056f8:	10 39       	cp.w	r9,r8
800056fa:	c6 32       	brcc	800057c0 <fat_allocfreespace+0x114>
800056fc:	30 05       	mov	r5,0
800056fe:	0a 90       	mov	r0,r5
80005700:	4b c7       	lddpc	r7,800057f0 <fat_allocfreespace+0x144>
80005702:	30 12       	mov	r2,1
80005704:	30 13       	mov	r3,1
80005706:	4b a4       	lddpc	r4,800057ec <fat_allocfreespace+0x140>
80005708:	4b c6       	lddpc	r6,800057f8 <fat_allocfreespace+0x14c>
8000570a:	00 9c       	mov	r12,r0
8000570c:	f0 1f 00 3c 	mcall	800057fc <fat_allocfreespace+0x150>
80005710:	c6 60       	breq	800057dc <fat_allocfreespace+0x130>
80005712:	6e 18       	ld.w	r8,r7[0x4]
80005714:	58 08       	cp.w	r8,0
80005716:	c4 21       	brne	8000579a <fat_allocfreespace+0xee>
80005718:	6e 08       	ld.w	r8,r7[0x0]
8000571a:	8f 18       	st.w	r7[0x4],r8
8000571c:	e4 05 18 00 	cp.b	r5,r2
80005720:	c0 81       	brne	80005730 <fat_allocfreespace+0x84>
80005722:	20 18       	sub	r8,1
80005724:	8f 08       	st.w	r7[0x0],r8
80005726:	06 9c       	mov	r12,r3
80005728:	f0 1f 00 35 	mcall	800057fc <fat_allocfreespace+0x150>
8000572c:	c1 f1       	brne	8000576a <fat_allocfreespace+0xbe>
8000572e:	c5 78       	rjmp	800057dc <fat_allocfreespace+0x130>
80005730:	03 88       	ld.ub	r8,r1[0x0]
80005732:	3f f9       	mov	r9,-1
80005734:	f2 08 18 00 	cp.b	r8,r9
80005738:	c1 70       	breq	80005766 <fat_allocfreespace+0xba>
8000573a:	68 08       	ld.w	r8,r4[0x0]
8000573c:	58 08       	cp.w	r8,0
8000573e:	c0 f1       	brne	8000575c <fat_allocfreespace+0xb0>
80005740:	4a 98       	lddpc	r8,800057e4 <fat_allocfreespace+0x138>
80005742:	11 89       	ld.ub	r9,r8[0x0]
80005744:	30 38       	mov	r8,3
80005746:	f0 09 18 00 	cp.b	r9,r8
8000574a:	c0 60       	breq	80005756 <fat_allocfreespace+0xaa>
8000574c:	31 b9       	mov	r9,27
8000574e:	4a d8       	lddpc	r8,80005800 <fat_allocfreespace+0x154>
80005750:	b0 89       	st.b	r8[0x0],r9
80005752:	30 0c       	mov	r12,0
80005754:	c4 58       	rjmp	800057de <fat_allocfreespace+0x132>
80005756:	6c 68       	ld.w	r8,r6[0x18]
80005758:	8f 08       	st.w	r7[0x0],r8
8000575a:	c0 28       	rjmp	8000575e <fat_allocfreespace+0xb2>
8000575c:	8f 08       	st.w	r7[0x0],r8
8000575e:	06 9c       	mov	r12,r3
80005760:	f0 1f 00 27 	mcall	800057fc <fat_allocfreespace+0x150>
80005764:	c3 c0       	breq	800057dc <fat_allocfreespace+0x130>
80005766:	6e 18       	ld.w	r8,r7[0x4]
80005768:	89 08       	st.w	r4[0x0],r8
8000576a:	6e 18       	ld.w	r8,r7[0x4]
8000576c:	8f 08       	st.w	r7[0x0],r8
8000576e:	e0 69 ff ff 	mov	r9,65535
80005772:	ea 19 0f ff 	orh	r9,0xfff
80005776:	8f 19       	st.w	r7[0x4],r9
80005778:	06 9c       	mov	r12,r3
8000577a:	f0 1f 00 21 	mcall	800057fc <fat_allocfreespace+0x150>
8000577e:	c2 f0       	breq	800057dc <fat_allocfreespace+0x130>
80005780:	68 19       	ld.w	r9,r4[0x4]
80005782:	0d 98       	ld.ub	r8,r6[0x1]
80005784:	10 39       	cp.w	r9,r8
80005786:	e0 8b 00 06 	brhi	80005792 <fat_allocfreespace+0xe6>
8000578a:	30 09       	mov	r9,0
8000578c:	49 88       	lddpc	r8,800057ec <fat_allocfreespace+0x140>
8000578e:	91 19       	st.w	r8[0x4],r9
80005790:	c2 38       	rjmp	800057d6 <fat_allocfreespace+0x12a>
80005792:	10 19       	sub	r9,r8
80005794:	89 19       	st.w	r4[0x4],r9
80005796:	06 95       	mov	r5,r3
80005798:	c0 b8       	rjmp	800057ae <fat_allocfreespace+0x102>
8000579a:	e4 05 18 00 	cp.b	r5,r2
8000579e:	c1 c0       	breq	800057d6 <fat_allocfreespace+0x12a>
800057a0:	40 08       	lddsp	r8,sp[0x0]
800057a2:	58 08       	cp.w	r8,0
800057a4:	c0 50       	breq	800057ae <fat_allocfreespace+0x102>
800057a6:	6e 08       	ld.w	r8,r7[0x0]
800057a8:	f0 c8 fe 0c 	sub	r8,r8,-500
800057ac:	8f 08       	st.w	r7[0x0],r8
800057ae:	6e 08       	ld.w	r8,r7[0x0]
800057b0:	2f f8       	sub	r8,-1
800057b2:	8f 08       	st.w	r7[0x0],r8
800057b4:	6c 39       	ld.w	r9,r6[0xc]
800057b6:	10 39       	cp.w	r9,r8
800057b8:	fe 9b ff a9 	brhi	8000570a <fat_allocfreespace+0x5e>
800057bc:	58 05       	cp.w	r5,0
800057be:	c0 c1       	brne	800057d6 <fat_allocfreespace+0x12a>
800057c0:	40 09       	lddsp	r9,sp[0x0]
800057c2:	58 09       	cp.w	r9,0
800057c4:	c0 40       	breq	800057cc <fat_allocfreespace+0x120>
800057c6:	30 08       	mov	r8,0
800057c8:	50 08       	stdsp	sp[0x0],r8
800057ca:	c8 6b       	rjmp	800056d6 <fat_allocfreespace+0x2a>
800057cc:	31 b9       	mov	r9,27
800057ce:	48 d8       	lddpc	r8,80005800 <fat_allocfreespace+0x154>
800057d0:	b0 89       	st.b	r8[0x0],r9
800057d2:	30 0c       	mov	r12,0
800057d4:	c0 58       	rjmp	800057de <fat_allocfreespace+0x132>
800057d6:	f0 1f 00 0c 	mcall	80005804 <fat_allocfreespace+0x158>
800057da:	c0 28       	rjmp	800057de <fat_allocfreespace+0x132>
800057dc:	30 0c       	mov	r12,0
800057de:	2f fd       	sub	sp,-4
800057e0:	d8 32       	popm	r0-r7,pc
800057e2:	00 00       	add	r0,r0
800057e4:	00 00       	add	r0,r0
800057e6:	07 38       	ld.ub	r8,r3++
800057e8:	80 00       	ld.sh	r0,r0[0x0]
800057ea:	56 0c       	stdsp	sp[0x180],r12
800057ec:	00 00       	add	r0,r0
800057ee:	07 94       	ld.ub	r4,r3[0x1]
800057f0:	00 00       	add	r0,r0
800057f2:	07 8c       	ld.ub	r12,r3[0x0]
800057f4:	80 00       	ld.sh	r0,r0[0x0]
800057f6:	52 50       	stdsp	sp[0x94],r0
800057f8:	00 00       	add	r0,r0
800057fa:	06 ec       	st.h	--r3,r12
800057fc:	80 00       	ld.sh	r0,r0[0x0]
800057fe:	49 e4       	lddpc	r4,80005874 <fat_alloc_entry_free+0x6c>
80005800:	00 00       	add	r0,r0
80005802:	07 3c       	ld.ub	r12,r3++
80005804:	80 00       	ld.sh	r0,r0[0x0]
80005806:	52 dc       	stdsp	sp[0xb4],r12

80005808 <fat_alloc_entry_free>:
80005808:	d4 31       	pushm	r0-r7,lr
8000580a:	20 1d       	sub	sp,4
8000580c:	30 09       	mov	r9,0
8000580e:	4a 38       	lddpc	r8,80005898 <fat_alloc_entry_free+0x90>
80005810:	b0 19       	st.h	r8[0x2],r9
80005812:	18 92       	mov	r2,r12
80005814:	30 04       	mov	r4,0
80005816:	4a 26       	lddpc	r6,8000589c <fat_alloc_entry_free+0x94>
80005818:	31 a3       	mov	r3,26
8000581a:	4a 21       	lddpc	r1,800058a0 <fat_alloc_entry_free+0x98>
8000581c:	30 15       	mov	r5,1
8000581e:	10 97       	mov	r7,r8
80005820:	12 90       	mov	r0,r9
80005822:	50 0c       	stdsp	sp[0x0],r12
80005824:	f0 1f 00 20 	mcall	800058a4 <fat_alloc_entry_free+0x9c>
80005828:	c1 61       	brne	80005854 <fat_alloc_entry_free+0x4c>
8000582a:	0d 88       	ld.ub	r8,r6[0x0]
8000582c:	e6 08 18 00 	cp.b	r8,r3
80005830:	c3 11       	brne	80005892 <fat_alloc_entry_free+0x8a>
80005832:	83 15       	st.w	r1[0x4],r5
80005834:	f0 1f 00 1d 	mcall	800058a8 <fat_alloc_entry_free+0xa0>
80005838:	c0 a1       	brne	8000584c <fat_alloc_entry_free+0x44>
8000583a:	58 04       	cp.w	r4,0
8000583c:	c2 b1       	brne	80005892 <fat_alloc_entry_free+0x8a>
8000583e:	f0 1f 00 1c 	mcall	800058ac <fat_alloc_entry_free+0xa4>
80005842:	c2 80       	breq	80005892 <fat_alloc_entry_free+0x8a>
80005844:	ae 10       	st.h	r7[0x2],r0
80005846:	40 02       	lddsp	r2,sp[0x0]
80005848:	0a 94       	mov	r4,r5
8000584a:	ce db       	rjmp	80005824 <fat_alloc_entry_free+0x1c>
8000584c:	f0 1f 00 19 	mcall	800058b0 <fat_alloc_entry_free+0xa8>
80005850:	ce a1       	brne	80005824 <fat_alloc_entry_free+0x1c>
80005852:	c2 08       	rjmp	80005892 <fat_alloc_entry_free+0x8a>
80005854:	f0 1f 00 18 	mcall	800058b4 <fat_alloc_entry_free+0xac>
80005858:	19 88       	ld.ub	r8,r12[0x0]
8000585a:	30 09       	mov	r9,0
8000585c:	f2 08 18 00 	cp.b	r8,r9
80005860:	c0 61       	brne	8000586c <fat_alloc_entry_free+0x64>
80005862:	20 12       	sub	r2,1
80005864:	5c 52       	castu.b	r2
80005866:	c0 31       	brne	8000586c <fat_alloc_entry_free+0x64>
80005868:	30 1c       	mov	r12,1
8000586a:	c1 58       	rjmp	80005894 <fat_alloc_entry_free+0x8c>
8000586c:	8e 18       	ld.sh	r8,r7[0x2]
8000586e:	2f f8       	sub	r8,-1
80005870:	5c 88       	casts.h	r8
80005872:	ae 18       	st.h	r7[0x2],r8
80005874:	cd 81       	brne	80005824 <fat_alloc_entry_free+0x1c>
80005876:	58 04       	cp.w	r4,0
80005878:	c0 60       	breq	80005884 <fat_alloc_entry_free+0x7c>
8000587a:	31 b9       	mov	r9,27
8000587c:	48 88       	lddpc	r8,8000589c <fat_alloc_entry_free+0x94>
8000587e:	b0 89       	st.b	r8[0x0],r9
80005880:	30 0c       	mov	r12,0
80005882:	c0 98       	rjmp	80005894 <fat_alloc_entry_free+0x8c>
80005884:	f0 1f 00 0a 	mcall	800058ac <fat_alloc_entry_free+0xa4>
80005888:	c0 50       	breq	80005892 <fat_alloc_entry_free+0x8a>
8000588a:	ae 10       	st.h	r7[0x2],r0
8000588c:	40 02       	lddsp	r2,sp[0x0]
8000588e:	0a 94       	mov	r4,r5
80005890:	cc ab       	rjmp	80005824 <fat_alloc_entry_free+0x1c>
80005892:	30 0c       	mov	r12,0
80005894:	2f fd       	sub	sp,-4
80005896:	d8 32       	popm	r0-r7,pc
80005898:	00 00       	add	r0,r0
8000589a:	07 38       	ld.ub	r8,r3++
8000589c:	00 00       	add	r0,r0
8000589e:	07 3c       	ld.ub	r12,r3++
800058a0:	00 00       	add	r0,r0
800058a2:	07 94       	ld.ub	r4,r3[0x1]
800058a4:	80 00       	ld.sh	r0,r0[0x0]
800058a6:	4f 00       	lddpc	r0,80005a64 <fat_create_short_entry_name+0x138>
800058a8:	80 00       	ld.sh	r0,r0[0x0]
800058aa:	56 ac       	stdsp	sp[0x1a8],r12
800058ac:	80 00       	ld.sh	r0,r0[0x0]
800058ae:	55 44       	stdsp	sp[0x150],r4
800058b0:	80 00       	ld.sh	r0,r0[0x0]
800058b2:	52 68       	stdsp	sp[0x98],r8
800058b4:	80 00       	ld.sh	r0,r0[0x0]
800058b6:	43 08       	lddsp	r8,sp[0xc0]

800058b8 <fat_check_name>:
800058b8:	d4 31       	pushm	r0-r7,lr
800058ba:	18 94       	mov	r4,r12
800058bc:	33 a2       	mov	r2,58
800058be:	30 23       	mov	r3,2
800058c0:	30 d5       	mov	r5,13
800058c2:	49 86       	lddpc	r6,80005920 <fat_check_name+0x68>
800058c4:	ec c1 ff ff 	sub	r1,r6,-1
800058c8:	2f 96       	sub	r6,-7
800058ca:	0a 90       	mov	r0,r5
800058cc:	09 87       	ld.ub	r7,r4[0x0]
800058ce:	0e 9c       	mov	r12,r7
800058d0:	f0 1f 00 15 	mcall	80005924 <fat_check_name+0x6c>
800058d4:	c1 a1       	brne	80005908 <fat_check_name+0x50>
800058d6:	ee 02 19 00 	cp.h	r2,r7
800058da:	c0 60       	breq	800058e6 <fat_check_name+0x2e>
800058dc:	02 98       	mov	r8,r1
800058de:	11 89       	ld.ub	r9,r8[0x0]
800058e0:	ee 09 19 00 	cp.h	r9,r7
800058e4:	c0 61       	brne	800058f0 <fat_check_name+0x38>
800058e6:	31 c9       	mov	r9,28
800058e8:	49 08       	lddpc	r8,80005928 <fat_check_name+0x70>
800058ea:	b0 89       	st.b	r8[0x0],r9
800058ec:	30 03       	mov	r3,0
800058ee:	c1 68       	rjmp	8000591a <fat_check_name+0x62>
800058f0:	2f f8       	sub	r8,-1
800058f2:	0c 38       	cp.w	r8,r6
800058f4:	cf 51       	brne	800058de <fat_check_name+0x26>
800058f6:	58 05       	cp.w	r5,0
800058f8:	c0 41       	brne	80005900 <fat_check_name+0x48>
800058fa:	2f f3       	sub	r3,-1
800058fc:	5c 53       	castu.b	r3
800058fe:	00 95       	mov	r5,r0
80005900:	20 15       	sub	r5,1
80005902:	5c 55       	castu.b	r5
80005904:	2f f4       	sub	r4,-1
80005906:	ce 3b       	rjmp	800058cc <fat_check_name+0x14>
80005908:	31 48       	mov	r8,20
8000590a:	f0 03 18 00 	cp.b	r3,r8
8000590e:	e0 88 00 06 	brls	8000591a <fat_check_name+0x62>
80005912:	32 b9       	mov	r9,43
80005914:	48 58       	lddpc	r8,80005928 <fat_check_name+0x70>
80005916:	b0 89       	st.b	r8[0x0],r9
80005918:	30 03       	mov	r3,0
8000591a:	06 9c       	mov	r12,r3
8000591c:	d8 32       	popm	r0-r7,pc
8000591e:	00 00       	add	r0,r0
80005920:	80 00       	ld.sh	r0,r0[0x0]
80005922:	80 d4       	ld.uh	r4,r0[0xa]
80005924:	80 00       	ld.sh	r0,r0[0x0]
80005926:	42 e0       	lddsp	r0,sp[0xb8]
80005928:	00 00       	add	r0,r0
8000592a:	07 3c       	ld.ub	r12,r3++

8000592c <fat_create_short_entry_name>:
8000592c:	d4 31       	pushm	r0-r7,lr
8000592e:	20 8d       	sub	sp,32
80005930:	18 94       	mov	r4,r12
80005932:	50 2b       	stdsp	sp[0x8],r11
80005934:	14 97       	mov	r7,r10
80005936:	50 09       	stdsp	sp[0x0],r9
80005938:	58 09       	cp.w	r9,0
8000593a:	c0 40       	breq	80005942 <fat_create_short_entry_name+0x16>
8000593c:	30 0a       	mov	r10,0
8000593e:	50 1a       	stdsp	sp[0x4],r10
80005940:	c0 68       	rjmp	8000594c <fat_create_short_entry_name+0x20>
80005942:	f0 1f 00 65 	mcall	80005ad4 <fat_create_short_entry_name+0x1a8>
80005946:	f0 1f 00 65 	mcall	80005ad8 <fat_create_short_entry_name+0x1ac>
8000594a:	50 1c       	stdsp	sp[0x4],r12
8000594c:	30 98       	mov	r8,9
8000594e:	f0 07 18 00 	cp.b	r7,r8
80005952:	e0 8b 00 04 	brhi	8000595a <fat_create_short_entry_name+0x2e>
80005956:	30 18       	mov	r8,1
80005958:	c0 88       	rjmp	80005968 <fat_create_short_entry_name+0x3c>
8000595a:	36 38       	mov	r8,99
8000595c:	ee 08 18 00 	cp.b	r8,r7
80005960:	f9 b8 02 02 	movhs	r8,2
80005964:	f9 b8 03 03 	movlo	r8,3
80005968:	e0 6a cc cd 	mov	r10,52429
8000596c:	ea 1a cc cc 	orh	r10,0xcccc
80005970:	ee 0a 06 42 	mulu.d	r2,r7,r10
80005974:	e6 09 16 03 	lsr	r9,r3,0x3
80005978:	f2 09 00 29 	add	r9,r9,r9<<0x2
8000597c:	ee 09 01 19 	sub	r9,r7,r9<<0x1
80005980:	2d 09       	sub	r9,-48
80005982:	5c 59       	castu.b	r9
80005984:	50 79       	stdsp	sp[0x1c],r9
80005986:	e0 63 85 1f 	mov	r3,34079
8000598a:	ea 13 51 eb 	orh	r3,0x51eb
8000598e:	ee 03 06 42 	mulu.d	r2,r7,r3
80005992:	e6 09 16 05 	lsr	r9,r3,0x5
80005996:	f2 0b 10 64 	mul	r11,r9,100
8000599a:	ee 0b 01 0b 	sub	r11,r7,r11
8000599e:	5c 5b       	castu.b	r11
800059a0:	f6 0a 06 4a 	mulu.d	r10,r11,r10
800059a4:	f6 0a 16 03 	lsr	r10,r11,0x3
800059a8:	2d 0a       	sub	r10,-48
800059aa:	5c 5a       	castu.b	r10
800059ac:	50 6a       	stdsp	sp[0x18],r10
800059ae:	2d 09       	sub	r9,-48
800059b0:	5c 59       	castu.b	r9
800059b2:	50 59       	stdsp	sp[0x14],r9
800059b4:	30 01       	mov	r1,0
800059b6:	30 17       	mov	r7,1
800059b8:	02 95       	mov	r5,r1
800059ba:	30 13       	mov	r3,1
800059bc:	f0 09 11 ff 	rsub	r9,r8,-1
800059c0:	2f 89       	sub	r9,-8
800059c2:	50 39       	stdsp	sp[0xc],r9
800059c4:	32 e0       	mov	r0,46
800059c6:	30 82       	mov	r2,8
800059c8:	f0 08 11 06 	rsub	r8,r8,6
800059cc:	5c 58       	castu.b	r8
800059ce:	50 48       	stdsp	sp[0x10],r8
800059d0:	c0 28       	rjmp	800059d4 <fat_create_short_entry_name+0xa8>
800059d2:	30 77       	mov	r7,7
800059d4:	09 86       	ld.ub	r6,r4[0x0]
800059d6:	e6 07 18 00 	cp.b	r7,r3
800059da:	c1 41       	brne	80005a02 <fat_create_short_entry_name+0xd6>
800059dc:	40 38       	lddsp	r8,sp[0xc]
800059de:	0a 38       	cp.w	r8,r5
800059e0:	5f 09       	sreq	r9
800059e2:	e0 06 18 00 	cp.b	r6,r0
800059e6:	5f 08       	sreq	r8
800059e8:	f3 e8 10 08 	or	r8,r9,r8
800059ec:	30 0a       	mov	r10,0
800059ee:	f4 08 18 00 	cp.b	r8,r10
800059f2:	c0 51       	brne	800059fc <fat_create_short_entry_name+0xd0>
800059f4:	0c 9c       	mov	r12,r6
800059f6:	f0 1f 00 3a 	mcall	80005adc <fat_create_short_entry_name+0x1b0>
800059fa:	c1 10       	breq	80005a1c <fat_create_short_entry_name+0xf0>
800059fc:	2f f7       	sub	r7,-1
800059fe:	5c 57       	castu.b	r7
80005a00:	ce ab       	rjmp	800059d4 <fat_create_short_entry_name+0xa8>
80005a02:	e4 07 18 00 	cp.b	r7,r2
80005a06:	c1 21       	brne	80005a2a <fat_create_short_entry_name+0xfe>
80005a08:	30 b8       	mov	r8,11
80005a0a:	f0 05 18 00 	cp.b	r5,r8
80005a0e:	c0 50       	breq	80005a18 <fat_create_short_entry_name+0xec>
80005a10:	0c 9c       	mov	r12,r6
80005a12:	f0 1f 00 33 	mcall	80005adc <fat_create_short_entry_name+0x1b0>
80005a16:	c0 30       	breq	80005a1c <fat_create_short_entry_name+0xf0>
80005a18:	30 97       	mov	r7,9
80005a1a:	cd db       	rjmp	800059d4 <fat_create_short_entry_name+0xa8>
80005a1c:	0c 9c       	mov	r12,r6
80005a1e:	f0 1f 00 31 	mcall	80005ae0 <fat_create_short_entry_name+0x1b4>
80005a22:	18 96       	mov	r6,r12
80005a24:	2f f4       	sub	r4,-1
80005a26:	58 0c       	cp.w	r12,0
80005a28:	cd 60       	breq	800059d4 <fat_create_short_entry_name+0xa8>
80005a2a:	30 78       	mov	r8,7
80005a2c:	f0 07 18 00 	cp.b	r7,r8
80005a30:	c0 c1       	brne	80005a48 <fat_create_short_entry_name+0x11c>
80005a32:	e0 06 18 00 	cp.b	r6,r0
80005a36:	c0 50       	breq	80005a40 <fat_create_short_entry_name+0x114>
80005a38:	0c 9c       	mov	r12,r6
80005a3a:	f0 1f 00 29 	mcall	80005adc <fat_create_short_entry_name+0x1b0>
80005a3e:	c0 30       	breq	80005a44 <fat_create_short_entry_name+0x118>
80005a40:	30 87       	mov	r7,8
80005a42:	cc 9b       	rjmp	800059d4 <fat_create_short_entry_name+0xa8>
80005a44:	2f f4       	sub	r4,-1
80005a46:	cc 7b       	rjmp	800059d4 <fat_create_short_entry_name+0xa8>
80005a48:	30 68       	mov	r8,6
80005a4a:	f0 07 18 00 	cp.b	r7,r8
80005a4e:	c0 61       	brne	80005a5a <fat_create_short_entry_name+0x12e>
80005a50:	e4 05 18 00 	cp.b	r5,r2
80005a54:	cb f0       	breq	800059d2 <fat_create_short_entry_name+0xa6>
80005a56:	32 06       	mov	r6,32
80005a58:	c1 28       	rjmp	80005a7c <fat_create_short_entry_name+0x150>
80005a5a:	30 98       	mov	r8,9
80005a5c:	f0 07 18 00 	cp.b	r7,r8
80005a60:	c0 71       	brne	80005a6e <fat_create_short_entry_name+0x142>
80005a62:	30 b9       	mov	r9,11
80005a64:	f2 05 18 00 	cp.b	r5,r9
80005a68:	c3 20       	breq	80005acc <fat_create_short_entry_name+0x1a0>
80005a6a:	32 06       	mov	r6,32
80005a6c:	c0 f8       	rjmp	80005a8a <fat_create_short_entry_name+0x15e>
80005a6e:	30 58       	mov	r8,5
80005a70:	f0 07 18 00 	cp.b	r7,r8
80005a74:	c0 41       	brne	80005a7c <fat_create_short_entry_name+0x150>
80005a76:	40 76       	lddsp	r6,sp[0x1c]
80005a78:	30 67       	mov	r7,6
80005a7a:	c0 f8       	rjmp	80005a98 <fat_create_short_entry_name+0x16c>
80005a7c:	30 48       	mov	r8,4
80005a7e:	f0 07 18 00 	cp.b	r7,r8
80005a82:	c0 41       	brne	80005a8a <fat_create_short_entry_name+0x15e>
80005a84:	40 66       	lddsp	r6,sp[0x18]
80005a86:	30 57       	mov	r7,5
80005a88:	c0 f8       	rjmp	80005aa6 <fat_create_short_entry_name+0x17a>
80005a8a:	30 38       	mov	r8,3
80005a8c:	f0 07 18 00 	cp.b	r7,r8
80005a90:	c0 41       	brne	80005a98 <fat_create_short_entry_name+0x16c>
80005a92:	40 56       	lddsp	r6,sp[0x14]
80005a94:	30 47       	mov	r7,4
80005a96:	c0 88       	rjmp	80005aa6 <fat_create_short_entry_name+0x17a>
80005a98:	40 49       	lddsp	r9,sp[0x10]
80005a9a:	30 28       	mov	r8,2
80005a9c:	f0 07 18 00 	cp.b	r7,r8
80005aa0:	c0 31       	brne	80005aa6 <fat_create_short_entry_name+0x17a>
80005aa2:	12 97       	mov	r7,r9
80005aa4:	37 e6       	mov	r6,126
80005aa6:	40 09       	lddsp	r9,sp[0x0]
80005aa8:	58 09       	cp.w	r9,0
80005aaa:	c0 50       	breq	80005ab4 <fat_create_short_entry_name+0x188>
80005aac:	40 28       	lddsp	r8,sp[0x8]
80005aae:	10 c6       	st.b	r8++,r6
80005ab0:	50 28       	stdsp	sp[0x8],r8
80005ab2:	c0 48       	rjmp	80005aba <fat_create_short_entry_name+0x18e>
80005ab4:	40 1a       	lddsp	r10,sp[0x4]
80005ab6:	14 c6       	st.b	r10++,r6
80005ab8:	50 1a       	stdsp	sp[0x4],r10
80005aba:	2f f5       	sub	r5,-1
80005abc:	5c 55       	castu.b	r5
80005abe:	e2 08 16 01 	lsr	r8,r1,0x1
80005ac2:	a7 71       	lsl	r1,0x7
80005ac4:	10 01       	add	r1,r8
80005ac6:	0c 01       	add	r1,r6
80005ac8:	5c 51       	castu.b	r1
80005aca:	c8 5b       	rjmp	800059d4 <fat_create_short_entry_name+0xa8>
80005acc:	02 9c       	mov	r12,r1
80005ace:	2f 8d       	sub	sp,-32
80005ad0:	d8 32       	popm	r0-r7,pc
80005ad2:	00 00       	add	r0,r0
80005ad4:	80 00       	ld.sh	r0,r0[0x0]
80005ad6:	46 b0       	lddsp	r0,sp[0x1ac]
80005ad8:	80 00       	ld.sh	r0,r0[0x0]
80005ada:	43 08       	lddsp	r8,sp[0xc0]
80005adc:	80 00       	ld.sh	r0,r0[0x0]
80005ade:	42 e0       	lddsp	r0,sp[0xb8]
80005ae0:	80 00       	ld.sh	r0,r0[0x0]
80005ae2:	52 04       	stdsp	sp[0x80],r4

80005ae4 <fat_entry_shortname_compare>:
80005ae4:	eb cd 40 80 	pushm	r7,lr
80005ae8:	18 97       	mov	r7,r12
80005aea:	f0 1f 00 12 	mcall	80005b30 <fat_entry_shortname_compare+0x4c>
80005aee:	19 88       	ld.ub	r8,r12[0x0]
80005af0:	58 08       	cp.w	r8,0
80005af2:	c0 61       	brne	80005afe <fat_entry_shortname_compare+0x1a>
80005af4:	30 a9       	mov	r9,10
80005af6:	49 08       	lddpc	r8,80005b34 <fat_entry_shortname_compare+0x50>
80005af8:	b0 89       	st.b	r8[0x0],r9
80005afa:	e3 cf 80 80 	ldm	sp++,r7,pc,r12=0
80005afe:	3e 59       	mov	r9,-27
80005b00:	f2 08 18 00 	cp.b	r8,r9
80005b04:	c0 70       	breq	80005b12 <fat_entry_shortname_compare+0x2e>
80005b06:	f9 39 00 0b 	ld.ub	r9,r12[11]
80005b0a:	30 f8       	mov	r8,15
80005b0c:	f0 09 18 00 	cp.b	r9,r8
80005b10:	c0 61       	brne	80005b1c <fat_entry_shortname_compare+0x38>
80005b12:	30 b9       	mov	r9,11
80005b14:	48 88       	lddpc	r8,80005b34 <fat_entry_shortname_compare+0x50>
80005b16:	b0 89       	st.b	r8[0x0],r9
80005b18:	e3 cf 80 80 	ldm	sp++,r7,pc,r12=0
80005b1c:	30 b9       	mov	r9,11
80005b1e:	48 68       	lddpc	r8,80005b34 <fat_entry_shortname_compare+0x50>
80005b20:	b0 89       	st.b	r8[0x0],r9
80005b22:	30 ba       	mov	r10,11
80005b24:	0e 9b       	mov	r11,r7
80005b26:	f0 1f 00 05 	mcall	80005b38 <fat_entry_shortname_compare+0x54>
80005b2a:	5f 0c       	sreq	r12
80005b2c:	e3 cd 80 80 	ldm	sp++,r7,pc
80005b30:	80 00       	ld.sh	r0,r0[0x0]
80005b32:	43 08       	lddsp	r8,sp[0xc0]
80005b34:	00 00       	add	r0,r0
80005b36:	07 3c       	ld.ub	r12,r3++
80005b38:	80 00       	ld.sh	r0,r0[0x0]
80005b3a:	7c 84       	ld.w	r4,lr[0x20]

80005b3c <fat_find_short_entry_name>:
80005b3c:	d4 31       	pushm	r0-r7,lr
80005b3e:	20 3d       	sub	sp,12
80005b40:	18 93       	mov	r3,r12
80005b42:	30 07       	mov	r7,0
80005b44:	1a 96       	mov	r6,sp
80005b46:	30 12       	mov	r2,1
80005b48:	49 65       	lddpc	r5,80005ba0 <fat_find_short_entry_name+0x64>
80005b4a:	30 04       	mov	r4,0
80005b4c:	49 61       	lddpc	r1,80005ba4 <fat_find_short_entry_name+0x68>
80005b4e:	30 a0       	mov	r0,10
80005b50:	c0 58       	rjmp	80005b5a <fat_find_short_entry_name+0x1e>
80005b52:	3f f8       	mov	r8,-1
80005b54:	f0 07 18 00 	cp.b	r7,r8
80005b58:	c2 00       	breq	80005b98 <fat_find_short_entry_name+0x5c>
80005b5a:	2f f7       	sub	r7,-1
80005b5c:	5c 57       	castu.b	r7
80005b5e:	04 99       	mov	r9,r2
80005b60:	0e 9a       	mov	r10,r7
80005b62:	1a 9b       	mov	r11,sp
80005b64:	06 9c       	mov	r12,r3
80005b66:	f0 1f 00 11 	mcall	80005ba8 <fat_find_short_entry_name+0x6c>
80005b6a:	aa 14       	st.h	r5[0x2],r4
80005b6c:	f0 1f 00 10 	mcall	80005bac <fat_find_short_entry_name+0x70>
80005b70:	c0 81       	brne	80005b80 <fat_find_short_entry_name+0x44>
80005b72:	48 d8       	lddpc	r8,80005ba4 <fat_find_short_entry_name+0x68>
80005b74:	11 89       	ld.ub	r9,r8[0x0]
80005b76:	31 a8       	mov	r8,26
80005b78:	f0 09 18 00 	cp.b	r9,r8
80005b7c:	c0 e1       	brne	80005b98 <fat_find_short_entry_name+0x5c>
80005b7e:	c0 e8       	rjmp	80005b9a <fat_find_short_entry_name+0x5e>
80005b80:	1a 9c       	mov	r12,sp
80005b82:	f0 1f 00 0c 	mcall	80005bb0 <fat_find_short_entry_name+0x74>
80005b86:	ce 61       	brne	80005b52 <fat_find_short_entry_name+0x16>
80005b88:	03 88       	ld.ub	r8,r1[0x0]
80005b8a:	e0 08 18 00 	cp.b	r8,r0
80005b8e:	c0 60       	breq	80005b9a <fat_find_short_entry_name+0x5e>
80005b90:	8a 18       	ld.sh	r8,r5[0x2]
80005b92:	2f f8       	sub	r8,-1
80005b94:	aa 18       	st.h	r5[0x2],r8
80005b96:	ce bb       	rjmp	80005b6c <fat_find_short_entry_name+0x30>
80005b98:	30 07       	mov	r7,0
80005b9a:	0e 9c       	mov	r12,r7
80005b9c:	2f dd       	sub	sp,-12
80005b9e:	d8 32       	popm	r0-r7,pc
80005ba0:	00 00       	add	r0,r0
80005ba2:	07 38       	ld.ub	r8,r3++
80005ba4:	00 00       	add	r0,r0
80005ba6:	07 3c       	ld.ub	r12,r3++
80005ba8:	80 00       	ld.sh	r0,r0[0x0]
80005baa:	59 2c       	cp.w	r12,18
80005bac:	80 00       	ld.sh	r0,r0[0x0]
80005bae:	4f 00       	lddpc	r0,80005d6c <fat_mount+0x110>
80005bb0:	80 00       	ld.sh	r0,r0[0x0]
80005bb2:	5a e4       	cp.w	r4,-18

80005bb4 <fat_create_entry_file_name>:
80005bb4:	eb cd 40 fc 	pushm	r2-r7,lr
80005bb8:	18 96       	mov	r6,r12
80005bba:	f0 1f 00 21 	mcall	80005c3c <fat_create_entry_file_name+0x88>
80005bbe:	18 95       	mov	r5,r12
80005bc0:	c3 b0       	breq	80005c36 <fat_create_entry_file_name+0x82>
80005bc2:	0c 9c       	mov	r12,r6
80005bc4:	f0 1f 00 1f 	mcall	80005c40 <fat_create_entry_file_name+0x8c>
80005bc8:	18 97       	mov	r7,r12
80005bca:	c0 61       	brne	80005bd6 <fat_create_entry_file_name+0x22>
80005bcc:	32 a9       	mov	r9,42
80005bce:	49 e8       	lddpc	r8,80005c44 <fat_create_entry_file_name+0x90>
80005bd0:	b0 89       	st.b	r8[0x0],r9
80005bd2:	e3 cf 80 fc 	ldm	sp++,r2-r7,pc,r12=0
80005bd6:	0a 9c       	mov	r12,r5
80005bd8:	f0 1f 00 1c 	mcall	80005c48 <fat_create_entry_file_name+0x94>
80005bdc:	c2 d0       	breq	80005c36 <fat_create_entry_file_name+0x82>
80005bde:	30 09       	mov	r9,0
80005be0:	0e 9a       	mov	r10,r7
80005be2:	12 9b       	mov	r11,r9
80005be4:	0c 9c       	mov	r12,r6
80005be6:	f0 1f 00 1a 	mcall	80005c4c <fat_create_entry_file_name+0x98>
80005bea:	18 92       	mov	r2,r12
80005bec:	20 15       	sub	r5,1
80005bee:	5c 55       	castu.b	r5
80005bf0:	c1 c0       	breq	80005c28 <fat_create_entry_file_name+0x74>
80005bf2:	30 17       	mov	r7,1
80005bf4:	49 74       	lddpc	r4,80005c50 <fat_create_entry_file_name+0x9c>
80005bf6:	ea c3 ff c0 	sub	r3,r5,-64
80005bfa:	5c 53       	castu.b	r3
80005bfc:	88 18       	ld.sh	r8,r4[0x2]
80005bfe:	20 18       	sub	r8,1
80005c00:	a8 18       	st.h	r4[0x2],r8
80005c02:	f0 1f 00 15 	mcall	80005c54 <fat_create_entry_file_name+0xa0>
80005c06:	c1 80       	breq	80005c36 <fat_create_entry_file_name+0x82>
80005c08:	ea 07 18 00 	cp.b	r7,r5
80005c0c:	e6 07 17 00 	moveq	r7,r3
80005c10:	0e 9a       	mov	r10,r7
80005c12:	04 9b       	mov	r11,r2
80005c14:	0c 9c       	mov	r12,r6
80005c16:	f0 1f 00 11 	mcall	80005c58 <fat_create_entry_file_name+0xa4>
80005c1a:	2f f7       	sub	r7,-1
80005c1c:	5c 57       	castu.b	r7
80005c1e:	ee 05 18 00 	cp.b	r5,r7
80005c22:	c0 33       	brcs	80005c28 <fat_create_entry_file_name+0x74>
80005c24:	2f 36       	sub	r6,-13
80005c26:	ce bb       	rjmp	80005bfc <fat_create_entry_file_name+0x48>
80005c28:	48 a8       	lddpc	r8,80005c50 <fat_create_entry_file_name+0x9c>
80005c2a:	90 19       	ld.sh	r9,r8[0x2]
80005c2c:	f2 05 00 05 	add	r5,r9,r5
80005c30:	b0 15       	st.h	r8[0x2],r5
80005c32:	e3 cf 90 fc 	ldm	sp++,r2-r7,pc,r12=1
80005c36:	e3 cf 80 fc 	ldm	sp++,r2-r7,pc,r12=0
80005c3a:	00 00       	add	r0,r0
80005c3c:	80 00       	ld.sh	r0,r0[0x0]
80005c3e:	58 b8       	cp.w	r8,11
80005c40:	80 00       	ld.sh	r0,r0[0x0]
80005c42:	5b 3c       	cp.w	r12,-13
80005c44:	00 00       	add	r0,r0
80005c46:	07 3c       	ld.ub	r12,r3++
80005c48:	80 00       	ld.sh	r0,r0[0x0]
80005c4a:	58 08       	cp.w	r8,0
80005c4c:	80 00       	ld.sh	r0,r0[0x0]
80005c4e:	59 2c       	cp.w	r12,18
80005c50:	00 00       	add	r0,r0
80005c52:	07 38       	ld.ub	r8,r3++
80005c54:	80 00       	ld.sh	r0,r0[0x0]
80005c56:	4f 00       	lddpc	r0,80005e14 <fat_mount+0x1b8>
80005c58:	80 00       	ld.sh	r0,r0[0x0]
80005c5a:	53 e8       	stdsp	sp[0xf8],r8

80005c5c <fat_mount>:
80005c5c:	d4 31       	pushm	r0-r7,lr
80005c5e:	20 3d       	sub	sp,12
80005c60:	30 07       	mov	r7,0
80005c62:	fe f8 02 d2 	ld.w	r8,pc[722]
80005c66:	91 87       	st.w	r8[0x20],r7
80005c68:	f0 1f 00 b4 	mcall	80005f38 <fat_mount+0x2dc>
80005c6c:	fe f8 02 d0 	ld.w	r8,pc[720]
80005c70:	b0 87       	st.b	r8[0x0],r7
80005c72:	fe f8 02 ce 	ld.w	r8,pc[718]
80005c76:	91 07       	st.w	r8[0x0],r7
80005c78:	f0 1f 00 b3 	mcall	80005f44 <fat_mount+0x2e8>
80005c7c:	e0 80 01 58 	breq	80005f2c <fat_mount+0x2d0>
80005c80:	fe f5 02 c8 	ld.w	r5,pc[712]
80005c84:	ea c8 fe 42 	sub	r8,r5,-446
80005c88:	50 08       	stdsp	sp[0x0],r8
80005c8a:	38 04       	mov	r4,-128
80005c8c:	30 46       	mov	r6,4
80005c8e:	30 1c       	mov	r12,1
80005c90:	f0 1f 00 af 	mcall	80005f4c <fat_mount+0x2f0>
80005c94:	e0 80 01 4c 	breq	80005f2c <fat_mount+0x2d0>
80005c98:	eb 39 01 fe 	ld.ub	r9,r5[510]
80005c9c:	35 58       	mov	r8,85
80005c9e:	f0 09 18 00 	cp.b	r9,r8
80005ca2:	c0 d0       	breq	80005cbc <fat_mount+0x60>
80005ca4:	eb 39 01 ff 	ld.ub	r9,r5[511]
80005ca8:	3a a8       	mov	r8,-86
80005caa:	f0 09 18 00 	cp.b	r9,r8
80005cae:	c0 70       	breq	80005cbc <fat_mount+0x60>
80005cb0:	30 29       	mov	r9,2
80005cb2:	fe f8 02 9e 	ld.w	r8,pc[670]
80005cb6:	b0 89       	st.b	r8[0x0],r9
80005cb8:	30 0c       	mov	r12,0
80005cba:	c3 a9       	rjmp	80005f2e <fat_mount+0x2d2>
80005cbc:	fe f8 02 84 	ld.w	r8,pc[644]
80005cc0:	70 08       	ld.w	r8,r8[0x0]
80005cc2:	58 08       	cp.w	r8,0
80005cc4:	c5 21       	brne	80005d68 <fat_mount+0x10c>
80005cc6:	40 08       	lddsp	r8,sp[0x0]
80005cc8:	30 0a       	mov	r10,0
80005cca:	30 1e       	mov	lr,1
80005ccc:	30 63       	mov	r3,6
80005cce:	30 e2       	mov	r2,14
80005cd0:	30 b1       	mov	r1,11
80005cd2:	30 c0       	mov	r0,12
80005cd4:	11 89       	ld.ub	r9,r8[0x0]
80005cd6:	e8 09 18 00 	cp.b	r9,r4
80005cda:	5f 0b       	sreq	r11
80005cdc:	ee 09 18 00 	cp.b	r9,r7
80005ce0:	5f 09       	sreq	r9
80005ce2:	f7 e9 10 09 	or	r9,r11,r9
80005ce6:	ee 09 18 00 	cp.b	r9,r7
80005cea:	c1 90       	breq	80005d1c <fat_mount+0xc0>
80005cec:	11 c9       	ld.ub	r9,r8[0x4]
80005cee:	fc 09 18 00 	cp.b	r9,lr
80005cf2:	5f 0c       	sreq	r12
80005cf4:	ec 09 18 00 	cp.b	r9,r6
80005cf8:	5f 0b       	sreq	r11
80005cfa:	f9 eb 10 0b 	or	r11,r12,r11
80005cfe:	ee 0b 18 00 	cp.b	r11,r7
80005d02:	c1 41       	brne	80005d2a <fat_mount+0xce>
80005d04:	e6 09 18 00 	cp.b	r9,r3
80005d08:	c1 10       	breq	80005d2a <fat_mount+0xce>
80005d0a:	e4 09 18 00 	cp.b	r9,r2
80005d0e:	c0 e0       	breq	80005d2a <fat_mount+0xce>
80005d10:	e2 09 18 00 	cp.b	r9,r1
80005d14:	c0 b0       	breq	80005d2a <fat_mount+0xce>
80005d16:	e0 09 18 00 	cp.b	r9,r0
80005d1a:	c0 80       	breq	80005d2a <fat_mount+0xce>
80005d1c:	2f fa       	sub	r10,-1
80005d1e:	5c 5a       	castu.b	r10
80005d20:	2f 08       	sub	r8,-16
80005d22:	ec 0a 18 00 	cp.b	r10,r6
80005d26:	cd 71       	brne	80005cd4 <fat_mount+0x78>
80005d28:	c2 08       	rjmp	80005d68 <fat_mount+0x10c>
80005d2a:	ec 0a 18 00 	cp.b	r10,r6
80005d2e:	c1 d0       	breq	80005d68 <fat_mount+0x10c>
80005d30:	fe f3 02 10 	ld.w	r3,pc[528]
80005d34:	a5 6a       	lsl	r10,0x4
80005d36:	f4 ca fe 42 	sub	r10,r10,-446
80005d3a:	ea 0a 00 0a 	add	r10,r5,r10
80005d3e:	f5 38 00 08 	ld.ub	r8,r10[8]
80005d42:	a6 b8       	st.b	r3[0x3],r8
80005d44:	f5 38 00 09 	ld.ub	r8,r10[9]
80005d48:	a6 a8       	st.b	r3[0x2],r8
80005d4a:	f5 38 00 0a 	ld.ub	r8,r10[10]
80005d4e:	a6 98       	st.b	r3[0x1],r8
80005d50:	f5 38 00 0b 	ld.ub	r8,r10[11]
80005d54:	a6 88       	st.b	r3[0x0],r8
80005d56:	4f 88       	lddpc	r8,80005f34 <fat_mount+0x2d8>
80005d58:	11 8c       	ld.ub	r12,r8[0x0]
80005d5a:	f0 1f 00 7f 	mcall	80005f54 <fat_mount+0x2f8>
80005d5e:	66 08       	ld.w	r8,r3[0x0]
80005d60:	f8 08 02 48 	mul	r8,r12,r8
80005d64:	87 08       	st.w	r3[0x0],r8
80005d66:	c9 4b       	rjmp	80005c8e <fat_mount+0x32>
80005d68:	4f 88       	lddpc	r8,80005f48 <fat_mount+0x2ec>
80005d6a:	11 89       	ld.ub	r9,r8[0x0]
80005d6c:	3e b8       	mov	r8,-21
80005d6e:	f0 09 18 00 	cp.b	r9,r8
80005d72:	c0 f1       	brne	80005d90 <fat_mount+0x134>
80005d74:	4f 58       	lddpc	r8,80005f48 <fat_mount+0x2ec>
80005d76:	11 a9       	ld.ub	r9,r8[0x2]
80005d78:	39 08       	mov	r8,-112
80005d7a:	f0 09 18 00 	cp.b	r9,r8
80005d7e:	c0 91       	brne	80005d90 <fat_mount+0x134>
80005d80:	4f 28       	lddpc	r8,80005f48 <fat_mount+0x2ec>
80005d82:	f1 38 00 15 	ld.ub	r8,r8[21]
80005d86:	e2 18 00 f0 	andl	r8,0xf0,COH
80005d8a:	e0 48 00 f0 	cp.w	r8,240
80005d8e:	c0 60       	breq	80005d9a <fat_mount+0x13e>
80005d90:	30 39       	mov	r9,3
80005d92:	4f 08       	lddpc	r8,80005f50 <fat_mount+0x2f4>
80005d94:	b0 89       	st.b	r8[0x0],r9
80005d96:	30 0c       	mov	r12,0
80005d98:	cc b8       	rjmp	80005f2e <fat_mount+0x2d2>
80005d9a:	30 49       	mov	r9,4
80005d9c:	4e d8       	lddpc	r8,80005f50 <fat_mount+0x2f4>
80005d9e:	b0 89       	st.b	r8[0x0],r9
80005da0:	4e aa       	lddpc	r10,80005f48 <fat_mount+0x2ec>
80005da2:	f5 39 00 0c 	ld.ub	r9,r10[12]
80005da6:	a1 99       	lsr	r9,0x1
80005da8:	f5 38 00 0d 	ld.ub	r8,r10[13]
80005dac:	b3 38       	mul	r8,r9
80005dae:	5c 58       	castu.b	r8
80005db0:	4e 1b       	lddpc	r11,80005f34 <fat_mount+0x2d8>
80005db2:	b6 98       	st.b	r11[0x1],r8
80005db4:	30 0b       	mov	r11,0
80005db6:	50 1b       	stdsp	sp[0x4],r11
80005db8:	fa cb ff fc 	sub	r11,sp,-4
80005dbc:	fa c7 ff f9 	sub	r7,sp,-7
80005dc0:	f5 3c 00 16 	ld.ub	r12,r10[22]
80005dc4:	ae 8c       	st.b	r7[0x0],r12
80005dc6:	fa ce ff fa 	sub	lr,sp,-6
80005dca:	f5 3a 00 17 	ld.ub	r10,r10[23]
80005dce:	bc 8a       	st.b	lr[0x0],r10
80005dd0:	40 1a       	lddsp	r10,sp[0x4]
80005dd2:	58 0a       	cp.w	r10,0
80005dd4:	c0 e1       	brne	80005df0 <fat_mount+0x194>
80005dd6:	4d da       	lddpc	r10,80005f48 <fat_mount+0x2ec>
80005dd8:	f5 3c 00 24 	ld.ub	r12,r10[36]
80005ddc:	ae 8c       	st.b	r7[0x0],r12
80005dde:	f5 3c 00 25 	ld.ub	r12,r10[37]
80005de2:	bc 8c       	st.b	lr[0x0],r12
80005de4:	f5 3c 00 26 	ld.ub	r12,r10[38]
80005de8:	b6 9c       	st.b	r11[0x1],r12
80005dea:	f5 3a 00 27 	ld.ub	r10,r10[39]
80005dee:	b6 8a       	st.b	r11[0x0],r10
80005df0:	12 95       	mov	r5,r9
80005df2:	40 1c       	lddsp	r12,sp[0x4]
80005df4:	f2 0c 02 4c 	mul	r12,r9,r12
80005df8:	4c fa       	lddpc	r10,80005f34 <fat_mount+0x2d8>
80005dfa:	95 1c       	st.w	r10[0x4],r12
80005dfc:	4d 3a       	lddpc	r10,80005f48 <fat_mount+0x2ec>
80005dfe:	f5 3a 00 13 	ld.ub	r10,r10[19]
80005e02:	58 0a       	cp.w	r10,0
80005e04:	c1 61       	brne	80005e30 <fat_mount+0x1d4>
80005e06:	4d 16       	lddpc	r6,80005f48 <fat_mount+0x2ec>
80005e08:	ed 34 00 14 	ld.ub	r4,r6[20]
80005e0c:	30 06       	mov	r6,0
80005e0e:	ec 04 18 00 	cp.b	r4,r6
80005e12:	c0 f1       	brne	80005e30 <fat_mount+0x1d4>
80005e14:	4c da       	lddpc	r10,80005f48 <fat_mount+0x2ec>
80005e16:	f5 36 00 20 	ld.ub	r6,r10[32]
80005e1a:	ae 86       	st.b	r7[0x0],r6
80005e1c:	f5 37 00 21 	ld.ub	r7,r10[33]
80005e20:	bc 87       	st.b	lr[0x0],r7
80005e22:	f5 3e 00 22 	ld.ub	lr,r10[34]
80005e26:	b6 9e       	st.b	r11[0x1],lr
80005e28:	f5 3a 00 23 	ld.ub	r10,r10[35]
80005e2c:	b6 8a       	st.b	r11[0x0],r10
80005e2e:	c0 98       	rjmp	80005e40 <fat_mount+0x1e4>
80005e30:	ae 8a       	st.b	r7[0x0],r10
80005e32:	4c 6a       	lddpc	r10,80005f48 <fat_mount+0x2ec>
80005e34:	f5 3a 00 14 	ld.ub	r10,r10[20]
80005e38:	bc 8a       	st.b	lr[0x0],r10
80005e3a:	30 0a       	mov	r10,0
80005e3c:	b6 9a       	st.b	r11[0x1],r10
80005e3e:	b6 8a       	st.b	r11[0x0],r10
80005e40:	40 14       	lddsp	r4,sp[0x4]
80005e42:	4b da       	lddpc	r10,80005f34 <fat_mount+0x2d8>
80005e44:	f8 0b 15 01 	lsl	r11,r12,0x1
80005e48:	f5 5b 00 18 	st.h	r10[24],r11
80005e4c:	fa c6 ff f6 	sub	r6,sp,-10
80005e50:	fa c7 ff f4 	sub	r7,sp,-12
80005e54:	4b db       	lddpc	r11,80005f48 <fat_mount+0x2ec>
80005e56:	f7 3e 00 11 	ld.ub	lr,r11[17]
80005e5a:	0e fe       	st.b	--r7,lr
80005e5c:	f7 3e 00 12 	ld.ub	lr,r11[18]
80005e60:	ac 8e       	st.b	r6[0x0],lr
80005e62:	f2 03 15 04 	lsl	r3,r9,0x4
80005e66:	9a de       	ld.uh	lr,sp[0xa]
80005e68:	e6 0e 00 0e 	add	lr,r3,lr
80005e6c:	a5 7e       	lsl	lr,0x5
80005e6e:	20 1e       	sub	lr,1
80005e70:	f2 03 15 09 	lsl	r3,r9,0x9
80005e74:	fc 03 0c 02 	divs	r2,lr,r3
80005e78:	e4 09 02 4e 	mul	lr,r2,r9
80005e7c:	f5 5e 00 1a 	st.h	r10[26],lr
80005e80:	f7 33 00 0e 	ld.ub	r3,r11[14]
80005e84:	ae 83       	st.b	r7[0x0],r3
80005e86:	f7 37 00 0f 	ld.ub	r7,r11[15]
80005e8a:	ac 87       	st.b	r6[0x0],r7
80005e8c:	9a 57       	ld.sh	r7,sp[0xa]
80005e8e:	f7 3b 00 30 	ld.ub	r11,r11[48]
80005e92:	0e 96       	mov	r6,r7
80005e94:	ee 0b 01 0b 	sub	r11,r7,r11
80005e98:	b3 3b       	mul	r11,r9
80005e9a:	b4 4b       	st.h	r10[0x8],r11
80005e9c:	ee 09 02 49 	mul	r9,r7,r9
80005ea0:	5c 79       	castu.h	r9
80005ea2:	4a 8b       	lddpc	r11,80005f40 <fat_mount+0x2e4>
80005ea4:	76 0b       	ld.w	r11,r11[0x0]
80005ea6:	f2 0b 00 0b 	add	r11,r9,r11
80005eaa:	95 4b       	st.w	r10[0x10],r11
80005eac:	5c 7e       	castu.h	lr
80005eae:	fc 0c 00 1c 	add	r12,lr,r12<<0x1
80005eb2:	95 5c       	st.w	r10[0x14],r12
80005eb4:	58 08       	cp.w	r8,0
80005eb6:	c3 b0       	breq	80005f2c <fat_mount+0x2d0>
80005eb8:	a9 35       	mul	r5,r4
80005eba:	ea 09 01 09 	sub	r9,r5,r9
80005ebe:	18 19       	sub	r9,r12
80005ec0:	50 19       	stdsp	sp[0x4],r9
80005ec2:	30 1a       	mov	r10,1
80005ec4:	f4 08 18 00 	cp.b	r8,r10
80005ec8:	c0 70       	breq	80005ed6 <fat_mount+0x27a>
80005eca:	a1 99       	lsr	r9,0x1
80005ecc:	a1 98       	lsr	r8,0x1
80005ece:	f4 08 18 00 	cp.b	r8,r10
80005ed2:	cf c1       	brne	80005eca <fat_mount+0x26e>
80005ed4:	50 19       	stdsp	sp[0x4],r9
80005ed6:	40 18       	lddsp	r8,sp[0x4]
80005ed8:	f0 ca ff fe 	sub	r10,r8,-2
80005edc:	49 69       	lddpc	r9,80005f34 <fat_mount+0x2d8>
80005ede:	93 3a       	st.w	r9[0xc],r10
80005ee0:	e0 48 0f f4 	cp.w	r8,4084
80005ee4:	e0 8b 00 07 	brhi	80005ef2 <fat_mount+0x296>
80005ee8:	30 19       	mov	r9,1
80005eea:	49 58       	lddpc	r8,80005f3c <fat_mount+0x2e0>
80005eec:	b0 89       	st.b	r8[0x0],r9
80005eee:	30 1c       	mov	r12,1
80005ef0:	c1 f8       	rjmp	80005f2e <fat_mount+0x2d2>
80005ef2:	e0 48 ff f4 	cp.w	r8,65524
80005ef6:	e0 8b 00 07 	brhi	80005f04 <fat_mount+0x2a8>
80005efa:	30 29       	mov	r9,2
80005efc:	49 08       	lddpc	r8,80005f3c <fat_mount+0x2e0>
80005efe:	b0 89       	st.b	r8[0x0],r9
80005f00:	30 1c       	mov	r12,1
80005f02:	c1 68       	rjmp	80005f2e <fat_mount+0x2d2>
80005f04:	30 39       	mov	r9,3
80005f06:	48 e8       	lddpc	r8,80005f3c <fat_mount+0x2e0>
80005f08:	b0 89       	st.b	r8[0x0],r9
80005f0a:	48 b8       	lddpc	r8,80005f34 <fat_mount+0x2d8>
80005f0c:	2e 88       	sub	r8,-24
80005f0e:	48 f9       	lddpc	r9,80005f48 <fat_mount+0x2ec>
80005f10:	f3 3a 00 2c 	ld.ub	r10,r9[44]
80005f14:	b0 ba       	st.b	r8[0x3],r10
80005f16:	f3 3a 00 2d 	ld.ub	r10,r9[45]
80005f1a:	b0 aa       	st.b	r8[0x2],r10
80005f1c:	f3 3a 00 2e 	ld.ub	r10,r9[46]
80005f20:	b0 9a       	st.b	r8[0x1],r10
80005f22:	f3 39 00 2f 	ld.ub	r9,r9[47]
80005f26:	b0 89       	st.b	r8[0x0],r9
80005f28:	30 1c       	mov	r12,1
80005f2a:	c0 28       	rjmp	80005f2e <fat_mount+0x2d2>
80005f2c:	30 0c       	mov	r12,0
80005f2e:	2f dd       	sub	sp,-12
80005f30:	d8 32       	popm	r0-r7,pc
80005f32:	00 00       	add	r0,r0
80005f34:	00 00       	add	r0,r0
80005f36:	06 ec       	st.h	--r3,r12
80005f38:	80 00       	ld.sh	r0,r0[0x0]
80005f3a:	42 a4       	lddsp	r4,sp[0xa8]
80005f3c:	00 00       	add	r0,r0
80005f3e:	07 38       	ld.ub	r8,r3++
80005f40:	00 00       	add	r0,r0
80005f42:	04 a8       	st.w	r2++,r8
80005f44:	80 00       	ld.sh	r0,r0[0x0]
80005f46:	50 60       	stdsp	sp[0x18],r0
80005f48:	00 00       	add	r0,r0
80005f4a:	04 ec       	st.h	--r2,r12
80005f4c:	80 00       	ld.sh	r0,r0[0x0]
80005f4e:	48 d0       	lddpc	r0,80005f80 <file_bof+0x4>
80005f50:	00 00       	add	r0,r0
80005f52:	07 3c       	ld.ub	r12,r3++
80005f54:	80 00       	ld.sh	r0,r0[0x0]
80005f56:	6d 40       	ld.w	r0,r6[0x50]

80005f58 <file_eof>:
80005f58:	d4 01       	pushm	lr
80005f5a:	f0 1f 00 07 	mcall	80005f74 <file_eof+0x1c>
80005f5e:	c0 41       	brne	80005f66 <file_eof+0xe>
80005f60:	e0 6c 00 ff 	mov	r12,255
80005f64:	d8 02       	popm	pc
80005f66:	48 58       	lddpc	r8,80005f78 <file_eof+0x20>
80005f68:	70 29       	ld.w	r9,r8[0x8]
80005f6a:	70 38       	ld.w	r8,r8[0xc]
80005f6c:	10 39       	cp.w	r9,r8
80005f6e:	5f 8c       	srls	r12
80005f70:	d8 02       	popm	pc
80005f72:	00 00       	add	r0,r0
80005f74:	80 00       	ld.sh	r0,r0[0x0]
80005f76:	51 a4       	stdsp	sp[0x68],r4
80005f78:	00 00       	add	r0,r0
80005f7a:	04 ac       	st.w	r2++,r12

80005f7c <file_bof>:
80005f7c:	d4 01       	pushm	lr
80005f7e:	f0 1f 00 06 	mcall	80005f94 <file_bof+0x18>
80005f82:	c0 41       	brne	80005f8a <file_bof+0xe>
80005f84:	e0 6c 00 ff 	mov	r12,255
80005f88:	d8 02       	popm	pc
80005f8a:	48 48       	lddpc	r8,80005f98 <file_bof+0x1c>
80005f8c:	70 38       	ld.w	r8,r8[0xc]
80005f8e:	58 08       	cp.w	r8,0
80005f90:	5f 0c       	sreq	r12
80005f92:	d8 02       	popm	pc
80005f94:	80 00       	ld.sh	r0,r0[0x0]
80005f96:	51 a4       	stdsp	sp[0x68],r4
80005f98:	00 00       	add	r0,r0
80005f9a:	04 ac       	st.w	r2++,r12

80005f9c <file_close>:
80005f9c:	d4 01       	pushm	lr
80005f9e:	f0 1f 00 0a 	mcall	80005fc4 <file_close+0x28>
80005fa2:	c1 00       	breq	80005fc2 <file_close+0x26>
80005fa4:	48 98       	lddpc	r8,80005fc8 <file_close+0x2c>
80005fa6:	11 88       	ld.ub	r8,r8[0x0]
80005fa8:	e2 18 00 02 	andl	r8,0x2,COH
80005fac:	c0 80       	breq	80005fbc <file_close+0x20>
80005fae:	f0 1f 00 08 	mcall	80005fcc <file_close+0x30>
80005fb2:	c0 80       	breq	80005fc2 <file_close+0x26>
80005fb4:	f0 1f 00 07 	mcall	80005fd0 <file_close+0x34>
80005fb8:	f0 1f 00 07 	mcall	80005fd4 <file_close+0x38>
80005fbc:	30 09       	mov	r9,0
80005fbe:	48 38       	lddpc	r8,80005fc8 <file_close+0x2c>
80005fc0:	b0 89       	st.b	r8[0x0],r9
80005fc2:	d8 02       	popm	pc
80005fc4:	80 00       	ld.sh	r0,r0[0x0]
80005fc6:	51 a4       	stdsp	sp[0x68],r4
80005fc8:	00 00       	add	r0,r0
80005fca:	04 ac       	st.w	r2++,r12
80005fcc:	80 00       	ld.sh	r0,r0[0x0]
80005fce:	4f 00       	lddpc	r0,8000618c <file_read_buf+0x148>
80005fd0:	80 00       	ld.sh	r0,r0[0x0]
80005fd2:	46 c0       	lddsp	r0,sp[0x1b0]
80005fd4:	80 00       	ld.sh	r0,r0[0x0]
80005fd6:	48 64       	lddpc	r4,80005fec <file_getc+0x14>

80005fd8 <file_getc>:
80005fd8:	d4 01       	pushm	lr
80005fda:	49 78       	lddpc	r8,80006034 <file_getc+0x5c>
80005fdc:	11 88       	ld.ub	r8,r8[0x0]
80005fde:	f1 d8 c0 01 	bfextu	r8,r8,0x0,0x1
80005fe2:	c0 51       	brne	80005fec <file_getc+0x14>
80005fe4:	31 e9       	mov	r9,30
80005fe6:	49 58       	lddpc	r8,80006038 <file_getc+0x60>
80005fe8:	b0 89       	st.b	r8[0x0],r9
80005fea:	dc 0a       	popm	pc,r12=-1
80005fec:	49 28       	lddpc	r8,80006034 <file_getc+0x5c>
80005fee:	70 29       	ld.w	r9,r8[0x8]
80005ff0:	70 38       	ld.w	r8,r8[0xc]
80005ff2:	10 39       	cp.w	r9,r8
80005ff4:	e0 8b 00 06 	brhi	80006000 <file_getc+0x28>
80005ff8:	32 09       	mov	r9,32
80005ffa:	49 08       	lddpc	r8,80006038 <file_getc+0x60>
80005ffc:	b0 89       	st.b	r8[0x0],r9
80005ffe:	dc 0a       	popm	pc,r12=-1
80006000:	30 2c       	mov	r12,2
80006002:	f0 1f 00 0f 	mcall	8000603c <file_getc+0x64>
80006006:	c0 c1       	brne	8000601e <file_getc+0x46>
80006008:	48 c8       	lddpc	r8,80006038 <file_getc+0x60>
8000600a:	11 89       	ld.ub	r9,r8[0x0]
8000600c:	31 a8       	mov	r8,26
8000600e:	f0 09 18 00 	cp.b	r9,r8
80006012:	c0 20       	breq	80006016 <file_getc+0x3e>
80006014:	dc 0a       	popm	pc,r12=-1
80006016:	32 09       	mov	r9,32
80006018:	48 88       	lddpc	r8,80006038 <file_getc+0x60>
8000601a:	b0 89       	st.b	r8[0x0],r9
8000601c:	dc 0a       	popm	pc,r12=-1
8000601e:	48 68       	lddpc	r8,80006034 <file_getc+0x5c>
80006020:	70 39       	ld.w	r9,r8[0xc]
80006022:	f5 d9 c0 09 	bfextu	r10,r9,0x0,0x9
80006026:	48 7b       	lddpc	r11,80006040 <file_getc+0x68>
80006028:	f6 0a 07 0c 	ld.ub	r12,r11[r10]
8000602c:	2f f9       	sub	r9,-1
8000602e:	91 39       	st.w	r8[0xc],r9
80006030:	d8 02       	popm	pc
80006032:	00 00       	add	r0,r0
80006034:	00 00       	add	r0,r0
80006036:	04 ac       	st.w	r2++,r12
80006038:	00 00       	add	r0,r0
8000603a:	07 3c       	ld.ub	r12,r3++
8000603c:	80 00       	ld.sh	r0,r0[0x0]
8000603e:	4f 84       	lddpc	r4,8000621c <file_open+0x44>
80006040:	00 00       	add	r0,r0
80006042:	04 ec       	st.h	--r2,r12

80006044 <file_read_buf>:
80006044:	d4 31       	pushm	r0-r7,lr
80006046:	20 1d       	sub	sp,4
80006048:	18 95       	mov	r5,r12
8000604a:	16 94       	mov	r4,r11
8000604c:	f0 1f 00 59 	mcall	800061b0 <file_read_buf+0x16c>
80006050:	e0 80 00 ac 	breq	800061a8 <file_read_buf+0x164>
80006054:	4d 88       	lddpc	r8,800061b4 <file_read_buf+0x170>
80006056:	11 88       	ld.ub	r8,r8[0x0]
80006058:	f1 d8 c0 01 	bfextu	r8,r8,0x0,0x1
8000605c:	c0 40       	breq	80006064 <file_read_buf+0x20>
8000605e:	58 04       	cp.w	r4,0
80006060:	c0 71       	brne	8000606e <file_read_buf+0x2a>
80006062:	ca 38       	rjmp	800061a8 <file_read_buf+0x164>
80006064:	31 e9       	mov	r9,30
80006066:	4d 58       	lddpc	r8,800061b8 <file_read_buf+0x174>
80006068:	b0 89       	st.b	r8[0x0],r9
8000606a:	30 00       	mov	r0,0
8000606c:	c9 f8       	rjmp	800061aa <file_read_buf+0x166>
8000606e:	30 00       	mov	r0,0
80006070:	4d 13       	lddpc	r3,800061b4 <file_read_buf+0x170>
80006072:	30 0a       	mov	r10,0
80006074:	ba ba       	st.b	sp[0x3],r10
80006076:	4d 27       	lddpc	r7,800061bc <file_read_buf+0x178>
80006078:	f0 1f 00 52 	mcall	800061c0 <file_read_buf+0x17c>
8000607c:	c0 50       	breq	80006086 <file_read_buf+0x42>
8000607e:	32 09       	mov	r9,32
80006080:	4c e8       	lddpc	r8,800061b8 <file_read_buf+0x174>
80006082:	b0 89       	st.b	r8[0x0],r9
80006084:	c9 38       	rjmp	800061aa <file_read_buf+0x166>
80006086:	66 31       	ld.w	r1,r3[0xc]
80006088:	66 22       	ld.w	r2,r3[0x8]
8000608a:	02 12       	sub	r2,r1
8000608c:	e3 d1 c0 09 	bfextu	r1,r1,0x0,0x9
80006090:	30 09       	mov	r9,0
80006092:	f2 01 19 00 	cp.h	r1,r9
80006096:	5f 09       	sreq	r9
80006098:	e0 42 01 ff 	cp.w	r2,511
8000609c:	5f b8       	srhi	r8
8000609e:	f3 e8 00 08 	and	r8,r9,r8
800060a2:	1b ba       	ld.ub	r10,sp[0x3]
800060a4:	f4 08 18 00 	cp.b	r8,r10
800060a8:	c4 a0       	breq	8000613c <file_read_buf+0xf8>
800060aa:	e0 68 01 ff 	mov	r8,511
800060ae:	08 99       	mov	r9,r4
800060b0:	f0 04 19 00 	cp.h	r4,r8
800060b4:	e0 88 00 44 	brls	8000613c <file_read_buf+0xf8>
800060b8:	f1 d5 c0 02 	bfextu	r8,r5,0x0,0x2
800060bc:	c4 01       	brne	8000613c <file_read_buf+0xf8>
800060be:	08 98       	mov	r8,r4
800060c0:	5c 78       	castu.h	r8
800060c2:	5c 89       	casts.h	r9
800060c4:	ed d2 b0 10 	bfexts	r6,r2,0x0,0x10
800060c8:	10 32       	cp.w	r2,r8
800060ca:	f2 06 17 20 	movhs	r6,r9
800060ce:	30 1c       	mov	r12,1
800060d0:	f0 1f 00 3d 	mcall	800061c4 <file_read_buf+0x180>
800060d4:	c0 b1       	brne	800060ea <file_read_buf+0xa6>
800060d6:	4b 98       	lddpc	r8,800061b8 <file_read_buf+0x174>
800060d8:	11 89       	ld.ub	r9,r8[0x0]
800060da:	31 a8       	mov	r8,26
800060dc:	f0 09 18 00 	cp.b	r9,r8
800060e0:	c6 51       	brne	800061aa <file_read_buf+0x166>
800060e2:	32 09       	mov	r9,32
800060e4:	4b 58       	lddpc	r8,800061b8 <file_read_buf+0x174>
800060e6:	b0 89       	st.b	r8[0x0],r9
800060e8:	c6 18       	rjmp	800061aa <file_read_buf+0x166>
800060ea:	ed d6 c1 27 	bfextu	r6,r6,0x9,0x7
800060ee:	f1 d6 c0 10 	bfextu	r8,r6,0x0,0x10
800060f2:	6e 19       	ld.w	r9,r7[0x4]
800060f4:	12 38       	cp.w	r8,r9
800060f6:	e0 88 00 08 	brls	80006106 <file_read_buf+0xc2>
800060fa:	ed d9 b0 10 	bfexts	r6,r9,0x0,0x10
800060fe:	6e 18       	ld.w	r8,r7[0x4]
80006100:	58 08       	cp.w	r8,0
80006102:	c0 41       	brne	8000610a <file_read_buf+0xc6>
80006104:	c1 88       	rjmp	80006134 <file_read_buf+0xf0>
80006106:	8f 18       	st.w	r7[0x4],r8
80006108:	cf bb       	rjmp	800060fe <file_read_buf+0xba>
8000610a:	0a 9a       	mov	r10,r5
8000610c:	6e 0b       	ld.w	r11,r7[0x0]
8000610e:	4a f8       	lddpc	r8,800061c8 <file_read_buf+0x184>
80006110:	11 8c       	ld.ub	r12,r8[0x0]
80006112:	f0 1f 00 2f 	mcall	800061cc <file_read_buf+0x188>
80006116:	c0 50       	breq	80006120 <file_read_buf+0xdc>
80006118:	30 19       	mov	r9,1
8000611a:	4a 88       	lddpc	r8,800061b8 <file_read_buf+0x174>
8000611c:	b0 89       	st.b	r8[0x0],r9
8000611e:	c4 68       	rjmp	800061aa <file_read_buf+0x166>
80006120:	6e 18       	ld.w	r8,r7[0x4]
80006122:	20 18       	sub	r8,1
80006124:	8f 18       	st.w	r7[0x4],r8
80006126:	6e 09       	ld.w	r9,r7[0x0]
80006128:	2f f9       	sub	r9,-1
8000612a:	8f 09       	st.w	r7[0x0],r9
8000612c:	ea c5 fe 00 	sub	r5,r5,-512
80006130:	58 08       	cp.w	r8,0
80006132:	ce c1       	brne	8000610a <file_read_buf+0xc6>
80006134:	a9 76       	lsl	r6,0x9
80006136:	e5 d6 b0 10 	bfexts	r2,r6,0x0,0x10
8000613a:	c2 98       	rjmp	8000618c <file_read_buf+0x148>
8000613c:	30 2c       	mov	r12,2
8000613e:	f0 1f 00 22 	mcall	800061c4 <file_read_buf+0x180>
80006142:	c0 b1       	brne	80006158 <file_read_buf+0x114>
80006144:	49 d8       	lddpc	r8,800061b8 <file_read_buf+0x174>
80006146:	11 89       	ld.ub	r9,r8[0x0]
80006148:	31 a8       	mov	r8,26
8000614a:	f0 09 18 00 	cp.b	r9,r8
8000614e:	c2 e1       	brne	800061aa <file_read_buf+0x166>
80006150:	32 09       	mov	r9,32
80006152:	49 a8       	lddpc	r8,800061b8 <file_read_buf+0x174>
80006154:	b0 89       	st.b	r8[0x0],r9
80006156:	c2 a8       	rjmp	800061aa <file_read_buf+0x166>
80006158:	e0 68 02 00 	mov	r8,512
8000615c:	02 18       	sub	r8,r1
8000615e:	5c 88       	casts.h	r8
80006160:	f3 d8 c0 10 	bfextu	r9,r8,0x0,0x10
80006164:	f5 d2 b0 10 	bfexts	r10,r2,0x0,0x10
80006168:	12 32       	cp.w	r2,r9
8000616a:	f4 08 17 30 	movlo	r8,r10
8000616e:	f0 04 19 00 	cp.h	r4,r8
80006172:	e8 08 17 30 	movlo	r8,r4
80006176:	e5 d8 b0 10 	bfexts	r2,r8,0x0,0x10
8000617a:	ed d2 c0 10 	bfextu	r6,r2,0x0,0x10
8000617e:	0c 9a       	mov	r10,r6
80006180:	49 4b       	lddpc	r11,800061d0 <file_read_buf+0x18c>
80006182:	02 0b       	add	r11,r1
80006184:	0a 9c       	mov	r12,r5
80006186:	f0 1f 00 14 	mcall	800061d4 <file_read_buf+0x190>
8000618a:	0c 05       	add	r5,r6
8000618c:	f3 d2 c0 10 	bfextu	r9,r2,0x0,0x10
80006190:	66 38       	ld.w	r8,r3[0xc]
80006192:	f2 08 00 08 	add	r8,r9,r8
80006196:	87 38       	st.w	r3[0xc],r8
80006198:	e4 00 00 00 	add	r0,r2,r0
8000619c:	5c 80       	casts.h	r0
8000619e:	04 14       	sub	r4,r2
800061a0:	5c 84       	casts.h	r4
800061a2:	fe 91 ff 6b 	brne	80006078 <file_read_buf+0x34>
800061a6:	c0 28       	rjmp	800061aa <file_read_buf+0x166>
800061a8:	30 00       	mov	r0,0
800061aa:	00 9c       	mov	r12,r0
800061ac:	2f fd       	sub	sp,-4
800061ae:	d8 32       	popm	r0-r7,pc
800061b0:	80 00       	ld.sh	r0,r0[0x0]
800061b2:	51 a4       	stdsp	sp[0x68],r4
800061b4:	00 00       	add	r0,r0
800061b6:	04 ac       	st.w	r2++,r12
800061b8:	00 00       	add	r0,r0
800061ba:	07 3c       	ld.ub	r12,r3++
800061bc:	00 00       	add	r0,r0
800061be:	07 94       	ld.ub	r4,r3[0x1]
800061c0:	80 00       	ld.sh	r0,r0[0x0]
800061c2:	5f 58       	srlt	r8
800061c4:	80 00       	ld.sh	r0,r0[0x0]
800061c6:	4f 84       	lddpc	r4,800063a4 <nav_filelist_set+0x1c>
800061c8:	00 00       	add	r0,r0
800061ca:	06 ec       	st.h	--r3,r12
800061cc:	80 00       	ld.sh	r0,r0[0x0]
800061ce:	6d 98       	ld.w	r8,r6[0x64]
800061d0:	00 00       	add	r0,r0
800061d2:	04 ec       	st.h	--r2,r12
800061d4:	80 00       	ld.sh	r0,r0[0x0]
800061d6:	7c aa       	ld.w	r10,lr[0x28]

800061d8 <file_open>:
800061d8:	eb cd 40 c0 	pushm	r6-r7,lr
800061dc:	18 97       	mov	r7,r12
800061de:	f0 1f 00 20 	mcall	8000625c <file_open+0x84>
800061e2:	c3 a0       	breq	80006256 <file_open+0x7e>
800061e4:	f0 1f 00 1f 	mcall	80006260 <file_open+0x88>
800061e8:	c3 70       	breq	80006256 <file_open+0x7e>
800061ea:	0e 96       	mov	r6,r7
800061ec:	0e 98       	mov	r8,r7
800061ee:	e2 18 00 02 	andl	r8,0x2,COH
800061f2:	c1 90       	breq	80006224 <file_open+0x4c>
800061f4:	30 1c       	mov	r12,1
800061f6:	f0 1f 00 1c 	mcall	80006264 <file_open+0x8c>
800061fa:	c2 e0       	breq	80006256 <file_open+0x7e>
800061fc:	49 b8       	lddpc	r8,80006268 <file_open+0x90>
800061fe:	11 a8       	ld.ub	r8,r8[0x2]
80006200:	f1 d8 c0 01 	bfextu	r8,r8,0x0,0x1
80006204:	c0 60       	breq	80006210 <file_open+0x38>
80006206:	31 59       	mov	r9,21
80006208:	49 98       	lddpc	r8,8000626c <file_open+0x94>
8000620a:	b0 89       	st.b	r8[0x0],r9
8000620c:	e3 cf 80 c0 	ldm	sp++,r6-r7,pc,r12=0
80006210:	49 88       	lddpc	r8,80006270 <file_open+0x98>
80006212:	11 8c       	ld.ub	r12,r8[0x0]
80006214:	f0 1f 00 18 	mcall	80006274 <file_open+0x9c>
80006218:	c0 a0       	breq	8000622c <file_open+0x54>
8000621a:	31 49       	mov	r9,20
8000621c:	49 48       	lddpc	r8,8000626c <file_open+0x94>
8000621e:	b0 89       	st.b	r8[0x0],r9
80006220:	e3 cf 80 c0 	ldm	sp++,r6-r7,pc,r12=0
80006224:	30 0c       	mov	r12,0
80006226:	f0 1f 00 10 	mcall	80006264 <file_open+0x8c>
8000622a:	c1 60       	breq	80006256 <file_open+0x7e>
8000622c:	0c 98       	mov	r8,r6
8000622e:	e2 18 00 04 	andl	r8,0x4,COH
80006232:	c0 40       	breq	8000623a <file_open+0x62>
80006234:	30 09       	mov	r9,0
80006236:	48 d8       	lddpc	r8,80006268 <file_open+0x90>
80006238:	91 29       	st.w	r8[0x8],r9
8000623a:	e2 16 00 08 	andl	r6,0x8,COH
8000623e:	c0 50       	breq	80006248 <file_open+0x70>
80006240:	30 09       	mov	r9,0
80006242:	48 a8       	lddpc	r8,80006268 <file_open+0x90>
80006244:	91 39       	st.w	r8[0xc],r9
80006246:	c0 48       	rjmp	8000624e <file_open+0x76>
80006248:	48 88       	lddpc	r8,80006268 <file_open+0x90>
8000624a:	70 29       	ld.w	r9,r8[0x8]
8000624c:	91 39       	st.w	r8[0xc],r9
8000624e:	48 78       	lddpc	r8,80006268 <file_open+0x90>
80006250:	b0 87       	st.b	r8[0x0],r7
80006252:	e3 cf 90 c0 	ldm	sp++,r6-r7,pc,r12=1
80006256:	e3 cf 80 c0 	ldm	sp++,r6-r7,pc,r12=0
8000625a:	00 00       	add	r0,r0
8000625c:	80 00       	ld.sh	r0,r0[0x0]
8000625e:	51 c8       	stdsp	sp[0x70],r8
80006260:	80 00       	ld.sh	r0,r0[0x0]
80006262:	3f bc       	mov	r12,-5
80006264:	80 00       	ld.sh	r0,r0[0x0]
80006266:	47 10       	lddsp	r0,sp[0x1c4]
80006268:	00 00       	add	r0,r0
8000626a:	04 ac       	st.w	r2++,r12
8000626c:	00 00       	add	r0,r0
8000626e:	07 3c       	ld.ub	r12,r3++
80006270:	00 00       	add	r0,r0
80006272:	06 ec       	st.h	--r3,r12
80006274:	80 00       	ld.sh	r0,r0[0x0]
80006276:	6d 48       	ld.w	r8,r6[0x50]

80006278 <nav_getindex>:
80006278:	20 3d       	sub	sp,12
8000627a:	48 69       	lddpc	r9,80006290 <nav_getindex+0x18>
8000627c:	72 8b       	ld.w	r11,r9[0x20]
8000627e:	48 6a       	lddpc	r10,80006294 <nav_getindex+0x1c>
80006280:	94 1a       	ld.sh	r10,r10[0x2]
80006282:	13 89       	ld.ub	r9,r9[0x0]
80006284:	b8 89       	st.b	r12[0x0],r9
80006286:	99 1b       	st.w	r12[0x4],r11
80006288:	b8 4a       	st.h	r12[0x8],r10
8000628a:	2f dd       	sub	sp,-12
8000628c:	5e fc       	retal	r12
8000628e:	00 00       	add	r0,r0
80006290:	00 00       	add	r0,r0
80006292:	06 ec       	st.h	--r3,r12
80006294:	00 00       	add	r0,r0
80006296:	07 38       	ld.ub	r8,r3++

80006298 <nav_file_name>:
80006298:	d4 31       	pushm	r0-r7,lr
8000629a:	20 1d       	sub	sp,4
8000629c:	18 95       	mov	r5,r12
8000629e:	16 97       	mov	r7,r11
800062a0:	14 96       	mov	r6,r10
800062a2:	12 94       	mov	r4,r9
800062a4:	f0 1f 00 32 	mcall	8000636c <nav_file_name+0xd4>
800062a8:	c5 e0       	breq	80006364 <nav_file_name+0xcc>
800062aa:	30 18       	mov	r8,1
800062ac:	f0 06 18 00 	cp.b	r6,r8
800062b0:	5f 0a       	sreq	r10
800062b2:	30 08       	mov	r8,0
800062b4:	f0 07 18 00 	cp.b	r7,r8
800062b8:	5f 09       	sreq	r9
800062ba:	f5 e9 00 09 	and	r9,r10,r9
800062be:	f0 09 18 00 	cp.b	r9,r8
800062c2:	c0 30       	breq	800062c8 <nav_file_name+0x30>
800062c4:	30 1c       	mov	r12,1
800062c6:	c5 08       	rjmp	80006366 <nav_file_name+0xce>
800062c8:	4a a8       	lddpc	r8,80006370 <nav_file_name+0xd8>
800062ca:	90 13       	ld.sh	r3,r8[0x2]
800062cc:	58 03       	cp.w	r3,0
800062ce:	c0 31       	brne	800062d4 <nav_file_name+0x3c>
800062d0:	30 10       	mov	r0,1
800062d2:	c0 68       	rjmp	800062de <nav_file_name+0x46>
800062d4:	e6 c9 00 01 	sub	r9,r3,1
800062d8:	4a 68       	lddpc	r8,80006370 <nav_file_name+0xd8>
800062da:	b0 19       	st.h	r8[0x2],r9
800062dc:	30 00       	mov	r0,0
800062de:	30 08       	mov	r8,0
800062e0:	50 08       	stdsp	sp[0x0],r8
800062e2:	31 01       	mov	r1,16
800062e4:	4a 32       	lddpc	r2,80006370 <nav_file_name+0xd8>
800062e6:	c0 28       	rjmp	800062ea <nav_file_name+0x52>
800062e8:	30 10       	mov	r0,1
800062ea:	f0 1f 00 23 	mcall	80006374 <nav_file_name+0xdc>
800062ee:	c3 b0       	breq	80006364 <nav_file_name+0xcc>
800062f0:	58 00       	cp.w	r0,0
800062f2:	c0 70       	breq	80006300 <nav_file_name+0x68>
800062f4:	0c 9a       	mov	r10,r6
800062f6:	0e 9b       	mov	r11,r7
800062f8:	0a 9c       	mov	r12,r5
800062fa:	f0 1f 00 20 	mcall	80006378 <nav_file_name+0xe0>
800062fe:	c3 48       	rjmp	80006366 <nav_file_name+0xce>
80006300:	08 99       	mov	r9,r4
80006302:	0c 9a       	mov	r10,r6
80006304:	0e 9b       	mov	r11,r7
80006306:	0a 9c       	mov	r12,r5
80006308:	f0 1f 00 1d 	mcall	8000637c <nav_file_name+0xe4>
8000630c:	c0 f0       	breq	8000632a <nav_file_name+0x92>
8000630e:	49 d8       	lddpc	r8,80006380 <nav_file_name+0xe8>
80006310:	11 89       	ld.ub	r9,r8[0x0]
80006312:	30 08       	mov	r8,0
80006314:	f0 09 18 00 	cp.b	r9,r8
80006318:	c0 50       	breq	80006322 <nav_file_name+0x8a>
8000631a:	8a 08       	ld.sh	r8,r5[0x0]
8000631c:	40 09       	lddsp	r9,sp[0x0]
8000631e:	12 08       	add	r8,r9
80006320:	aa 08       	st.h	r5[0x0],r8
80006322:	49 48       	lddpc	r8,80006370 <nav_file_name+0xd8>
80006324:	b0 13       	st.h	r8[0x2],r3
80006326:	30 1c       	mov	r12,1
80006328:	c1 f8       	rjmp	80006366 <nav_file_name+0xce>
8000632a:	49 79       	lddpc	r9,80006384 <nav_file_name+0xec>
8000632c:	13 88       	ld.ub	r8,r9[0x0]
8000632e:	e2 08 18 00 	cp.b	r8,r1
80006332:	c0 70       	breq	80006340 <nav_file_name+0xa8>
80006334:	a4 13       	st.h	r2[0x2],r3
80006336:	30 b9       	mov	r9,11
80006338:	f2 08 18 00 	cp.b	r8,r9
8000633c:	c1 41       	brne	80006364 <nav_file_name+0xcc>
8000633e:	cd 5b       	rjmp	800062e8 <nav_file_name+0x50>
80006340:	49 09       	lddpc	r9,80006380 <nav_file_name+0xe8>
80006342:	13 88       	ld.ub	r8,r9[0x0]
80006344:	30 09       	mov	r9,0
80006346:	f2 08 18 00 	cp.b	r8,r9
8000634a:	c0 60       	breq	80006356 <nav_file_name+0xbe>
8000634c:	40 08       	lddsp	r8,sp[0x0]
8000634e:	2f 38       	sub	r8,-13
80006350:	5c 88       	casts.h	r8
80006352:	50 08       	stdsp	sp[0x0],r8
80006354:	c0 48       	rjmp	8000635c <nav_file_name+0xc4>
80006356:	2f 35       	sub	r5,-13
80006358:	20 d7       	sub	r7,13
8000635a:	5c 57       	castu.b	r7
8000635c:	84 18       	ld.sh	r8,r2[0x2]
8000635e:	20 18       	sub	r8,1
80006360:	a4 18       	st.h	r2[0x2],r8
80006362:	cc 4b       	rjmp	800062ea <nav_file_name+0x52>
80006364:	30 0c       	mov	r12,0
80006366:	2f fd       	sub	sp,-4
80006368:	d8 32       	popm	r0-r7,pc
8000636a:	00 00       	add	r0,r0
8000636c:	80 00       	ld.sh	r0,r0[0x0]
8000636e:	51 8c       	stdsp	sp[0x60],r12
80006370:	00 00       	add	r0,r0
80006372:	07 38       	ld.ub	r8,r3++
80006374:	80 00       	ld.sh	r0,r0[0x0]
80006376:	4f 00       	lddpc	r0,80006534 <nav_filelist_reset+0xc>
80006378:	80 00       	ld.sh	r0,r0[0x0]
8000637a:	44 d0       	lddsp	r0,sp[0x134]
8000637c:	80 00       	ld.sh	r0,r0[0x0]
8000637e:	43 20       	lddsp	r0,sp[0xc8]
80006380:	00 00       	add	r0,r0
80006382:	07 3d       	ld.ub	sp,r3++
80006384:	00 00       	add	r0,r0
80006386:	07 3c       	ld.ub	r12,r3++

80006388 <nav_filelist_set>:
80006388:	d4 31       	pushm	r0-r7,lr
8000638a:	20 4d       	sub	sp,16
8000638c:	50 0c       	stdsp	sp[0x0],r12
8000638e:	16 90       	mov	r0,r11
80006390:	f0 1f 00 53 	mcall	800064dc <nav_filelist_set+0x154>
80006394:	e0 80 00 a1 	breq	800064d6 <nav_filelist_set+0x14e>
80006398:	4d 28       	lddpc	r8,800064e0 <nav_filelist_set+0x158>
8000639a:	90 18       	ld.sh	r8,r8[0x2]
8000639c:	50 38       	stdsp	sp[0xc],r8
8000639e:	4d 28       	lddpc	r8,800064e4 <nav_filelist_set+0x15c>
800063a0:	f1 0a 00 24 	ld.sh	r10,r8[36]
800063a4:	50 2a       	stdsp	sp[0x8],r10
800063a6:	f1 38 00 2c 	ld.ub	r8,r8[44]
800063aa:	50 18       	stdsp	sp[0x4],r8
800063ac:	30 05       	mov	r5,0
800063ae:	30 12       	mov	r2,1
800063b0:	30 07       	mov	r7,0
800063b2:	4c c3       	lddpc	r3,800064e0 <nav_filelist_set+0x158>
800063b4:	4c c6       	lddpc	r6,800064e4 <nav_filelist_set+0x15c>
800063b6:	4c d1       	lddpc	r1,800064e8 <nav_filelist_set+0x160>
800063b8:	e4 00 18 00 	cp.b	r0,r2
800063bc:	5f 04       	sreq	r4
800063be:	ee 05 18 00 	cp.b	r5,r7
800063c2:	5f 18       	srne	r8
800063c4:	e9 e8 10 08 	or	r8,r4,r8
800063c8:	ee 08 18 00 	cp.b	r8,r7
800063cc:	c0 d0       	breq	800063e6 <nav_filelist_set+0x5e>
800063ce:	86 18       	ld.sh	r8,r3[0x2]
800063d0:	3f e9       	mov	r9,-2
800063d2:	f2 08 19 00 	cp.h	r8,r9
800063d6:	c0 51       	brne	800063e0 <nav_filelist_set+0x58>
800063d8:	30 89       	mov	r9,8
800063da:	4c 48       	lddpc	r8,800064e8 <nav_filelist_set+0x160>
800063dc:	b0 89       	st.b	r8[0x0],r9
800063de:	c7 18       	rjmp	800064c0 <nav_filelist_set+0x138>
800063e0:	2f f8       	sub	r8,-1
800063e2:	a6 18       	st.h	r3[0x2],r8
800063e4:	c1 e8       	rjmp	80006420 <nav_filelist_set+0x98>
800063e6:	86 18       	ld.sh	r8,r3[0x2]
800063e8:	3f fa       	mov	r10,-1
800063ea:	f4 08 19 00 	cp.h	r8,r10
800063ee:	c0 51       	brne	800063f8 <nav_filelist_set+0x70>
800063f0:	30 99       	mov	r9,9
800063f2:	4b e8       	lddpc	r8,800064e8 <nav_filelist_set+0x160>
800063f4:	b0 89       	st.b	r8[0x0],r9
800063f6:	c6 58       	rjmp	800064c0 <nav_filelist_set+0x138>
800063f8:	58 08       	cp.w	r8,0
800063fa:	c1 11       	brne	8000641c <nav_filelist_set+0x94>
800063fc:	ed 38 00 2c 	ld.ub	r8,r6[44]
80006400:	ee 08 18 00 	cp.b	r8,r7
80006404:	c0 80       	breq	80006414 <nav_filelist_set+0x8c>
80006406:	ed 38 00 2d 	ld.ub	r8,r6[45]
8000640a:	ee 08 18 00 	cp.b	r8,r7
8000640e:	c0 31       	brne	80006414 <nav_filelist_set+0x8c>
80006410:	30 15       	mov	r5,1
80006412:	c0 78       	rjmp	80006420 <nav_filelist_set+0x98>
80006414:	30 99       	mov	r9,9
80006416:	4b 58       	lddpc	r8,800064e8 <nav_filelist_set+0x160>
80006418:	b0 89       	st.b	r8[0x0],r9
8000641a:	c5 38       	rjmp	800064c0 <nav_filelist_set+0x138>
8000641c:	20 18       	sub	r8,1
8000641e:	a6 18       	st.h	r3[0x2],r8
80006420:	f0 1f 00 33 	mcall	800064ec <nav_filelist_set+0x164>
80006424:	c0 71       	brne	80006432 <nav_filelist_set+0xaa>
80006426:	03 89       	ld.ub	r9,r1[0x0]
80006428:	31 a8       	mov	r8,26
8000642a:	f0 09 18 00 	cp.b	r9,r8
8000642e:	c3 00       	breq	8000648e <nav_filelist_set+0x106>
80006430:	c4 88       	rjmp	800064c0 <nav_filelist_set+0x138>
80006432:	ed 3c 00 2c 	ld.ub	r12,r6[44]
80006436:	f0 1f 00 2f 	mcall	800064f0 <nav_filelist_set+0x168>
8000643a:	c1 c0       	breq	80006472 <nav_filelist_set+0xea>
8000643c:	58 05       	cp.w	r5,0
8000643e:	cb d1       	brne	800063b8 <nav_filelist_set+0x30>
80006440:	58 04       	cp.w	r4,0
80006442:	c0 70       	breq	80006450 <nav_filelist_set+0xc8>
80006444:	ed 08 00 24 	ld.sh	r8,r6[36]
80006448:	2f f8       	sub	r8,-1
8000644a:	ed 58 00 24 	st.h	r6[36],r8
8000644e:	c0 68       	rjmp	8000645a <nav_filelist_set+0xd2>
80006450:	ed 08 00 24 	ld.sh	r8,r6[36]
80006454:	20 18       	sub	r8,1
80006456:	ed 58 00 24 	st.h	r6[36],r8
8000645a:	40 09       	lddsp	r9,sp[0x0]
8000645c:	58 09       	cp.w	r9,0
8000645e:	c0 51       	brne	80006468 <nav_filelist_set+0xe0>
80006460:	f0 1f 00 25 	mcall	800064f4 <nav_filelist_set+0x16c>
80006464:	30 1c       	mov	r12,1
80006466:	c3 88       	rjmp	800064d6 <nav_filelist_set+0x14e>
80006468:	40 08       	lddsp	r8,sp[0x0]
8000646a:	20 18       	sub	r8,1
8000646c:	5c 88       	casts.h	r8
8000646e:	50 08       	stdsp	sp[0x0],r8
80006470:	ca 4b       	rjmp	800063b8 <nav_filelist_set+0x30>
80006472:	03 88       	ld.ub	r8,r1[0x0]
80006474:	30 a9       	mov	r9,10
80006476:	f2 08 18 00 	cp.b	r8,r9
8000647a:	5f 09       	sreq	r9
8000647c:	31 aa       	mov	r10,26
8000647e:	f4 08 18 00 	cp.b	r8,r10
80006482:	5f 08       	sreq	r8
80006484:	f3 e8 10 08 	or	r8,r9,r8
80006488:	ee 08 18 00 	cp.b	r8,r7
8000648c:	c9 60       	breq	800063b8 <nav_filelist_set+0x30>
8000648e:	58 05       	cp.w	r5,0
80006490:	c0 50       	breq	8000649a <nav_filelist_set+0x112>
80006492:	ed 67 00 2c 	st.b	r6[44],r7
80006496:	30 05       	mov	r5,0
80006498:	c9 0b       	rjmp	800063b8 <nav_filelist_set+0x30>
8000649a:	ed 38 00 2c 	ld.ub	r8,r6[44]
8000649e:	e4 08 18 00 	cp.b	r8,r2
800064a2:	c0 60       	breq	800064ae <nav_filelist_set+0x126>
800064a4:	ed 38 00 2d 	ld.ub	r8,r6[45]
800064a8:	ee 08 18 00 	cp.b	r8,r7
800064ac:	c0 50       	breq	800064b6 <nav_filelist_set+0x12e>
800064ae:	30 99       	mov	r9,9
800064b0:	48 e8       	lddpc	r8,800064e8 <nav_filelist_set+0x160>
800064b2:	b0 89       	st.b	r8[0x0],r9
800064b4:	c0 68       	rjmp	800064c0 <nav_filelist_set+0x138>
800064b6:	3f f8       	mov	r8,-1
800064b8:	a6 18       	st.h	r3[0x2],r8
800064ba:	ed 62 00 2c 	st.b	r6[44],r2
800064be:	c7 db       	rjmp	800063b8 <nav_filelist_set+0x30>
800064c0:	48 98       	lddpc	r8,800064e4 <nav_filelist_set+0x15c>
800064c2:	40 1a       	lddsp	r10,sp[0x4]
800064c4:	f1 6a 00 2c 	st.b	r8[44],r10
800064c8:	48 69       	lddpc	r9,800064e0 <nav_filelist_set+0x158>
800064ca:	40 3a       	lddsp	r10,sp[0xc]
800064cc:	b2 1a       	st.h	r9[0x2],r10
800064ce:	40 29       	lddsp	r9,sp[0x8]
800064d0:	f1 59 00 24 	st.h	r8[36],r9
800064d4:	30 0c       	mov	r12,0
800064d6:	2f cd       	sub	sp,-16
800064d8:	d8 32       	popm	r0-r7,pc
800064da:	00 00       	add	r0,r0
800064dc:	80 00       	ld.sh	r0,r0[0x0]
800064de:	51 ec       	stdsp	sp[0x78],r12
800064e0:	00 00       	add	r0,r0
800064e2:	07 38       	ld.ub	r8,r3++
800064e4:	00 00       	add	r0,r0
800064e6:	06 ec       	st.h	--r3,r12
800064e8:	00 00       	add	r0,r0
800064ea:	07 3c       	ld.ub	r12,r3++
800064ec:	80 00       	ld.sh	r0,r0[0x0]
800064ee:	4f 00       	lddpc	r0,800066ac <nav_filelist_first+0x20>
800064f0:	80 00       	ld.sh	r0,r0[0x0]
800064f2:	46 30       	lddsp	r0,sp[0x18c]
800064f4:	80 00       	ld.sh	r0,r0[0x0]
800064f6:	45 e8       	lddsp	r8,sp[0x178]

800064f8 <nav_filelist_findname>:
800064f8:	d4 21       	pushm	r4-r7,lr
800064fa:	18 95       	mov	r5,r12
800064fc:	16 94       	mov	r4,r11
800064fe:	30 16       	mov	r6,1
80006500:	30 07       	mov	r7,0
80006502:	0c 9b       	mov	r11,r6
80006504:	0e 9c       	mov	r12,r7
80006506:	f0 1f 00 07 	mcall	80006520 <nav_filelist_findname+0x28>
8000650a:	c0 90       	breq	8000651c <nav_filelist_findname+0x24>
8000650c:	08 99       	mov	r9,r4
8000650e:	0e 9a       	mov	r10,r7
80006510:	0e 9b       	mov	r11,r7
80006512:	0a 9c       	mov	r12,r5
80006514:	f0 1f 00 04 	mcall	80006524 <nav_filelist_findname+0x2c>
80006518:	cf 50       	breq	80006502 <nav_filelist_findname+0xa>
8000651a:	30 1c       	mov	r12,1
8000651c:	d8 22       	popm	r4-r7,pc
8000651e:	00 00       	add	r0,r0
80006520:	80 00       	ld.sh	r0,r0[0x0]
80006522:	63 88       	ld.w	r8,r1[0x60]
80006524:	80 00       	ld.sh	r0,r0[0x0]
80006526:	62 98       	ld.w	r8,r1[0x24]

80006528 <nav_filelist_reset>:
80006528:	d4 01       	pushm	lr
8000652a:	f0 1f 00 04 	mcall	80006538 <nav_filelist_reset+0x10>
8000652e:	c0 40       	breq	80006536 <nav_filelist_reset+0xe>
80006530:	f0 1f 00 03 	mcall	8000653c <nav_filelist_reset+0x14>
80006534:	30 1c       	mov	r12,1
80006536:	d8 02       	popm	pc
80006538:	80 00       	ld.sh	r0,r0[0x0]
8000653a:	51 ec       	stdsp	sp[0x78],r12
8000653c:	80 00       	ld.sh	r0,r0[0x0]
8000653e:	42 a4       	lddsp	r4,sp[0xa8]

80006540 <nav_file_create>:
80006540:	eb cd 40 80 	pushm	r7,lr
80006544:	18 97       	mov	r7,r12
80006546:	f0 1f 00 13 	mcall	80006590 <nav_file_create+0x50>
8000654a:	c2 10       	breq	8000658c <nav_file_create+0x4c>
8000654c:	30 0b       	mov	r11,0
8000654e:	0e 9c       	mov	r12,r7
80006550:	f0 1f 00 11 	mcall	80006594 <nav_file_create+0x54>
80006554:	c0 60       	breq	80006560 <nav_file_create+0x20>
80006556:	32 a9       	mov	r9,42
80006558:	49 08       	lddpc	r8,80006598 <nav_file_create+0x58>
8000655a:	b0 89       	st.b	r8[0x0],r9
8000655c:	e3 cf 80 80 	ldm	sp++,r7,pc,r12=0
80006560:	0e 9c       	mov	r12,r7
80006562:	f0 1f 00 0f 	mcall	8000659c <nav_file_create+0x5c>
80006566:	c1 30       	breq	8000658c <nav_file_create+0x4c>
80006568:	48 e8       	lddpc	r8,800065a0 <nav_file_create+0x60>
8000656a:	30 09       	mov	r9,0
8000656c:	91 19       	st.w	r8[0x4],r9
8000656e:	91 29       	st.w	r8[0x8],r9
80006570:	b0 a9       	st.b	r8[0x2],r9
80006572:	48 d8       	lddpc	r8,800065a4 <nav_file_create+0x64>
80006574:	f1 09 00 24 	ld.sh	r9,r8[36]
80006578:	2f f9       	sub	r9,-1
8000657a:	f1 59 00 24 	st.h	r8[36],r9
8000657e:	30 19       	mov	r9,1
80006580:	f1 69 00 2c 	st.b	r8[44],r9
80006584:	f0 1f 00 09 	mcall	800065a8 <nav_file_create+0x68>
80006588:	e3 cd 80 80 	ldm	sp++,r7,pc
8000658c:	e3 cf 80 80 	ldm	sp++,r7,pc,r12=0
80006590:	80 00       	ld.sh	r0,r0[0x0]
80006592:	65 28       	ld.w	r8,r2[0x48]
80006594:	80 00       	ld.sh	r0,r0[0x0]
80006596:	64 f8       	ld.w	r8,r2[0x3c]
80006598:	00 00       	add	r0,r0
8000659a:	07 3c       	ld.ub	r12,r3++
8000659c:	80 00       	ld.sh	r0,r0[0x0]
8000659e:	5b b4       	cp.w	r4,-5
800065a0:	00 00       	add	r0,r0
800065a2:	04 ac       	st.w	r2++,r12
800065a4:	00 00       	add	r0,r0
800065a6:	06 ec       	st.h	--r3,r12
800065a8:	80 00       	ld.sh	r0,r0[0x0]
800065aa:	48 64       	lddpc	r4,800065c0 <nav_dir_gotoparent+0x14>

800065ac <nav_dir_gotoparent>:
800065ac:	d4 21       	pushm	r4-r7,lr
800065ae:	f0 1f 00 1f 	mcall	80006628 <nav_dir_gotoparent+0x7c>
800065b2:	c3 80       	breq	80006622 <nav_dir_gotoparent+0x76>
800065b4:	49 e8       	lddpc	r8,8000662c <nav_dir_gotoparent+0x80>
800065b6:	70 88       	ld.w	r8,r8[0x20]
800065b8:	58 08       	cp.w	r8,0
800065ba:	c0 51       	brne	800065c4 <nav_dir_gotoparent+0x18>
800065bc:	31 99       	mov	r9,25
800065be:	49 d8       	lddpc	r8,80006630 <nav_dir_gotoparent+0x84>
800065c0:	b0 89       	st.b	r8[0x0],r9
800065c2:	d8 2a       	popm	r4-r7,pc,r12=0
800065c4:	30 19       	mov	r9,1
800065c6:	49 c8       	lddpc	r8,80006634 <nav_dir_gotoparent+0x88>
800065c8:	b0 19       	st.h	r8[0x2],r9
800065ca:	f0 1f 00 1c 	mcall	80006638 <nav_dir_gotoparent+0x8c>
800065ce:	c2 a0       	breq	80006622 <nav_dir_gotoparent+0x76>
800065d0:	f0 1f 00 1b 	mcall	8000663c <nav_dir_gotoparent+0x90>
800065d4:	49 68       	lddpc	r8,8000662c <nav_dir_gotoparent+0x80>
800065d6:	70 87       	ld.w	r7,r8[0x20]
800065d8:	49 a9       	lddpc	r9,80006640 <nav_dir_gotoparent+0x94>
800065da:	72 19       	ld.w	r9,r9[0x4]
800065dc:	91 89       	st.w	r8[0x20],r9
800065de:	f0 1f 00 1a 	mcall	80006644 <nav_dir_gotoparent+0x98>
800065e2:	c2 00       	breq	80006622 <nav_dir_gotoparent+0x76>
800065e4:	49 28       	lddpc	r8,8000662c <nav_dir_gotoparent+0x80>
800065e6:	f1 39 00 2d 	ld.ub	r9,r8[45]
800065ea:	30 08       	mov	r8,0
800065ec:	f0 09 18 00 	cp.b	r9,r8
800065f0:	c0 d0       	breq	8000660a <nav_dir_gotoparent+0x5e>
800065f2:	48 f8       	lddpc	r8,8000662c <nav_dir_gotoparent+0x80>
800065f4:	f1 39 00 2c 	ld.ub	r9,r8[44]
800065f8:	30 08       	mov	r8,0
800065fa:	f0 09 18 00 	cp.b	r9,r8
800065fe:	c0 60       	breq	8000660a <nav_dir_gotoparent+0x5e>
80006600:	c1 28       	rjmp	80006624 <nav_dir_gotoparent+0x78>
80006602:	6c 18       	ld.w	r8,r6[0x4]
80006604:	0e 38       	cp.w	r8,r7
80006606:	c0 51       	brne	80006610 <nav_dir_gotoparent+0x64>
80006608:	c0 e8       	rjmp	80006624 <nav_dir_gotoparent+0x78>
8000660a:	30 15       	mov	r5,1
8000660c:	30 04       	mov	r4,0
8000660e:	48 d6       	lddpc	r6,80006640 <nav_dir_gotoparent+0x94>
80006610:	0a 9b       	mov	r11,r5
80006612:	08 9c       	mov	r12,r4
80006614:	f0 1f 00 0d 	mcall	80006648 <nav_dir_gotoparent+0x9c>
80006618:	cf 51       	brne	80006602 <nav_dir_gotoparent+0x56>
8000661a:	30 89       	mov	r9,8
8000661c:	48 58       	lddpc	r8,80006630 <nav_dir_gotoparent+0x84>
8000661e:	b0 89       	st.b	r8[0x0],r9
80006620:	d8 22       	popm	r4-r7,pc
80006622:	d8 2a       	popm	r4-r7,pc,r12=0
80006624:	da 2a       	popm	r4-r7,pc,r12=1
80006626:	00 00       	add	r0,r0
80006628:	80 00       	ld.sh	r0,r0[0x0]
8000662a:	51 ec       	stdsp	sp[0x78],r12
8000662c:	00 00       	add	r0,r0
8000662e:	06 ec       	st.h	--r3,r12
80006630:	00 00       	add	r0,r0
80006632:	07 3c       	ld.ub	r12,r3++
80006634:	00 00       	add	r0,r0
80006636:	07 38       	ld.ub	r8,r3++
80006638:	80 00       	ld.sh	r0,r0[0x0]
8000663a:	4f 00       	lddpc	r0,800067f8 <nav_dir_make+0x68>
8000663c:	80 00       	ld.sh	r0,r0[0x0]
8000663e:	45 e8       	lddsp	r8,sp[0x178]
80006640:	00 00       	add	r0,r0
80006642:	04 ac       	st.w	r2++,r12
80006644:	80 00       	ld.sh	r0,r0[0x0]
80006646:	65 28       	ld.w	r8,r2[0x48]
80006648:	80 00       	ld.sh	r0,r0[0x0]
8000664a:	63 88       	ld.w	r8,r1[0x60]

8000664c <nav_dir_cd>:
8000664c:	d4 01       	pushm	lr
8000664e:	f0 1f 00 0a 	mcall	80006674 <nav_dir_cd+0x28>
80006652:	c1 00       	breq	80006672 <nav_dir_cd+0x26>
80006654:	f0 1f 00 09 	mcall	80006678 <nav_dir_cd+0x2c>
80006658:	c0 d0       	breq	80006672 <nav_dir_cd+0x26>
8000665a:	48 98       	lddpc	r8,8000667c <nav_dir_cd+0x30>
8000665c:	48 99       	lddpc	r9,80006680 <nav_dir_cd+0x34>
8000665e:	92 19       	ld.sh	r9,r9[0x2]
80006660:	f1 59 00 1c 	st.h	r8[28],r9
80006664:	48 89       	lddpc	r9,80006684 <nav_dir_cd+0x38>
80006666:	72 19       	ld.w	r9,r9[0x4]
80006668:	91 89       	st.w	r8[0x20],r9
8000666a:	f0 1f 00 08 	mcall	80006688 <nav_dir_cd+0x3c>
8000666e:	5f 1c       	srne	r12
80006670:	d8 02       	popm	pc
80006672:	d8 0a       	popm	pc,r12=0
80006674:	80 00       	ld.sh	r0,r0[0x0]
80006676:	51 c8       	stdsp	sp[0x70],r8
80006678:	80 00       	ld.sh	r0,r0[0x0]
8000667a:	42 8c       	lddsp	r12,sp[0xa0]
8000667c:	00 00       	add	r0,r0
8000667e:	06 ec       	st.h	--r3,r12
80006680:	00 00       	add	r0,r0
80006682:	07 38       	ld.ub	r8,r3++
80006684:	00 00       	add	r0,r0
80006686:	04 ac       	st.w	r2++,r12
80006688:	80 00       	ld.sh	r0,r0[0x0]
8000668a:	65 28       	ld.w	r8,r2[0x48]

8000668c <nav_filelist_first>:
8000668c:	d4 21       	pushm	r4-r7,lr
8000668e:	18 97       	mov	r7,r12
80006690:	f0 1f 00 0b 	mcall	800066bc <nav_filelist_first+0x30>
80006694:	c0 81       	brne	800066a4 <nav_filelist_first+0x18>
80006696:	d8 22       	popm	r4-r7,pc
80006698:	ed 38 00 2c 	ld.ub	r8,r6[44]
8000669c:	ee 08 18 00 	cp.b	r8,r7
800066a0:	c0 51       	brne	800066aa <nav_filelist_first+0x1e>
800066a2:	da 2a       	popm	r4-r7,pc,r12=1
800066a4:	30 15       	mov	r5,1
800066a6:	30 04       	mov	r4,0
800066a8:	48 66       	lddpc	r6,800066c0 <nav_filelist_first+0x34>
800066aa:	0a 9b       	mov	r11,r5
800066ac:	08 9c       	mov	r12,r4
800066ae:	f0 1f 00 06 	mcall	800066c4 <nav_filelist_first+0x38>
800066b2:	cf 31       	brne	80006698 <nav_filelist_first+0xc>
800066b4:	30 99       	mov	r9,9
800066b6:	48 58       	lddpc	r8,800066c8 <nav_filelist_first+0x3c>
800066b8:	b0 89       	st.b	r8[0x0],r9
800066ba:	d8 22       	popm	r4-r7,pc
800066bc:	80 00       	ld.sh	r0,r0[0x0]
800066be:	65 28       	ld.w	r8,r2[0x48]
800066c0:	00 00       	add	r0,r0
800066c2:	06 ec       	st.h	--r3,r12
800066c4:	80 00       	ld.sh	r0,r0[0x0]
800066c6:	63 88       	ld.w	r8,r1[0x60]
800066c8:	00 00       	add	r0,r0
800066ca:	07 3c       	ld.ub	r12,r3++

800066cc <nav_filelist_nb>:
800066cc:	d4 31       	pushm	r0-r7,lr
800066ce:	18 91       	mov	r1,r12
800066d0:	49 98       	lddpc	r8,80006734 <nav_filelist_nb+0x68>
800066d2:	f1 00 00 24 	ld.sh	r0,r8[36]
800066d6:	f0 1f 00 19 	mcall	80006738 <nav_filelist_nb+0x6c>
800066da:	c0 31       	brne	800066e0 <nav_filelist_nb+0x14>
800066dc:	30 04       	mov	r4,0
800066de:	c2 88       	rjmp	8000672e <nav_filelist_nb+0x62>
800066e0:	30 04       	mov	r4,0
800066e2:	08 97       	mov	r7,r4
800066e4:	30 13       	mov	r3,1
800066e6:	08 92       	mov	r2,r4
800066e8:	49 36       	lddpc	r6,80006734 <nav_filelist_nb+0x68>
800066ea:	30 15       	mov	r5,1
800066ec:	c0 b8       	rjmp	80006702 <nav_filelist_nb+0x36>
800066ee:	ed 38 00 2c 	ld.ub	r8,r6[44]
800066f2:	ea 08 18 00 	cp.b	r8,r5
800066f6:	c0 41       	brne	800066fe <nav_filelist_nb+0x32>
800066f8:	2f f4       	sub	r4,-1
800066fa:	5c 84       	casts.h	r4
800066fc:	c0 38       	rjmp	80006702 <nav_filelist_nb+0x36>
800066fe:	2f f7       	sub	r7,-1
80006700:	5c 87       	casts.h	r7
80006702:	06 9b       	mov	r11,r3
80006704:	04 9c       	mov	r12,r2
80006706:	f0 1f 00 0e 	mcall	8000673c <nav_filelist_nb+0x70>
8000670a:	cf 21       	brne	800066ee <nav_filelist_nb+0x22>
8000670c:	f0 1f 00 0b 	mcall	80006738 <nav_filelist_nb+0x6c>
80006710:	3f f8       	mov	r8,-1
80006712:	f0 00 19 00 	cp.h	r0,r8
80006716:	c0 60       	breq	80006722 <nav_filelist_nb+0x56>
80006718:	30 1b       	mov	r11,1
8000671a:	f9 d0 c0 10 	bfextu	r12,r0,0x0,0x10
8000671e:	f0 1f 00 08 	mcall	8000673c <nav_filelist_nb+0x70>
80006722:	30 18       	mov	r8,1
80006724:	5c 87       	casts.h	r7
80006726:	e2 08 18 00 	cp.b	r8,r1
8000672a:	ee 04 17 10 	movne	r4,r7
8000672e:	08 9c       	mov	r12,r4
80006730:	d8 32       	popm	r0-r7,pc
80006732:	00 00       	add	r0,r0
80006734:	00 00       	add	r0,r0
80006736:	06 ec       	st.h	--r3,r12
80006738:	80 00       	ld.sh	r0,r0[0x0]
8000673a:	65 28       	ld.w	r8,r2[0x48]
8000673c:	80 00       	ld.sh	r0,r0[0x0]
8000673e:	63 88       	ld.w	r8,r1[0x60]

80006740 <nav_filelist_last>:
80006740:	eb cd 40 c0 	pushm	r6-r7,lr
80006744:	18 96       	mov	r6,r12
80006746:	f0 1f 00 0f 	mcall	80006780 <nav_filelist_last+0x40>
8000674a:	ef dc b0 10 	bfexts	r7,r12,0x0,0x10
8000674e:	c0 61       	brne	8000675a <nav_filelist_last+0x1a>
80006750:	30 99       	mov	r9,9
80006752:	48 d8       	lddpc	r8,80006784 <nav_filelist_last+0x44>
80006754:	b0 89       	st.b	r8[0x0],r9
80006756:	e3 cf 80 c0 	ldm	sp++,r6-r7,pc,r12=0
8000675a:	0c 9c       	mov	r12,r6
8000675c:	f0 1f 00 0b 	mcall	80006788 <nav_filelist_last+0x48>
80006760:	c0 d0       	breq	8000677a <nav_filelist_last+0x3a>
80006762:	30 18       	mov	r8,1
80006764:	f0 07 19 00 	cp.h	r7,r8
80006768:	c0 31       	brne	8000676e <nav_filelist_last+0x2e>
8000676a:	e3 cf 90 c0 	ldm	sp++,r6-r7,pc,r12=1
8000676e:	0e 9c       	mov	r12,r7
80006770:	20 2c       	sub	r12,2
80006772:	30 1b       	mov	r11,1
80006774:	5c 7c       	castu.h	r12
80006776:	f0 1f 00 06 	mcall	8000678c <nav_filelist_last+0x4c>
8000677a:	e3 cd 80 c0 	ldm	sp++,r6-r7,pc
8000677e:	00 00       	add	r0,r0
80006780:	80 00       	ld.sh	r0,r0[0x0]
80006782:	66 cc       	ld.w	r12,r3[0x30]
80006784:	00 00       	add	r0,r0
80006786:	07 3c       	ld.ub	r12,r3++
80006788:	80 00       	ld.sh	r0,r0[0x0]
8000678a:	66 8c       	ld.w	r12,r3[0x20]
8000678c:	80 00       	ld.sh	r0,r0[0x0]
8000678e:	63 88       	ld.w	r8,r1[0x60]

80006790 <nav_dir_make>:
80006790:	eb cd 40 80 	pushm	r7,lr
80006794:	18 97       	mov	r7,r12
80006796:	f0 1f 00 18 	mcall	800067f4 <nav_dir_make+0x64>
8000679a:	c2 b0       	breq	800067f0 <nav_dir_make+0x60>
8000679c:	0e 9c       	mov	r12,r7
8000679e:	f0 1f 00 17 	mcall	800067f8 <nav_dir_make+0x68>
800067a2:	c2 70       	breq	800067f0 <nav_dir_make+0x60>
800067a4:	49 68       	lddpc	r8,800067fc <nav_dir_make+0x6c>
800067a6:	3f f9       	mov	r9,-1
800067a8:	b0 89       	st.b	r8[0x0],r9
800067aa:	30 19       	mov	r9,1
800067ac:	91 19       	st.w	r8[0x4],r9
800067ae:	f0 1f 00 15 	mcall	80006800 <nav_dir_make+0x70>
800067b2:	c0 71       	brne	800067c0 <nav_dir_make+0x30>
800067b4:	f0 1f 00 14 	mcall	80006804 <nav_dir_make+0x74>
800067b8:	f0 1f 00 14 	mcall	80006808 <nav_dir_make+0x78>
800067bc:	e3 cf 80 80 	ldm	sp++,r7,pc,r12=0
800067c0:	49 38       	lddpc	r8,8000680c <nav_dir_make+0x7c>
800067c2:	48 f9       	lddpc	r9,800067fc <nav_dir_make+0x6c>
800067c4:	72 09       	ld.w	r9,r9[0x0]
800067c6:	91 19       	st.w	r8[0x4],r9
800067c8:	30 09       	mov	r9,0
800067ca:	91 29       	st.w	r8[0x8],r9
800067cc:	31 09       	mov	r9,16
800067ce:	b0 a9       	st.b	r8[0x2],r9
800067d0:	f0 1f 00 10 	mcall	80006810 <nav_dir_make+0x80>
800067d4:	c0 e0       	breq	800067f0 <nav_dir_make+0x60>
800067d6:	f0 1f 00 10 	mcall	80006814 <nav_dir_make+0x84>
800067da:	c0 b0       	breq	800067f0 <nav_dir_make+0x60>
800067dc:	f0 1f 00 0f 	mcall	80006818 <nav_dir_make+0x88>
800067e0:	f0 1f 00 0a 	mcall	80006808 <nav_dir_make+0x78>
800067e4:	c0 60       	breq	800067f0 <nav_dir_make+0x60>
800067e6:	30 0c       	mov	r12,0
800067e8:	f0 1f 00 0d 	mcall	8000681c <nav_dir_make+0x8c>
800067ec:	e3 cd 80 80 	ldm	sp++,r7,pc
800067f0:	e3 cf 80 80 	ldm	sp++,r7,pc,r12=0
800067f4:	80 00       	ld.sh	r0,r0[0x0]
800067f6:	51 ec       	stdsp	sp[0x78],r12
800067f8:	80 00       	ld.sh	r0,r0[0x0]
800067fa:	65 40       	ld.w	r0,r2[0x50]
800067fc:	00 00       	add	r0,r0
800067fe:	07 94       	ld.ub	r4,r3[0x1]
80006800:	80 00       	ld.sh	r0,r0[0x0]
80006802:	56 ac       	stdsp	sp[0x1a8],r12
80006804:	80 00       	ld.sh	r0,r0[0x0]
80006806:	54 b8       	stdsp	sp[0x12c],r8
80006808:	80 00       	ld.sh	r0,r0[0x0]
8000680a:	48 64       	lddpc	r4,80006820 <nav_partition_mount>
8000680c:	00 00       	add	r0,r0
8000680e:	04 ac       	st.w	r2++,r12
80006810:	80 00       	ld.sh	r0,r0[0x0]
80006812:	53 50       	stdsp	sp[0xd4],r0
80006814:	80 00       	ld.sh	r0,r0[0x0]
80006816:	4f 00       	lddpc	r0,800069d4 <nav_setcwd+0xbc>
80006818:	80 00       	ld.sh	r0,r0[0x0]
8000681a:	46 c0       	lddsp	r0,sp[0x1b0]
8000681c:	80 00       	ld.sh	r0,r0[0x0]
8000681e:	67 40       	ld.w	r0,r3[0x50]

80006820 <nav_partition_mount>:
80006820:	d4 01       	pushm	lr
80006822:	f0 1f 00 0a 	mcall	80006848 <nav_partition_mount+0x28>
80006826:	c0 f0       	breq	80006844 <nav_partition_mount+0x24>
80006828:	48 98       	lddpc	r8,8000684c <nav_partition_mount+0x2c>
8000682a:	11 89       	ld.ub	r9,r8[0x0]
8000682c:	30 08       	mov	r8,0
8000682e:	f0 09 18 00 	cp.b	r9,r8
80006832:	c0 70       	breq	80006840 <nav_partition_mount+0x20>
80006834:	30 09       	mov	r9,0
80006836:	48 78       	lddpc	r8,80006850 <nav_partition_mount+0x30>
80006838:	91 89       	st.w	r8[0x20],r9
8000683a:	f0 1f 00 07 	mcall	80006854 <nav_partition_mount+0x34>
8000683e:	da 0a       	popm	pc,r12=1
80006840:	f0 1f 00 06 	mcall	80006858 <nav_partition_mount+0x38>
80006844:	d8 02       	popm	pc
80006846:	00 00       	add	r0,r0
80006848:	80 00       	ld.sh	r0,r0[0x0]
8000684a:	51 18       	stdsp	sp[0x44],r8
8000684c:	00 00       	add	r0,r0
8000684e:	07 38       	ld.ub	r8,r3++
80006850:	00 00       	add	r0,r0
80006852:	06 ec       	st.h	--r3,r12
80006854:	80 00       	ld.sh	r0,r0[0x0]
80006856:	42 a4       	lddsp	r4,sp[0xa8]
80006858:	80 00       	ld.sh	r0,r0[0x0]
8000685a:	5c 5c       	castu.b	r12

8000685c <nav_dir_root>:
8000685c:	d4 01       	pushm	lr
8000685e:	f0 1f 00 02 	mcall	80006864 <nav_dir_root+0x8>
80006862:	d8 02       	popm	pc
80006864:	80 00       	ld.sh	r0,r0[0x0]
80006866:	68 20       	ld.w	r0,r4[0x8]

80006868 <nav_drive_set>:
80006868:	eb cd 40 80 	pushm	r7,lr
8000686c:	18 97       	mov	r7,r12
8000686e:	f0 1f 00 0f 	mcall	800068a8 <nav_drive_set+0x40>
80006872:	c1 90       	breq	800068a4 <nav_drive_set+0x3c>
80006874:	f0 1f 00 0e 	mcall	800068ac <nav_drive_set+0x44>
80006878:	ee 0c 18 00 	cp.b	r12,r7
8000687c:	e0 8b 00 07 	brhi	8000688a <nav_drive_set+0x22>
80006880:	30 69       	mov	r9,6
80006882:	48 c8       	lddpc	r8,800068b0 <nav_drive_set+0x48>
80006884:	b0 89       	st.b	r8[0x0],r9
80006886:	e3 cf 80 80 	ldm	sp++,r7,pc,r12=0
8000688a:	48 b8       	lddpc	r8,800068b4 <nav_drive_set+0x4c>
8000688c:	11 88       	ld.ub	r8,r8[0x0]
8000688e:	ee 08 18 00 	cp.b	r8,r7
80006892:	c0 31       	brne	80006898 <nav_drive_set+0x30>
80006894:	e3 cf 90 80 	ldm	sp++,r7,pc,r12=1
80006898:	48 78       	lddpc	r8,800068b4 <nav_drive_set+0x4c>
8000689a:	b0 87       	st.b	r8[0x0],r7
8000689c:	30 09       	mov	r9,0
8000689e:	48 78       	lddpc	r8,800068b8 <nav_drive_set+0x50>
800068a0:	b0 89       	st.b	r8[0x0],r9
800068a2:	30 1c       	mov	r12,1
800068a4:	e3 cd 80 80 	ldm	sp++,r7,pc
800068a8:	80 00       	ld.sh	r0,r0[0x0]
800068aa:	51 18       	stdsp	sp[0x44],r8
800068ac:	80 00       	ld.sh	r0,r0[0x0]
800068ae:	6d 10       	ld.w	r0,r6[0x44]
800068b0:	00 00       	add	r0,r0
800068b2:	07 3c       	ld.ub	r12,r3++
800068b4:	00 00       	add	r0,r0
800068b6:	06 ec       	st.h	--r3,r12
800068b8:	00 00       	add	r0,r0
800068ba:	07 38       	ld.ub	r8,r3++

800068bc <nav_gotoindex>:
800068bc:	d4 21       	pushm	r4-r7,lr
800068be:	18 97       	mov	r7,r12
800068c0:	19 8c       	ld.ub	r12,r12[0x0]
800068c2:	f0 1f 00 10 	mcall	80006900 <nav_gotoindex+0x44>
800068c6:	c1 c0       	breq	800068fe <nav_gotoindex+0x42>
800068c8:	f0 1f 00 0f 	mcall	80006904 <nav_gotoindex+0x48>
800068cc:	c1 90       	breq	800068fe <nav_gotoindex+0x42>
800068ce:	6e 19       	ld.w	r9,r7[0x4]
800068d0:	48 e8       	lddpc	r8,80006908 <nav_gotoindex+0x4c>
800068d2:	91 89       	st.w	r8[0x20],r9
800068d4:	f0 1f 00 0e 	mcall	8000690c <nav_gotoindex+0x50>
800068d8:	c0 a1       	brne	800068ec <nav_gotoindex+0x30>
800068da:	c1 28       	rjmp	800068fe <nav_gotoindex+0x42>
800068dc:	0a 9b       	mov	r11,r5
800068de:	08 9c       	mov	r12,r4
800068e0:	f0 1f 00 0c 	mcall	80006910 <nav_gotoindex+0x54>
800068e4:	c0 71       	brne	800068f2 <nav_gotoindex+0x36>
800068e6:	f0 1f 00 0a 	mcall	8000690c <nav_gotoindex+0x50>
800068ea:	d8 2a       	popm	r4-r7,pc,r12=0
800068ec:	48 a6       	lddpc	r6,80006914 <nav_gotoindex+0x58>
800068ee:	30 15       	mov	r5,1
800068f0:	30 04       	mov	r4,0
800068f2:	8c 19       	ld.sh	r9,r6[0x2]
800068f4:	8e 48       	ld.sh	r8,r7[0x8]
800068f6:	f0 09 19 00 	cp.h	r9,r8
800068fa:	cf 11       	brne	800068dc <nav_gotoindex+0x20>
800068fc:	da 2a       	popm	r4-r7,pc,r12=1
800068fe:	d8 2a       	popm	r4-r7,pc,r12=0
80006900:	80 00       	ld.sh	r0,r0[0x0]
80006902:	68 68       	ld.w	r8,r4[0x18]
80006904:	80 00       	ld.sh	r0,r0[0x0]
80006906:	68 20       	ld.w	r0,r4[0x8]
80006908:	00 00       	add	r0,r0
8000690a:	06 ec       	st.h	--r3,r12
8000690c:	80 00       	ld.sh	r0,r0[0x0]
8000690e:	65 28       	ld.w	r8,r2[0x48]
80006910:	80 00       	ld.sh	r0,r0[0x0]
80006912:	63 88       	ld.w	r8,r1[0x60]
80006914:	00 00       	add	r0,r0
80006916:	07 38       	ld.ub	r8,r3++

80006918 <nav_setcwd>:
80006918:	d4 31       	pushm	r0-r7,lr
8000691a:	20 6d       	sub	sp,24
8000691c:	18 97       	mov	r7,r12
8000691e:	16 91       	mov	r1,r11
80006920:	14 90       	mov	r0,r10
80006922:	f0 1f 00 62 	mcall	80006aa8 <nav_setcwd+0x190>
80006926:	e0 80 00 be 	breq	80006aa2 <nav_setcwd+0x18a>
8000692a:	1a 96       	mov	r6,sp
8000692c:	1a 9c       	mov	r12,sp
8000692e:	f0 1f 00 60 	mcall	80006aac <nav_setcwd+0x194>
80006932:	fa c8 ff f4 	sub	r8,sp,-12
80006936:	fa ea 00 00 	ld.d	r10,sp[0]
8000693a:	f0 eb 00 00 	st.d	r8[0],r10
8000693e:	40 29       	lddsp	r9,sp[0x8]
80006940:	91 29       	st.w	r8[0x8],r9
80006942:	0f 88       	ld.ub	r8,r7[0x0]
80006944:	35 c9       	mov	r9,92
80006946:	f2 08 18 00 	cp.b	r8,r9
8000694a:	5f 0a       	sreq	r10
8000694c:	32 f9       	mov	r9,47
8000694e:	f2 08 18 00 	cp.b	r8,r9
80006952:	5f 09       	sreq	r9
80006954:	f5 e9 10 09 	or	r9,r10,r9
80006958:	c0 70       	breq	80006966 <nav_setcwd+0x4e>
8000695a:	f0 1f 00 56 	mcall	80006ab0 <nav_setcwd+0x198>
8000695e:	e0 80 00 9d 	breq	80006a98 <nav_setcwd+0x180>
80006962:	2f f7       	sub	r7,-1
80006964:	c5 f8       	rjmp	80006a22 <nav_setcwd+0x10a>
80006966:	0f 99       	ld.ub	r9,r7[0x1]
80006968:	33 aa       	mov	r10,58
8000696a:	f4 09 18 00 	cp.b	r9,r10
8000696e:	c2 21       	brne	800069b2 <nav_setcwd+0x9a>
80006970:	0f aa       	ld.ub	r10,r7[0x2]
80006972:	35 cb       	mov	r11,92
80006974:	f6 0a 18 00 	cp.b	r10,r11
80006978:	5f 0b       	sreq	r11
8000697a:	32 fc       	mov	r12,47
8000697c:	f8 0a 18 00 	cp.b	r10,r12
80006980:	5f 0a       	sreq	r10
80006982:	f7 ea 10 0a 	or	r10,r11,r10
80006986:	c1 60       	breq	800069b2 <nav_setcwd+0x9a>
80006988:	4c b9       	lddpc	r9,80006ab4 <nav_setcwd+0x19c>
8000698a:	72 09       	ld.w	r9,r9[0x0]
8000698c:	f2 08 07 09 	ld.ub	r9,r9[r8]
80006990:	f0 ca 00 20 	sub	r10,r8,32
80006994:	e2 19 00 02 	andl	r9,0x2,COH
80006998:	f4 08 17 10 	movne	r8,r10
8000699c:	24 18       	sub	r8,65
8000699e:	f9 d8 c0 08 	bfextu	r12,r8,0x0,0x8
800069a2:	f0 1f 00 46 	mcall	80006ab8 <nav_setcwd+0x1a0>
800069a6:	c7 90       	breq	80006a98 <nav_setcwd+0x180>
800069a8:	f0 1f 00 45 	mcall	80006abc <nav_setcwd+0x1a4>
800069ac:	c7 60       	breq	80006a98 <nav_setcwd+0x180>
800069ae:	2f d7       	sub	r7,-3
800069b0:	c3 98       	rjmp	80006a22 <nav_setcwd+0x10a>
800069b2:	32 ea       	mov	r10,46
800069b4:	f4 08 18 00 	cp.b	r8,r10
800069b8:	c1 91       	brne	800069ea <nav_setcwd+0xd2>
800069ba:	35 c8       	mov	r8,92
800069bc:	f0 09 18 00 	cp.b	r9,r8
800069c0:	5f 0a       	sreq	r10
800069c2:	32 f8       	mov	r8,47
800069c4:	f0 09 18 00 	cp.b	r9,r8
800069c8:	5f 08       	sreq	r8
800069ca:	f5 e8 10 08 	or	r8,r10,r8
800069ce:	c0 e0       	breq	800069ea <nav_setcwd+0xd2>
800069d0:	2f e7       	sub	r7,-2
800069d2:	c2 88       	rjmp	80006a22 <nav_setcwd+0x10a>
800069d4:	f0 1f 00 3b 	mcall	80006ac0 <nav_setcwd+0x1a8>
800069d8:	c6 00       	breq	80006a98 <nav_setcwd+0x180>
800069da:	0d 88       	ld.ub	r8,r6[0x0]
800069dc:	ec c7 ff ff 	sub	r7,r6,-1
800069e0:	ea 08 18 00 	cp.b	r8,r5
800069e4:	ec 07 17 00 	moveq	r7,r6
800069e8:	c0 58       	rjmp	800069f2 <nav_setcwd+0xda>
800069ea:	32 e4       	mov	r4,46
800069ec:	35 c3       	mov	r3,92
800069ee:	32 f2       	mov	r2,47
800069f0:	30 05       	mov	r5,0
800069f2:	0f 88       	ld.ub	r8,r7[0x0]
800069f4:	e8 08 18 00 	cp.b	r8,r4
800069f8:	c1 51       	brne	80006a22 <nav_setcwd+0x10a>
800069fa:	0f 98       	ld.ub	r8,r7[0x1]
800069fc:	e8 08 18 00 	cp.b	r8,r4
80006a00:	c1 11       	brne	80006a22 <nav_setcwd+0x10a>
80006a02:	ee c6 ff fe 	sub	r6,r7,-2
80006a06:	0d 88       	ld.ub	r8,r6[0x0]
80006a08:	e6 08 18 00 	cp.b	r8,r3
80006a0c:	5f 0a       	sreq	r10
80006a0e:	e4 08 18 00 	cp.b	r8,r2
80006a12:	5f 09       	sreq	r9
80006a14:	f5 e9 10 09 	or	r9,r10,r9
80006a18:	ea 09 18 00 	cp.b	r9,r5
80006a1c:	cd c1       	brne	800069d4 <nav_setcwd+0xbc>
80006a1e:	58 08       	cp.w	r8,0
80006a20:	cd a0       	breq	800069d4 <nav_setcwd+0xbc>
80006a22:	f0 1f 00 29 	mcall	80006ac4 <nav_setcwd+0x1ac>
80006a26:	c3 90       	breq	80006a98 <nav_setcwd+0x180>
80006a28:	30 03       	mov	r3,0
80006a2a:	06 92       	mov	r2,r3
80006a2c:	30 06       	mov	r6,0
80006a2e:	35 c5       	mov	r5,92
80006a30:	32 f4       	mov	r4,47
80006a32:	0f 88       	ld.ub	r8,r7[0x0]
80006a34:	ec 08 18 00 	cp.b	r8,r6
80006a38:	c0 31       	brne	80006a3e <nav_setcwd+0x126>
80006a3a:	30 1c       	mov	r12,1
80006a3c:	c3 38       	rjmp	80006aa2 <nav_setcwd+0x18a>
80006a3e:	02 9b       	mov	r11,r1
80006a40:	0e 9c       	mov	r12,r7
80006a42:	f0 1f 00 22 	mcall	80006ac8 <nav_setcwd+0x1b0>
80006a46:	c0 51       	brne	80006a50 <nav_setcwd+0x138>
80006a48:	58 00       	cp.w	r0,0
80006a4a:	c2 70       	breq	80006a98 <nav_setcwd+0x180>
80006a4c:	0e 92       	mov	r2,r7
80006a4e:	30 13       	mov	r3,1
80006a50:	2f f7       	sub	r7,-1
80006a52:	0f 88       	ld.ub	r8,r7[0x0]
80006a54:	58 08       	cp.w	r8,0
80006a56:	c0 81       	brne	80006a66 <nav_setcwd+0x14e>
80006a58:	58 03       	cp.w	r3,0
80006a5a:	ce c0       	breq	80006a32 <nav_setcwd+0x11a>
80006a5c:	04 9c       	mov	r12,r2
80006a5e:	f0 1f 00 1c 	mcall	80006acc <nav_setcwd+0x1b4>
80006a62:	ce 81       	brne	80006a32 <nav_setcwd+0x11a>
80006a64:	c1 a8       	rjmp	80006a98 <nav_setcwd+0x180>
80006a66:	ea 08 18 00 	cp.b	r8,r5
80006a6a:	5f 09       	sreq	r9
80006a6c:	e8 08 18 00 	cp.b	r8,r4
80006a70:	5f 08       	sreq	r8
80006a72:	f3 e8 10 08 	or	r8,r9,r8
80006a76:	ec 08 18 00 	cp.b	r8,r6
80006a7a:	ce b0       	breq	80006a50 <nav_setcwd+0x138>
80006a7c:	58 03       	cp.w	r3,0
80006a7e:	c0 50       	breq	80006a88 <nav_setcwd+0x170>
80006a80:	04 9c       	mov	r12,r2
80006a82:	f0 1f 00 14 	mcall	80006ad0 <nav_setcwd+0x1b8>
80006a86:	c0 90       	breq	80006a98 <nav_setcwd+0x180>
80006a88:	f0 1f 00 13 	mcall	80006ad4 <nav_setcwd+0x1bc>
80006a8c:	c0 60       	breq	80006a98 <nav_setcwd+0x180>
80006a8e:	f0 1f 00 13 	mcall	80006ad8 <nav_setcwd+0x1c0>
80006a92:	c0 30       	breq	80006a98 <nav_setcwd+0x180>
80006a94:	2f f7       	sub	r7,-1
80006a96:	cc eb       	rjmp	80006a32 <nav_setcwd+0x11a>
80006a98:	fa cc ff f4 	sub	r12,sp,-12
80006a9c:	f0 1f 00 10 	mcall	80006adc <nav_setcwd+0x1c4>
80006aa0:	30 0c       	mov	r12,0
80006aa2:	2f ad       	sub	sp,-24
80006aa4:	d8 32       	popm	r0-r7,pc
80006aa6:	00 00       	add	r0,r0
80006aa8:	80 00       	ld.sh	r0,r0[0x0]
80006aaa:	51 18       	stdsp	sp[0x44],r8
80006aac:	80 00       	ld.sh	r0,r0[0x0]
80006aae:	62 78       	ld.w	r8,r1[0x1c]
80006ab0:	80 00       	ld.sh	r0,r0[0x0]
80006ab2:	68 5c       	ld.w	r12,r4[0x14]
80006ab4:	00 00       	add	r0,r0
80006ab6:	00 e4       	st.h	--r0,r4
80006ab8:	80 00       	ld.sh	r0,r0[0x0]
80006aba:	68 68       	ld.w	r8,r4[0x18]
80006abc:	80 00       	ld.sh	r0,r0[0x0]
80006abe:	68 20       	ld.w	r0,r4[0x8]
80006ac0:	80 00       	ld.sh	r0,r0[0x0]
80006ac2:	65 ac       	ld.w	r12,r2[0x68]
80006ac4:	80 00       	ld.sh	r0,r0[0x0]
80006ac6:	65 28       	ld.w	r8,r2[0x48]
80006ac8:	80 00       	ld.sh	r0,r0[0x0]
80006aca:	64 f8       	ld.w	r8,r2[0x3c]
80006acc:	80 00       	ld.sh	r0,r0[0x0]
80006ace:	65 40       	ld.w	r0,r2[0x50]
80006ad0:	80 00       	ld.sh	r0,r0[0x0]
80006ad2:	67 90       	ld.w	r0,r3[0x64]
80006ad4:	80 00       	ld.sh	r0,r0[0x0]
80006ad6:	42 8c       	lddsp	r12,sp[0xa0]
80006ad8:	80 00       	ld.sh	r0,r0[0x0]
80006ada:	66 4c       	ld.w	r12,r3[0x10]
80006adc:	80 00       	ld.sh	r0,r0[0x0]
80006ade:	68 bc       	ld.w	r12,r4[0x2c]

80006ae0 <nav_select>:
80006ae0:	eb cd 40 80 	pushm	r7,lr
80006ae4:	18 97       	mov	r7,r12
80006ae6:	30 18       	mov	r8,1
80006ae8:	f0 0c 18 00 	cp.b	r12,r8
80006aec:	e0 88 00 07 	brls	80006afa <nav_select+0x1a>
80006af0:	32 79       	mov	r9,39
80006af2:	48 b8       	lddpc	r8,80006b1c <nav_select+0x3c>
80006af4:	b0 89       	st.b	r8[0x0],r9
80006af6:	e3 cf 80 80 	ldm	sp++,r7,pc,r12=0
80006afa:	48 a8       	lddpc	r8,80006b20 <nav_select+0x40>
80006afc:	11 8c       	ld.ub	r12,r8[0x0]
80006afe:	ee 0c 18 00 	cp.b	r12,r7
80006b02:	c0 31       	brne	80006b08 <nav_select+0x28>
80006b04:	e3 cf 90 80 	ldm	sp++,r7,pc,r12=1
80006b08:	f0 1f 00 07 	mcall	80006b24 <nav_select+0x44>
80006b0c:	0e 9c       	mov	r12,r7
80006b0e:	f0 1f 00 06 	mcall	80006b24 <nav_select+0x44>
80006b12:	48 48       	lddpc	r8,80006b20 <nav_select+0x40>
80006b14:	b0 87       	st.b	r8[0x0],r7
80006b16:	e3 cf 90 80 	ldm	sp++,r7,pc,r12=1
80006b1a:	00 00       	add	r0,r0
80006b1c:	00 00       	add	r0,r0
80006b1e:	07 3c       	ld.ub	r12,r3++
80006b20:	00 00       	add	r0,r0
80006b22:	07 b4       	ld.ub	r4,r3[0x3]
80006b24:	80 00       	ld.sh	r0,r0[0x0]
80006b26:	47 88       	lddsp	r8,sp[0x1e0]

80006b28 <nav_reset>:
80006b28:	eb cd 40 f8 	pushm	r3-r7,lr
80006b2c:	30 07       	mov	r7,0
80006b2e:	49 18       	lddpc	r8,80006b70 <nav_reset+0x48>
80006b30:	b0 87       	st.b	r8[0x0],r7
80006b32:	49 18       	lddpc	r8,80006b74 <nav_reset+0x4c>
80006b34:	b0 87       	st.b	r8[0x0],r7
80006b36:	f0 1f 00 11 	mcall	80006b78 <nav_reset+0x50>
80006b3a:	f0 1f 00 11 	mcall	80006b7c <nav_reset+0x54>
80006b3e:	30 0c       	mov	r12,0
80006b40:	f0 1f 00 10 	mcall	80006b80 <nav_reset+0x58>
80006b44:	49 03       	lddpc	r3,80006b84 <nav_reset+0x5c>
80006b46:	a6 87       	st.b	r3[0x0],r7
80006b48:	49 05       	lddpc	r5,80006b88 <nav_reset+0x60>
80006b4a:	3f f4       	mov	r4,-1
80006b4c:	aa 84       	st.b	r5[0x0],r4
80006b4e:	49 06       	lddpc	r6,80006b8c <nav_reset+0x64>
80006b50:	ac 87       	st.b	r6[0x0],r7
80006b52:	eb 67 00 2d 	st.b	r5[45],r7
80006b56:	30 1c       	mov	r12,1
80006b58:	f0 1f 00 0a 	mcall	80006b80 <nav_reset+0x58>
80006b5c:	a6 87       	st.b	r3[0x0],r7
80006b5e:	aa 84       	st.b	r5[0x0],r4
80006b60:	ac 87       	st.b	r6[0x0],r7
80006b62:	eb 67 00 2d 	st.b	r5[45],r7
80006b66:	48 b8       	lddpc	r8,80006b90 <nav_reset+0x68>
80006b68:	b0 87       	st.b	r8[0x0],r7
80006b6a:	e3 cd 80 f8 	ldm	sp++,r3-r7,pc
80006b6e:	00 00       	add	r0,r0
80006b70:	00 00       	add	r0,r0
80006b72:	07 3d       	ld.ub	sp,r3++
80006b74:	00 00       	add	r0,r0
80006b76:	04 be       	st.h	r2++,lr
80006b78:	80 00       	ld.sh	r0,r0[0x0]
80006b7a:	46 98       	lddsp	r8,sp[0x1a4]
80006b7c:	80 00       	ld.sh	r0,r0[0x0]
80006b7e:	40 38       	lddsp	r8,sp[0xc]
80006b80:	80 00       	ld.sh	r0,r0[0x0]
80006b82:	6a e0       	ld.w	r0,r5[0x38]
80006b84:	00 00       	add	r0,r0
80006b86:	07 38       	ld.ub	r8,r3++
80006b88:	00 00       	add	r0,r0
80006b8a:	06 ec       	st.h	--r3,r12
80006b8c:	00 00       	add	r0,r0
80006b8e:	04 ac       	st.w	r2++,r12
80006b90:	00 00       	add	r0,r0
80006b92:	07 b4       	ld.ub	r4,r3[0x3]

80006b94 <_stext>:
80006b94:	48 dd       	lddpc	sp,80006bc8 <udata_clear_loop_end+0x4>
80006b96:	fe c0 ed 96 	sub	r0,pc,-4714
80006b9a:	e3 b0 00 01 	mtsr	0x4,r0
80006b9e:	d5 53       	csrf	0x15
80006ba0:	48 b0       	lddpc	r0,80006bcc <udata_clear_loop_end+0x8>
80006ba2:	48 c1       	lddpc	r1,80006bd0 <udata_clear_loop_end+0xc>
80006ba4:	02 30       	cp.w	r0,r1
80006ba6:	c0 62       	brcc	80006bb2 <idata_load_loop_end>
80006ba8:	48 b2       	lddpc	r2,80006bd4 <udata_clear_loop_end+0x10>

80006baa <idata_load_loop>:
80006baa:	a5 05       	ld.d	r4,r2++
80006bac:	a1 24       	st.d	r0++,r4
80006bae:	02 30       	cp.w	r0,r1
80006bb0:	cf d3       	brcs	80006baa <idata_load_loop>

80006bb2 <idata_load_loop_end>:
80006bb2:	48 a0       	lddpc	r0,80006bd8 <udata_clear_loop_end+0x14>
80006bb4:	48 a1       	lddpc	r1,80006bdc <udata_clear_loop_end+0x18>
80006bb6:	02 30       	cp.w	r0,r1
80006bb8:	c0 62       	brcc	80006bc4 <udata_clear_loop_end>
80006bba:	30 02       	mov	r2,0
80006bbc:	30 03       	mov	r3,0

80006bbe <udata_clear_loop>:
80006bbe:	a1 22       	st.d	r0++,r2
80006bc0:	02 30       	cp.w	r0,r1
80006bc2:	cf e3       	brcs	80006bbe <udata_clear_loop>

80006bc4 <udata_clear_loop_end>:
80006bc4:	fe cf f2 f0 	sub	pc,pc,-3344
80006bc8:	00 00       	add	r0,r0
80006bca:	80 00       	ld.sh	r0,r0[0x0]
80006bcc:	00 00       	add	r0,r0
80006bce:	00 08       	add	r8,r0
80006bd0:	00 00       	add	r0,r0
80006bd2:	00 e8       	st.h	--r0,r8
80006bd4:	80 00       	ld.sh	r0,r0[0x0]
80006bd6:	82 88       	ld.uh	r8,r1[0x0]
80006bd8:	00 00       	add	r0,r0
80006bda:	00 e8       	st.h	--r0,r8
80006bdc:	00 00       	add	r0,r0
80006bde:	07 c8       	ld.ub	r8,r3[0x4]

80006be0 <sysclk_init>:
80006be0:	d4 01       	pushm	lr
80006be2:	fe 78 0c 00 	mov	r8,-62464
80006be6:	e0 69 00 80 	mov	r9,128
80006bea:	ea 19 80 80 	orh	r9,0x8080
80006bee:	91 19       	st.w	r8[0x4],r9
80006bf0:	e1 b9 00 00 	mfsr	r9,0x0
80006bf4:	d3 03       	ssrf	0x10
80006bf6:	e0 6a 03 07 	mov	r10,775
80006bfa:	91 aa       	st.w	r8[0x28],r10
80006bfc:	70 0a       	ld.w	r10,r8[0x0]
80006bfe:	a3 aa       	sbr	r10,0x2
80006c00:	91 0a       	st.w	r8[0x0],r10
80006c02:	e3 b9 00 00 	mtsr	0x0,r9
80006c06:	71 59       	ld.w	r9,r8[0x54]
80006c08:	e2 19 00 80 	andl	r9,0x80,COH
80006c0c:	cf d0       	breq	80006c06 <sysclk_init+0x26>
80006c0e:	e0 6c 1b 00 	mov	r12,6912
80006c12:	ea 1c 00 b7 	orh	r12,0xb7
80006c16:	f0 1f 00 08 	mcall	80006c34 <sysclk_init+0x54>
80006c1a:	e1 b9 00 00 	mfsr	r9,0x0
80006c1e:	d3 03       	ssrf	0x10
80006c20:	fe 78 0c 00 	mov	r8,-62464
80006c24:	70 0a       	ld.w	r10,r8[0x0]
80006c26:	e0 1a ff fc 	andl	r10,0xfffc
80006c2a:	a1 aa       	sbr	r10,0x0
80006c2c:	91 0a       	st.w	r8[0x0],r10
80006c2e:	e3 b9 00 00 	mtsr	0x0,r9
80006c32:	d8 02       	popm	pc
80006c34:	80 00       	ld.sh	r0,r0[0x0]
80006c36:	2e 80       	sub	r0,-24

80006c38 <sysclk_priv_enable_module>:
80006c38:	e1 ba 00 00 	mfsr	r10,0x0
80006c3c:	d3 03       	ssrf	0x10
80006c3e:	fe 78 0c 00 	mov	r8,-62464
80006c42:	71 59       	ld.w	r9,r8[0x54]
80006c44:	e2 19 00 40 	andl	r9,0x40,COH
80006c48:	cf d0       	breq	80006c42 <sysclk_priv_enable_module+0xa>
80006c4a:	a3 6c       	lsl	r12,0x2
80006c4c:	e0 2c f3 f8 	sub	r12,62456
80006c50:	78 08       	ld.w	r8,r12[0x0]
80006c52:	30 19       	mov	r9,1
80006c54:	f2 0b 09 4b 	lsl	r11,r9,r11
80006c58:	10 4b       	or	r11,r8
80006c5a:	99 0b       	st.w	r12[0x0],r11
80006c5c:	e3 ba 00 00 	mtsr	0x0,r10
80006c60:	5e fc       	retal	r12
80006c62:	d7 03       	nop

80006c64 <sysclk_enable_pbb_module>:
80006c64:	eb cd 40 c0 	pushm	r6-r7,lr
80006c68:	18 97       	mov	r7,r12
80006c6a:	e1 b6 00 00 	mfsr	r6,0x0
80006c6e:	d3 03       	ssrf	0x10
80006c70:	48 b8       	lddpc	r8,80006c9c <sysclk_enable_pbb_module+0x38>
80006c72:	11 89       	ld.ub	r9,r8[0x0]
80006c74:	30 08       	mov	r8,0
80006c76:	f0 09 18 00 	cp.b	r9,r8
80006c7a:	c0 51       	brne	80006c84 <sysclk_enable_pbb_module+0x20>
80006c7c:	30 2b       	mov	r11,2
80006c7e:	30 1c       	mov	r12,1
80006c80:	f0 1f 00 08 	mcall	80006ca0 <sysclk_enable_pbb_module+0x3c>
80006c84:	48 68       	lddpc	r8,80006c9c <sysclk_enable_pbb_module+0x38>
80006c86:	11 89       	ld.ub	r9,r8[0x0]
80006c88:	2f f9       	sub	r9,-1
80006c8a:	b0 89       	st.b	r8[0x0],r9
80006c8c:	e3 b6 00 00 	mtsr	0x0,r6
80006c90:	0e 9b       	mov	r11,r7
80006c92:	30 3c       	mov	r12,3
80006c94:	f0 1f 00 03 	mcall	80006ca0 <sysclk_enable_pbb_module+0x3c>
80006c98:	e3 cd 80 c0 	ldm	sp++,r6-r7,pc
80006c9c:	00 00       	add	r0,r0
80006c9e:	01 c5       	ld.ub	r5,r0[0x4]
80006ca0:	80 00       	ld.sh	r0,r0[0x0]
80006ca2:	6c 38       	ld.w	r8,r6[0xc]

80006ca4 <sysclk_enable_usb>:
80006ca4:	d4 01       	pushm	lr
80006ca6:	30 1c       	mov	r12,1
80006ca8:	f0 1f 00 18 	mcall	80006d08 <sysclk_enable_usb+0x64>
80006cac:	30 3b       	mov	r11,3
80006cae:	30 1c       	mov	r12,1
80006cb0:	f0 1f 00 17 	mcall	80006d0c <sysclk_enable_usb+0x68>
80006cb4:	e1 b9 00 00 	mfsr	r9,0x0
80006cb8:	d3 03       	ssrf	0x10
80006cba:	fe 78 0c 00 	mov	r8,-62464
80006cbe:	e0 6a 03 07 	mov	r10,775
80006cc2:	91 aa       	st.w	r8[0x28],r10
80006cc4:	70 0a       	ld.w	r10,r8[0x0]
80006cc6:	a3 aa       	sbr	r10,0x2
80006cc8:	91 0a       	st.w	r8[0x0],r10
80006cca:	e3 b9 00 00 	mtsr	0x0,r9
80006cce:	10 99       	mov	r9,r8
80006cd0:	73 58       	ld.w	r8,r9[0x54]
80006cd2:	e2 18 00 80 	andl	r8,0x80,COH
80006cd6:	cf d0       	breq	80006cd0 <sysclk_enable_usb+0x2c>
80006cd8:	30 88       	mov	r8,8
80006cda:	a3 a8       	sbr	r8,0x2
80006cdc:	31 09       	mov	r9,16
80006cde:	20 19       	sub	r9,1
80006ce0:	b1 69       	lsl	r9,0x10
80006ce2:	ea 19 3f 00 	orh	r9,0x3f00
80006ce6:	e8 19 02 01 	orl	r9,0x201
80006cea:	f3 e8 10 08 	or	r8,r9,r8
80006cee:	fe 79 0c 00 	mov	r9,-62464
80006cf2:	93 88       	st.w	r9[0x20],r8
80006cf4:	73 58       	ld.w	r8,r9[0x54]
80006cf6:	f1 d8 c0 01 	bfextu	r8,r8,0x0,0x1
80006cfa:	cf d0       	breq	80006cf4 <sysclk_enable_usb+0x50>
80006cfc:	30 69       	mov	r9,6
80006cfe:	fe 78 0c 00 	mov	r8,-62464
80006d02:	f1 49 00 6c 	st.w	r8[108],r9
80006d06:	d8 02       	popm	pc
80006d08:	80 00       	ld.sh	r0,r0[0x0]
80006d0a:	6c 64       	ld.w	r4,r6[0x18]
80006d0c:	80 00       	ld.sh	r0,r0[0x0]
80006d0e:	6c 38       	ld.w	r8,r6[0xc]

80006d10 <get_nb_lun>:
80006d10:	5e ff       	retal	1
80006d12:	d7 03       	nop

80006d14 <mem_test_unit_ready>:
80006d14:	d4 01       	pushm	lr
80006d16:	58 0c       	cp.w	r12,0
80006d18:	c0 20       	breq	80006d1c <mem_test_unit_ready+0x8>
80006d1a:	da 0a       	popm	pc,r12=1
80006d1c:	48 28       	lddpc	r8,80006d24 <mem_test_unit_ready+0x10>
80006d1e:	70 0c       	ld.w	r12,r8[0x0]
80006d20:	5d 1c       	icall	r12
80006d22:	d8 02       	popm	pc
80006d24:	80 00       	ld.sh	r0,r0[0x0]
80006d26:	80 e8       	ld.uh	r8,r0[0xc]

80006d28 <mem_read_capacity>:
80006d28:	d4 01       	pushm	lr
80006d2a:	58 0c       	cp.w	r12,0
80006d2c:	c0 20       	breq	80006d30 <mem_read_capacity+0x8>
80006d2e:	da 0a       	popm	pc,r12=1
80006d30:	48 38       	lddpc	r8,80006d3c <mem_read_capacity+0x14>
80006d32:	70 18       	ld.w	r8,r8[0x4]
80006d34:	16 9c       	mov	r12,r11
80006d36:	5d 18       	icall	r8
80006d38:	d8 02       	popm	pc
80006d3a:	00 00       	add	r0,r0
80006d3c:	80 00       	ld.sh	r0,r0[0x0]
80006d3e:	80 e8       	ld.uh	r8,r0[0xc]

80006d40 <mem_sector_size>:
80006d40:	58 0c       	cp.w	r12,0
80006d42:	5f 0c       	sreq	r12
80006d44:	5e fc       	retal	r12
80006d46:	d7 03       	nop

80006d48 <mem_wr_protect>:
80006d48:	d4 01       	pushm	lr
80006d4a:	58 0c       	cp.w	r12,0
80006d4c:	c0 20       	breq	80006d50 <mem_wr_protect+0x8>
80006d4e:	da 0a       	popm	pc,r12=1
80006d50:	48 28       	lddpc	r8,80006d58 <mem_wr_protect+0x10>
80006d52:	70 2c       	ld.w	r12,r8[0x8]
80006d54:	5d 1c       	icall	r12
80006d56:	d8 02       	popm	pc
80006d58:	80 00       	ld.sh	r0,r0[0x0]
80006d5a:	80 e8       	ld.uh	r8,r0[0xc]

80006d5c <ram_2_memory>:
80006d5c:	eb cd 40 e0 	pushm	r5-r7,lr
80006d60:	18 97       	mov	r7,r12
80006d62:	16 95       	mov	r5,r11
80006d64:	14 96       	mov	r6,r10
80006d66:	30 2c       	mov	r12,2
80006d68:	f0 1f 00 09 	mcall	80006d8c <ram_2_memory+0x30>
80006d6c:	58 07       	cp.w	r7,0
80006d6e:	c0 30       	breq	80006d74 <ram_2_memory+0x18>
80006d70:	30 17       	mov	r7,1
80006d72:	c0 78       	rjmp	80006d80 <ram_2_memory+0x24>
80006d74:	48 78       	lddpc	r8,80006d90 <ram_2_memory+0x34>
80006d76:	70 58       	ld.w	r8,r8[0x14]
80006d78:	0c 9b       	mov	r11,r6
80006d7a:	0a 9c       	mov	r12,r5
80006d7c:	5d 18       	icall	r8
80006d7e:	18 97       	mov	r7,r12
80006d80:	30 2c       	mov	r12,2
80006d82:	f0 1f 00 05 	mcall	80006d94 <ram_2_memory+0x38>
80006d86:	0e 9c       	mov	r12,r7
80006d88:	e3 cd 80 e0 	ldm	sp++,r5-r7,pc
80006d8c:	80 00       	ld.sh	r0,r0[0x0]
80006d8e:	20 fc       	sub	r12,15
80006d90:	80 00       	ld.sh	r0,r0[0x0]
80006d92:	80 e8       	ld.uh	r8,r0[0xc]
80006d94:	80 00       	ld.sh	r0,r0[0x0]
80006d96:	21 4c       	sub	r12,20

80006d98 <memory_2_ram>:
80006d98:	eb cd 40 e0 	pushm	r5-r7,lr
80006d9c:	18 97       	mov	r7,r12
80006d9e:	16 95       	mov	r5,r11
80006da0:	14 96       	mov	r6,r10
80006da2:	30 1c       	mov	r12,1
80006da4:	f0 1f 00 09 	mcall	80006dc8 <memory_2_ram+0x30>
80006da8:	58 07       	cp.w	r7,0
80006daa:	c0 30       	breq	80006db0 <memory_2_ram+0x18>
80006dac:	30 17       	mov	r7,1
80006dae:	c0 78       	rjmp	80006dbc <memory_2_ram+0x24>
80006db0:	48 78       	lddpc	r8,80006dcc <memory_2_ram+0x34>
80006db2:	70 48       	ld.w	r8,r8[0x10]
80006db4:	0c 9b       	mov	r11,r6
80006db6:	0a 9c       	mov	r12,r5
80006db8:	5d 18       	icall	r8
80006dba:	18 97       	mov	r7,r12
80006dbc:	30 1c       	mov	r12,1
80006dbe:	f0 1f 00 05 	mcall	80006dd0 <memory_2_ram+0x38>
80006dc2:	0e 9c       	mov	r12,r7
80006dc4:	e3 cd 80 e0 	ldm	sp++,r5-r7,pc
80006dc8:	80 00       	ld.sh	r0,r0[0x0]
80006dca:	20 fc       	sub	r12,15
80006dcc:	80 00       	ld.sh	r0,r0[0x0]
80006dce:	80 e8       	ld.uh	r8,r0[0xc]
80006dd0:	80 00       	ld.sh	r0,r0[0x0]
80006dd2:	21 4c       	sub	r12,20

80006dd4 <udi_hid_kbd_getsetting>:
80006dd4:	5e fd       	retal	0
80006dd6:	d7 03       	nop

80006dd8 <udi_hid_kbd_setreport>:
80006dd8:	48 d8       	lddpc	r8,80006e0c <udi_hid_kbd_setreport+0x34>
80006dda:	90 18       	ld.sh	r8,r8[0x2]
80006ddc:	f5 d8 c1 08 	bfextu	r10,r8,0x8,0x8
80006de0:	30 29       	mov	r9,2
80006de2:	f2 0a 19 00 	cp.h	r10,r9
80006de6:	c1 11       	brne	80006e08 <udi_hid_kbd_setreport+0x30>
80006de8:	5c 58       	castu.b	r8
80006dea:	c0 f1       	brne	80006e08 <udi_hid_kbd_setreport+0x30>
80006dec:	48 88       	lddpc	r8,80006e0c <udi_hid_kbd_setreport+0x34>
80006dee:	90 39       	ld.sh	r9,r8[0x6]
80006df0:	30 18       	mov	r8,1
80006df2:	f0 09 19 00 	cp.h	r9,r8
80006df6:	c0 91       	brne	80006e08 <udi_hid_kbd_setreport+0x30>
80006df8:	48 58       	lddpc	r8,80006e0c <udi_hid_kbd_setreport+0x34>
80006dfa:	48 69       	lddpc	r9,80006e10 <udi_hid_kbd_setreport+0x38>
80006dfc:	91 29       	st.w	r8[0x8],r9
80006dfe:	48 69       	lddpc	r9,80006e14 <udi_hid_kbd_setreport+0x3c>
80006e00:	91 49       	st.w	r8[0x10],r9
80006e02:	30 19       	mov	r9,1
80006e04:	b0 69       	st.h	r8[0xc],r9
80006e06:	5e ff       	retal	1
80006e08:	5e fd       	retal	0
80006e0a:	00 00       	add	r0,r0
80006e0c:	00 00       	add	r0,r0
80006e0e:	04 90       	mov	r0,r2
80006e10:	00 00       	add	r0,r0
80006e12:	01 d1       	ld.ub	r1,r0[0x5]
80006e14:	80 00       	ld.sh	r0,r0[0x0]
80006e16:	70 24       	ld.w	r4,r8[0x8]

80006e18 <udi_hid_kbd_send_report>:
80006e18:	d4 01       	pushm	lr
80006e1a:	48 e8       	lddpc	r8,80006e50 <udi_hid_kbd_send_report+0x38>
80006e1c:	11 89       	ld.ub	r9,r8[0x0]
80006e1e:	30 08       	mov	r8,0
80006e20:	f0 09 18 00 	cp.b	r9,r8
80006e24:	c0 20       	breq	80006e28 <udi_hid_kbd_send_report+0x10>
80006e26:	d8 0a       	popm	pc,r12=0
80006e28:	48 ba       	lddpc	r10,80006e54 <udi_hid_kbd_send_report+0x3c>
80006e2a:	48 c8       	lddpc	r8,80006e58 <udi_hid_kbd_send_report+0x40>
80006e2c:	f0 e8 00 00 	ld.d	r8,r8[0]
80006e30:	f4 e9 00 00 	st.d	r10[0],r8
80006e34:	30 09       	mov	r9,0
80006e36:	48 a8       	lddpc	r8,80006e5c <udi_hid_kbd_send_report+0x44>
80006e38:	b0 89       	st.b	r8[0x0],r9
80006e3a:	48 a8       	lddpc	r8,80006e60 <udi_hid_kbd_send_report+0x48>
80006e3c:	30 89       	mov	r9,8
80006e3e:	30 0b       	mov	r11,0
80006e40:	e0 6c 00 81 	mov	r12,129
80006e44:	f0 1f 00 08 	mcall	80006e64 <udi_hid_kbd_send_report+0x4c>
80006e48:	48 28       	lddpc	r8,80006e50 <udi_hid_kbd_send_report+0x38>
80006e4a:	b0 8c       	st.b	r8[0x0],r12
80006e4c:	d8 02       	popm	pc
80006e4e:	00 00       	add	r0,r0
80006e50:	00 00       	add	r0,r0
80006e52:	01 c7       	ld.ub	r7,r0[0x4]
80006e54:	00 00       	add	r0,r0
80006e56:	01 c8       	ld.ub	r8,r0[0x4]
80006e58:	00 00       	add	r0,r0
80006e5a:	01 d4       	ld.ub	r4,r0[0x5]
80006e5c:	00 00       	add	r0,r0
80006e5e:	01 c6       	ld.ub	r6,r0[0x4]
80006e60:	80 00       	ld.sh	r0,r0[0x0]
80006e62:	6e 68       	ld.w	r8,r7[0x18]
80006e64:	80 00       	ld.sh	r0,r0[0x0]
80006e66:	34 58       	mov	r8,69

80006e68 <udi_hid_kbd_report_sent>:
80006e68:	d4 01       	pushm	lr
80006e6a:	30 08       	mov	r8,0
80006e6c:	48 59       	lddpc	r9,80006e80 <udi_hid_kbd_report_sent+0x18>
80006e6e:	b2 88       	st.b	r9[0x0],r8
80006e70:	48 59       	lddpc	r9,80006e84 <udi_hid_kbd_report_sent+0x1c>
80006e72:	13 89       	ld.ub	r9,r9[0x0]
80006e74:	f0 09 18 00 	cp.b	r9,r8
80006e78:	c0 30       	breq	80006e7e <udi_hid_kbd_report_sent+0x16>
80006e7a:	f0 1f 00 04 	mcall	80006e88 <udi_hid_kbd_report_sent+0x20>
80006e7e:	d8 02       	popm	pc
80006e80:	00 00       	add	r0,r0
80006e82:	01 c7       	ld.ub	r7,r0[0x4]
80006e84:	00 00       	add	r0,r0
80006e86:	01 c6       	ld.ub	r6,r0[0x4]
80006e88:	80 00       	ld.sh	r0,r0[0x0]
80006e8a:	6e 18       	ld.w	r8,r7[0x4]

80006e8c <udi_hid_kbd_down>:
80006e8c:	eb cd 40 80 	pushm	r7,lr
80006e90:	e1 b7 00 00 	mfsr	r7,0x0
80006e94:	d3 03       	ssrf	0x10
80006e96:	49 98       	lddpc	r8,80006ef8 <udi_hid_kbd_down+0x6c>
80006e98:	11 a8       	ld.ub	r8,r8[0x2]
80006e9a:	58 08       	cp.w	r8,0
80006e9c:	c2 10       	breq	80006ede <udi_hid_kbd_down+0x52>
80006e9e:	f8 08 18 00 	cp.b	r8,r12
80006ea2:	c0 b0       	breq	80006eb8 <udi_hid_kbd_down+0x2c>
80006ea4:	49 59       	lddpc	r9,80006ef8 <udi_hid_kbd_down+0x6c>
80006ea6:	2f d9       	sub	r9,-3
80006ea8:	30 38       	mov	r8,3
80006eaa:	30 8b       	mov	r11,8
80006eac:	13 8a       	ld.ub	r10,r9[0x0]
80006eae:	58 0a       	cp.w	r10,0
80006eb0:	c0 f0       	breq	80006ece <udi_hid_kbd_down+0x42>
80006eb2:	f8 0a 18 00 	cp.b	r10,r12
80006eb6:	c0 51       	brne	80006ec0 <udi_hid_kbd_down+0x34>
80006eb8:	e3 b7 00 00 	mtsr	0x0,r7
80006ebc:	e3 cf 90 80 	ldm	sp++,r7,pc,r12=1
80006ec0:	2f f8       	sub	r8,-1
80006ec2:	5c 58       	castu.b	r8
80006ec4:	2f f9       	sub	r9,-1
80006ec6:	f6 08 18 00 	cp.b	r8,r11
80006eca:	cf 11       	brne	80006eac <udi_hid_kbd_down+0x20>
80006ecc:	c0 58       	rjmp	80006ed6 <udi_hid_kbd_down+0x4a>
80006ece:	30 89       	mov	r9,8
80006ed0:	f2 08 18 00 	cp.b	r8,r9
80006ed4:	c0 61       	brne	80006ee0 <udi_hid_kbd_down+0x54>
80006ed6:	e3 b7 00 00 	mtsr	0x0,r7
80006eda:	e3 cf 80 80 	ldm	sp++,r7,pc,r12=0
80006ede:	30 28       	mov	r8,2
80006ee0:	48 69       	lddpc	r9,80006ef8 <udi_hid_kbd_down+0x6c>
80006ee2:	f2 08 0b 0c 	st.b	r9[r8],r12
80006ee6:	30 19       	mov	r9,1
80006ee8:	48 58       	lddpc	r8,80006efc <udi_hid_kbd_down+0x70>
80006eea:	b0 89       	st.b	r8[0x0],r9
80006eec:	f0 1f 00 05 	mcall	80006f00 <udi_hid_kbd_down+0x74>
80006ef0:	e3 b7 00 00 	mtsr	0x0,r7
80006ef4:	e3 cf 90 80 	ldm	sp++,r7,pc,r12=1
80006ef8:	00 00       	add	r0,r0
80006efa:	01 d4       	ld.ub	r4,r0[0x5]
80006efc:	00 00       	add	r0,r0
80006efe:	01 c6       	ld.ub	r6,r0[0x4]
80006f00:	80 00       	ld.sh	r0,r0[0x0]
80006f02:	6e 18       	ld.w	r8,r7[0x4]

80006f04 <udi_hid_kbd_up>:
80006f04:	eb cd 40 80 	pushm	r7,lr
80006f08:	e1 b7 00 00 	mfsr	r7,0x0
80006f0c:	d3 03       	ssrf	0x10
80006f0e:	4a 18       	lddpc	r8,80006f90 <udi_hid_kbd_up+0x8c>
80006f10:	11 a8       	ld.ub	r8,r8[0x2]
80006f12:	58 08       	cp.w	r8,0
80006f14:	c0 b0       	breq	80006f2a <udi_hid_kbd_up+0x26>
80006f16:	f8 08 18 00 	cp.b	r8,r12
80006f1a:	c2 20       	breq	80006f5e <udi_hid_kbd_up+0x5a>
80006f1c:	49 d9       	lddpc	r9,80006f90 <udi_hid_kbd_up+0x8c>
80006f1e:	2f d9       	sub	r9,-3
80006f20:	30 38       	mov	r8,3
80006f22:	30 8b       	mov	r11,8
80006f24:	13 8a       	ld.ub	r10,r9[0x0]
80006f26:	58 0a       	cp.w	r10,0
80006f28:	c0 41       	brne	80006f30 <udi_hid_kbd_up+0x2c>
80006f2a:	e3 b7 00 00 	mtsr	0x0,r7
80006f2e:	c2 f8       	rjmp	80006f8c <udi_hid_kbd_up+0x88>
80006f30:	f8 0a 18 00 	cp.b	r10,r12
80006f34:	c0 80       	breq	80006f44 <udi_hid_kbd_up+0x40>
80006f36:	2f f8       	sub	r8,-1
80006f38:	5c 58       	castu.b	r8
80006f3a:	2f f9       	sub	r9,-1
80006f3c:	f6 08 18 00 	cp.b	r8,r11
80006f40:	cf 21       	brne	80006f24 <udi_hid_kbd_up+0x20>
80006f42:	c0 b8       	rjmp	80006f58 <udi_hid_kbd_up+0x54>
80006f44:	30 89       	mov	r9,8
80006f46:	f2 08 18 00 	cp.b	r8,r9
80006f4a:	c0 70       	breq	80006f58 <udi_hid_kbd_up+0x54>
80006f4c:	30 69       	mov	r9,6
80006f4e:	f2 08 18 00 	cp.b	r8,r9
80006f52:	e0 88 00 07 	brls	80006f60 <udi_hid_kbd_up+0x5c>
80006f56:	c1 18       	rjmp	80006f78 <udi_hid_kbd_up+0x74>
80006f58:	e3 b7 00 00 	mtsr	0x0,r7
80006f5c:	c1 88       	rjmp	80006f8c <udi_hid_kbd_up+0x88>
80006f5e:	30 28       	mov	r8,2
80006f60:	48 c9       	lddpc	r9,80006f90 <udi_hid_kbd_up+0x8c>
80006f62:	30 7b       	mov	r11,7
80006f64:	f2 08 00 0a 	add	r10,r9,r8
80006f68:	15 9a       	ld.ub	r10,r10[0x1]
80006f6a:	f2 08 0b 0a 	st.b	r9[r8],r10
80006f6e:	2f f8       	sub	r8,-1
80006f70:	5c 58       	castu.b	r8
80006f72:	f6 08 18 00 	cp.b	r8,r11
80006f76:	cf 71       	brne	80006f64 <udi_hid_kbd_up+0x60>
80006f78:	30 09       	mov	r9,0
80006f7a:	48 68       	lddpc	r8,80006f90 <udi_hid_kbd_up+0x8c>
80006f7c:	b0 f9       	st.b	r8[0x7],r9
80006f7e:	30 19       	mov	r9,1
80006f80:	48 58       	lddpc	r8,80006f94 <udi_hid_kbd_up+0x90>
80006f82:	b0 89       	st.b	r8[0x0],r9
80006f84:	f0 1f 00 05 	mcall	80006f98 <udi_hid_kbd_up+0x94>
80006f88:	e3 b7 00 00 	mtsr	0x0,r7
80006f8c:	e3 cf 90 80 	ldm	sp++,r7,pc,r12=1
80006f90:	00 00       	add	r0,r0
80006f92:	01 d4       	ld.ub	r4,r0[0x5]
80006f94:	00 00       	add	r0,r0
80006f96:	01 c6       	ld.ub	r6,r0[0x4]
80006f98:	80 00       	ld.sh	r0,r0[0x0]
80006f9a:	6e 18       	ld.w	r8,r7[0x4]

80006f9c <udi_hid_kbd_modifier_down>:
80006f9c:	eb cd 40 80 	pushm	r7,lr
80006fa0:	e1 b7 00 00 	mfsr	r7,0x0
80006fa4:	d3 03       	ssrf	0x10
80006fa6:	48 78       	lddpc	r8,80006fc0 <udi_hid_kbd_modifier_down+0x24>
80006fa8:	11 89       	ld.ub	r9,r8[0x0]
80006faa:	12 4c       	or	r12,r9
80006fac:	b0 8c       	st.b	r8[0x0],r12
80006fae:	30 19       	mov	r9,1
80006fb0:	48 58       	lddpc	r8,80006fc4 <udi_hid_kbd_modifier_down+0x28>
80006fb2:	b0 89       	st.b	r8[0x0],r9
80006fb4:	f0 1f 00 05 	mcall	80006fc8 <udi_hid_kbd_modifier_down+0x2c>
80006fb8:	e3 b7 00 00 	mtsr	0x0,r7
80006fbc:	e3 cf 90 80 	ldm	sp++,r7,pc,r12=1
80006fc0:	00 00       	add	r0,r0
80006fc2:	01 d4       	ld.ub	r4,r0[0x5]
80006fc4:	00 00       	add	r0,r0
80006fc6:	01 c6       	ld.ub	r6,r0[0x4]
80006fc8:	80 00       	ld.sh	r0,r0[0x0]
80006fca:	6e 18       	ld.w	r8,r7[0x4]

80006fcc <udi_hid_kbd_modifier_up>:
80006fcc:	eb cd 40 80 	pushm	r7,lr
80006fd0:	e1 b7 00 00 	mfsr	r7,0x0
80006fd4:	d3 03       	ssrf	0x10
80006fd6:	48 88       	lddpc	r8,80006ff4 <udi_hid_kbd_modifier_up+0x28>
80006fd8:	5c dc       	com	r12
80006fda:	11 89       	ld.ub	r9,r8[0x0]
80006fdc:	12 6c       	and	r12,r9
80006fde:	b0 8c       	st.b	r8[0x0],r12
80006fe0:	30 19       	mov	r9,1
80006fe2:	48 68       	lddpc	r8,80006ff8 <udi_hid_kbd_modifier_up+0x2c>
80006fe4:	b0 89       	st.b	r8[0x0],r9
80006fe6:	f0 1f 00 06 	mcall	80006ffc <udi_hid_kbd_modifier_up+0x30>
80006fea:	e3 b7 00 00 	mtsr	0x0,r7
80006fee:	e3 cf 90 80 	ldm	sp++,r7,pc,r12=1
80006ff2:	00 00       	add	r0,r0
80006ff4:	00 00       	add	r0,r0
80006ff6:	01 d4       	ld.ub	r4,r0[0x5]
80006ff8:	00 00       	add	r0,r0
80006ffa:	01 c6       	ld.ub	r6,r0[0x4]
80006ffc:	80 00       	ld.sh	r0,r0[0x0]
80006ffe:	6e 18       	ld.w	r8,r7[0x4]

80007000 <udi_hid_kbd_setup>:
80007000:	d4 01       	pushm	lr
80007002:	48 49       	lddpc	r9,80007010 <udi_hid_kbd_setup+0x10>
80007004:	48 4a       	lddpc	r10,80007014 <udi_hid_kbd_setup+0x14>
80007006:	48 5b       	lddpc	r11,80007018 <udi_hid_kbd_setup+0x18>
80007008:	48 5c       	lddpc	r12,8000701c <udi_hid_kbd_setup+0x1c>
8000700a:	f0 1f 00 06 	mcall	80007020 <udi_hid_kbd_setup+0x20>
8000700e:	d8 02       	popm	pc
80007010:	80 00       	ld.sh	r0,r0[0x0]
80007012:	6d d8       	ld.w	r8,r6[0x74]
80007014:	00 00       	add	r0,r0
80007016:	00 0d       	add	sp,r0
80007018:	00 00       	add	r0,r0
8000701a:	01 d0       	ld.ub	r0,r0[0x5]
8000701c:	00 00       	add	r0,r0
8000701e:	01 dc       	ld.ub	r12,r0[0x5]
80007020:	80 00       	ld.sh	r0,r0[0x0]
80007022:	70 80       	ld.w	r0,r8[0x20]

80007024 <udi_hid_kbd_setreport_valid>:
80007024:	d4 01       	pushm	lr
80007026:	48 38       	lddpc	r8,80007030 <udi_hid_kbd_setreport_valid+0xc>
80007028:	11 8c       	ld.ub	r12,r8[0x0]
8000702a:	f0 1f 00 03 	mcall	80007034 <udi_hid_kbd_setreport_valid+0x10>
8000702e:	d8 02       	popm	pc
80007030:	00 00       	add	r0,r0
80007032:	01 d1       	ld.ub	r1,r0[0x5]
80007034:	80 00       	ld.sh	r0,r0[0x0]
80007036:	78 be       	ld.w	lr,r12[0x2c]

80007038 <udi_hid_kbd_disable>:
80007038:	d4 01       	pushm	lr
8000703a:	f0 1f 00 02 	mcall	80007040 <udi_hid_kbd_disable+0x8>
8000703e:	d8 02       	popm	pc
80007040:	80 00       	ld.sh	r0,r0[0x0]
80007042:	78 bc       	ld.w	r12,r12[0x2c]

80007044 <udi_hid_kbd_enable>:
80007044:	d4 01       	pushm	lr
80007046:	30 08       	mov	r8,0
80007048:	48 89       	lddpc	r9,80007068 <udi_hid_kbd_enable+0x24>
8000704a:	b2 88       	st.b	r9[0x0],r8
8000704c:	48 89       	lddpc	r9,8000706c <udi_hid_kbd_enable+0x28>
8000704e:	b2 88       	st.b	r9[0x0],r8
80007050:	48 89       	lddpc	r9,80007070 <udi_hid_kbd_enable+0x2c>
80007052:	b2 88       	st.b	r9[0x0],r8
80007054:	30 0a       	mov	r10,0
80007056:	30 0b       	mov	r11,0
80007058:	48 79       	lddpc	r9,80007074 <udi_hid_kbd_enable+0x30>
8000705a:	f2 eb 00 00 	st.d	r9[0],r10
8000705e:	48 79       	lddpc	r9,80007078 <udi_hid_kbd_enable+0x34>
80007060:	b2 88       	st.b	r9[0x0],r8
80007062:	f0 1f 00 07 	mcall	8000707c <udi_hid_kbd_enable+0x38>
80007066:	d8 02       	popm	pc
80007068:	00 00       	add	r0,r0
8000706a:	01 dc       	ld.ub	r12,r0[0x5]
8000706c:	00 00       	add	r0,r0
8000706e:	01 d0       	ld.ub	r0,r0[0x5]
80007070:	00 00       	add	r0,r0
80007072:	01 c7       	ld.ub	r7,r0[0x4]
80007074:	00 00       	add	r0,r0
80007076:	01 d4       	ld.ub	r4,r0[0x5]
80007078:	00 00       	add	r0,r0
8000707a:	01 c6       	ld.ub	r6,r0[0x4]
8000707c:	80 00       	ld.sh	r0,r0[0x0]
8000707e:	78 ba       	ld.w	r10,r12[0x2c]

80007080 <udi_hid_setup>:
80007080:	eb cd 40 80 	pushm	r7,lr
80007084:	14 97       	mov	r7,r10
80007086:	4c 08       	lddpc	r8,80007184 <udi_hid_setup+0x104>
80007088:	11 88       	ld.ub	r8,r8[0x0]
8000708a:	30 0a       	mov	r10,0
8000708c:	f4 08 18 00 	cp.b	r8,r10
80007090:	c5 04       	brge	80007130 <udi_hid_setup+0xb0>
80007092:	e2 18 00 60 	andl	r8,0x60,COH
80007096:	c3 31       	brne	800070fc <udi_hid_setup+0x7c>
80007098:	4b b9       	lddpc	r9,80007184 <udi_hid_setup+0x104>
8000709a:	13 9a       	ld.ub	r10,r9[0x1]
8000709c:	30 69       	mov	r9,6
8000709e:	f2 0a 18 00 	cp.b	r10,r9
800070a2:	c2 d1       	brne	800070fc <udi_hid_setup+0x7c>
800070a4:	f0 1f 00 39 	mcall	80007188 <udi_hid_setup+0x108>
800070a8:	2f 7c       	sub	r12,-9
800070aa:	19 99       	ld.ub	r9,r12[0x1]
800070ac:	32 18       	mov	r8,33
800070ae:	f0 09 18 00 	cp.b	r9,r8
800070b2:	c2 31       	brne	800070f8 <udi_hid_setup+0x78>
800070b4:	4b 48       	lddpc	r8,80007184 <udi_hid_setup+0x104>
800070b6:	11 a8       	ld.ub	r8,r8[0x2]
800070b8:	32 19       	mov	r9,33
800070ba:	f2 08 18 00 	cp.b	r8,r9
800070be:	c0 a1       	brne	800070d2 <udi_hid_setup+0x52>
800070c0:	4b 18       	lddpc	r8,80007184 <udi_hid_setup+0x104>
800070c2:	91 2c       	st.w	r8[0x8],r12
800070c4:	90 b9       	ld.uh	r9,r8[0x6]
800070c6:	19 8a       	ld.ub	r10,r12[0x0]
800070c8:	f2 0a 0d 49 	min	r9,r9,r10
800070cc:	b0 69       	st.h	r8[0xc],r9
800070ce:	e3 cf 90 80 	ldm	sp++,r7,pc,r12=1
800070d2:	19 e9       	ld.ub	r9,r12[0x6]
800070d4:	f0 09 18 00 	cp.b	r9,r8
800070d8:	c1 01       	brne	800070f8 <udi_hid_setup+0x78>
800070da:	4a b8       	lddpc	r8,80007184 <udi_hid_setup+0x104>
800070dc:	91 27       	st.w	r8[0x8],r7
800070de:	90 ba       	ld.uh	r10,r8[0x6]
800070e0:	19 fb       	ld.ub	r11,r12[0x7]
800070e2:	f9 39 00 08 	ld.ub	r9,r12[8]
800070e6:	f3 eb 10 89 	or	r9,r9,r11<<0x8
800070ea:	5c c9       	swap.bh	r9
800070ec:	5c 79       	castu.h	r9
800070ee:	f4 09 0d 49 	min	r9,r10,r9
800070f2:	b0 69       	st.h	r8[0xc],r9
800070f4:	e3 cf 90 80 	ldm	sp++,r7,pc,r12=1
800070f8:	e3 cf 80 80 	ldm	sp++,r7,pc,r12=0
800070fc:	e0 48 00 20 	cp.w	r8,32
80007100:	c4 01       	brne	80007180 <udi_hid_setup+0x100>
80007102:	4a 18       	lddpc	r8,80007184 <udi_hid_setup+0x104>
80007104:	11 98       	ld.ub	r8,r8[0x1]
80007106:	30 29       	mov	r9,2
80007108:	f2 08 18 00 	cp.b	r8,r9
8000710c:	c0 60       	breq	80007118 <udi_hid_setup+0x98>
8000710e:	30 39       	mov	r9,3
80007110:	f2 08 18 00 	cp.b	r8,r9
80007114:	c3 61       	brne	80007180 <udi_hid_setup+0x100>
80007116:	c0 78       	rjmp	80007124 <udi_hid_setup+0xa4>
80007118:	49 b8       	lddpc	r8,80007184 <udi_hid_setup+0x104>
8000711a:	91 2c       	st.w	r8[0x8],r12
8000711c:	30 19       	mov	r9,1
8000711e:	b0 69       	st.h	r8[0xc],r9
80007120:	e3 cf 90 80 	ldm	sp++,r7,pc,r12=1
80007124:	49 88       	lddpc	r8,80007184 <udi_hid_setup+0x104>
80007126:	91 2b       	st.w	r8[0x8],r11
80007128:	30 19       	mov	r9,1
8000712a:	b0 69       	st.h	r8[0xc],r9
8000712c:	e3 cf 90 80 	ldm	sp++,r7,pc,r12=1
80007130:	e2 18 00 60 	andl	r8,0x60,COH
80007134:	e0 48 00 20 	cp.w	r8,32
80007138:	c2 41       	brne	80007180 <udi_hid_setup+0x100>
8000713a:	49 38       	lddpc	r8,80007184 <udi_hid_setup+0x104>
8000713c:	11 98       	ld.ub	r8,r8[0x1]
8000713e:	30 9a       	mov	r10,9
80007140:	f4 08 18 00 	cp.b	r8,r10
80007144:	c0 b0       	breq	8000715a <udi_hid_setup+0xda>
80007146:	c1 d3       	brcs	80007180 <udi_hid_setup+0x100>
80007148:	30 a9       	mov	r9,10
8000714a:	f2 08 18 00 	cp.b	r8,r9
8000714e:	c0 90       	breq	80007160 <udi_hid_setup+0xe0>
80007150:	30 b9       	mov	r9,11
80007152:	f2 08 18 00 	cp.b	r8,r9
80007156:	c1 51       	brne	80007180 <udi_hid_setup+0x100>
80007158:	c0 98       	rjmp	8000716a <udi_hid_setup+0xea>
8000715a:	5d 19       	icall	r9
8000715c:	e3 cd 80 80 	ldm	sp++,r7,pc
80007160:	48 98       	lddpc	r8,80007184 <udi_hid_setup+0x104>
80007162:	11 a8       	ld.ub	r8,r8[0x2]
80007164:	b8 88       	st.b	r12[0x0],r8
80007166:	e3 cf 90 80 	ldm	sp++,r7,pc,r12=1
8000716a:	48 78       	lddpc	r8,80007184 <udi_hid_setup+0x104>
8000716c:	90 39       	ld.sh	r9,r8[0x6]
8000716e:	30 08       	mov	r8,0
80007170:	f0 09 19 00 	cp.h	r9,r8
80007174:	c0 61       	brne	80007180 <udi_hid_setup+0x100>
80007176:	48 48       	lddpc	r8,80007184 <udi_hid_setup+0x104>
80007178:	90 18       	ld.sh	r8,r8[0x2]
8000717a:	b6 88       	st.b	r11[0x0],r8
8000717c:	e3 cf 90 80 	ldm	sp++,r7,pc,r12=1
80007180:	e3 cf 80 80 	ldm	sp++,r7,pc,r12=0
80007184:	00 00       	add	r0,r0
80007186:	04 90       	mov	r0,r2
80007188:	80 00       	ld.sh	r0,r0[0x0]
8000718a:	71 8c       	ld.w	r12,r8[0x60]

8000718c <udc_get_interface_desc>:
8000718c:	48 28       	lddpc	r8,80007194 <udc_get_interface_desc+0x8>
8000718e:	70 0c       	ld.w	r12,r8[0x0]
80007190:	5e fc       	retal	r12
80007192:	00 00       	add	r0,r0
80007194:	00 00       	add	r0,r0
80007196:	01 ec       	ld.ub	r12,r0[0x6]

80007198 <udc_get_eof_conf>:
80007198:	48 78       	lddpc	r8,800071b4 <udc_get_eof_conf+0x1c>
8000719a:	70 08       	ld.w	r8,r8[0x0]
8000719c:	70 08       	ld.w	r8,r8[0x0]
8000719e:	11 aa       	ld.ub	r10,r8[0x2]
800071a0:	11 b9       	ld.ub	r9,r8[0x3]
800071a2:	f3 ea 10 89 	or	r9,r9,r10<<0x8
800071a6:	5c c9       	swap.bh	r9
800071a8:	f9 d9 c0 10 	bfextu	r12,r9,0x0,0x10
800071ac:	f0 0c 00 0c 	add	r12,r8,r12
800071b0:	5e fc       	retal	r12
800071b2:	00 00       	add	r0,r0
800071b4:	00 00       	add	r0,r0
800071b6:	01 e0       	ld.ub	r0,r0[0x6]

800071b8 <udc_update_iface_desc>:
800071b8:	eb cd 40 e0 	pushm	r5-r7,lr
800071bc:	18 97       	mov	r7,r12
800071be:	16 96       	mov	r6,r11
800071c0:	49 b8       	lddpc	r8,8000722c <udc_update_iface_desc+0x74>
800071c2:	11 89       	ld.ub	r9,r8[0x0]
800071c4:	30 08       	mov	r8,0
800071c6:	f0 09 18 00 	cp.b	r9,r8
800071ca:	c2 f0       	breq	80007228 <udc_update_iface_desc+0x70>
800071cc:	49 98       	lddpc	r8,80007230 <udc_update_iface_desc+0x78>
800071ce:	70 08       	ld.w	r8,r8[0x0]
800071d0:	70 08       	ld.w	r8,r8[0x0]
800071d2:	11 c9       	ld.ub	r9,r8[0x4]
800071d4:	18 9e       	mov	lr,r12
800071d6:	f8 09 18 00 	cp.b	r9,r12
800071da:	e0 88 00 27 	brls	80007228 <udc_update_iface_desc+0x70>
800071de:	49 65       	lddpc	r5,80007234 <udc_update_iface_desc+0x7c>
800071e0:	8b 08       	st.w	r5[0x0],r8
800071e2:	f0 1f 00 16 	mcall	80007238 <udc_update_iface_desc+0x80>
800071e6:	6a 08       	ld.w	r8,r5[0x0]
800071e8:	10 3c       	cp.w	r12,r8
800071ea:	e0 88 00 1f 	brls	80007228 <udc_update_iface_desc+0x70>
800071ee:	30 4b       	mov	r11,4
800071f0:	10 99       	mov	r9,r8
800071f2:	11 9a       	ld.ub	r10,r8[0x1]
800071f4:	f6 0a 18 00 	cp.b	r10,r11
800071f8:	c0 a1       	brne	8000720c <udc_update_iface_desc+0x54>
800071fa:	11 aa       	ld.ub	r10,r8[0x2]
800071fc:	0e 9e       	mov	lr,r7
800071fe:	ee 0a 18 00 	cp.b	r10,r7
80007202:	c0 51       	brne	8000720c <udc_update_iface_desc+0x54>
80007204:	11 ba       	ld.ub	r10,r8[0x3]
80007206:	ec 0a 18 00 	cp.b	r10,r6
8000720a:	c0 b0       	breq	80007220 <udc_update_iface_desc+0x68>
8000720c:	13 88       	ld.ub	r8,r9[0x0]
8000720e:	f2 08 00 08 	add	r8,r9,r8
80007212:	10 3c       	cp.w	r12,r8
80007214:	fe 9b ff ee 	brhi	800071f0 <udc_update_iface_desc+0x38>
80007218:	48 79       	lddpc	r9,80007234 <udc_update_iface_desc+0x7c>
8000721a:	93 08       	st.w	r9[0x0],r8
8000721c:	e3 cf 80 e0 	ldm	sp++,r5-r7,pc,r12=0
80007220:	48 59       	lddpc	r9,80007234 <udc_update_iface_desc+0x7c>
80007222:	93 08       	st.w	r9[0x0],r8
80007224:	e3 cf 90 e0 	ldm	sp++,r5-r7,pc,r12=1
80007228:	e3 cf 80 e0 	ldm	sp++,r5-r7,pc,r12=0
8000722c:	00 00       	add	r0,r0
8000722e:	01 e8       	ld.ub	r8,r0[0x6]
80007230:	00 00       	add	r0,r0
80007232:	01 e0       	ld.ub	r0,r0[0x6]
80007234:	00 00       	add	r0,r0
80007236:	01 ec       	ld.ub	r12,r0[0x6]
80007238:	80 00       	ld.sh	r0,r0[0x0]
8000723a:	71 98       	ld.w	r8,r8[0x64]

8000723c <udc_next_desc_in_iface>:
8000723c:	eb cd 40 c0 	pushm	r6-r7,lr
80007240:	18 96       	mov	r6,r12
80007242:	16 97       	mov	r7,r11
80007244:	f0 1f 00 11 	mcall	80007288 <udc_next_desc_in_iface+0x4c>
80007248:	0d 88       	ld.ub	r8,r6[0x0]
8000724a:	10 06       	add	r6,r8
8000724c:	0c 3c       	cp.w	r12,r6
8000724e:	e0 88 00 19 	brls	80007280 <udc_next_desc_in_iface+0x44>
80007252:	0d 98       	ld.ub	r8,r6[0x1]
80007254:	30 49       	mov	r9,4
80007256:	f2 08 18 00 	cp.b	r8,r9
8000725a:	c1 30       	breq	80007280 <udc_next_desc_in_iface+0x44>
8000725c:	ee 08 18 00 	cp.b	r8,r7
80007260:	c0 a1       	brne	80007274 <udc_next_desc_in_iface+0x38>
80007262:	c1 08       	rjmp	80007282 <udc_next_desc_in_iface+0x46>
80007264:	0d 98       	ld.ub	r8,r6[0x1]
80007266:	f2 08 18 00 	cp.b	r8,r9
8000726a:	c0 b0       	breq	80007280 <udc_next_desc_in_iface+0x44>
8000726c:	ee 08 18 00 	cp.b	r8,r7
80007270:	c0 31       	brne	80007276 <udc_next_desc_in_iface+0x3a>
80007272:	c0 88       	rjmp	80007282 <udc_next_desc_in_iface+0x46>
80007274:	30 49       	mov	r9,4
80007276:	0d 88       	ld.ub	r8,r6[0x0]
80007278:	10 06       	add	r6,r8
8000727a:	0c 3c       	cp.w	r12,r6
8000727c:	fe 9b ff f4 	brhi	80007264 <udc_next_desc_in_iface+0x28>
80007280:	30 06       	mov	r6,0
80007282:	0c 9c       	mov	r12,r6
80007284:	e3 cd 80 c0 	ldm	sp++,r6-r7,pc
80007288:	80 00       	ld.sh	r0,r0[0x0]
8000728a:	71 98       	ld.w	r8,r8[0x64]

8000728c <udc_valid_address>:
8000728c:	d4 01       	pushm	lr
8000728e:	48 48       	lddpc	r8,8000729c <udc_valid_address+0x10>
80007290:	11 bc       	ld.ub	r12,r8[0x3]
80007292:	f9 dc c0 07 	bfextu	r12,r12,0x0,0x7
80007296:	f0 1f 00 03 	mcall	800072a0 <udc_valid_address+0x14>
8000729a:	d8 02       	popm	pc
8000729c:	00 00       	add	r0,r0
8000729e:	04 90       	mov	r0,r2
800072a0:	80 00       	ld.sh	r0,r0[0x0]
800072a2:	32 a2       	mov	r2,42

800072a4 <udc_iface_enable>:
800072a4:	eb cd 40 e0 	pushm	r5-r7,lr
800072a8:	18 95       	mov	r5,r12
800072aa:	f0 1f 00 12 	mcall	800072f0 <udc_iface_enable+0x4c>
800072ae:	c1 f0       	breq	800072ec <udc_iface_enable+0x48>
800072b0:	49 18       	lddpc	r8,800072f4 <udc_iface_enable+0x50>
800072b2:	70 07       	ld.w	r7,r8[0x0]
800072b4:	30 56       	mov	r6,5
800072b6:	0c 9b       	mov	r11,r6
800072b8:	0e 9c       	mov	r12,r7
800072ba:	f0 1f 00 10 	mcall	800072f8 <udc_iface_enable+0x54>
800072be:	18 97       	mov	r7,r12
800072c0:	c0 d0       	breq	800072da <udc_iface_enable+0x36>
800072c2:	19 ca       	ld.ub	r10,r12[0x4]
800072c4:	19 d8       	ld.ub	r8,r12[0x5]
800072c6:	f1 ea 10 8a 	or	r10,r8,r10<<0x8
800072ca:	5c ca       	swap.bh	r10
800072cc:	5c 7a       	castu.h	r10
800072ce:	19 bb       	ld.ub	r11,r12[0x3]
800072d0:	19 ac       	ld.ub	r12,r12[0x2]
800072d2:	f0 1f 00 0b 	mcall	800072fc <udc_iface_enable+0x58>
800072d6:	cf 01       	brne	800072b6 <udc_iface_enable+0x12>
800072d8:	c0 a8       	rjmp	800072ec <udc_iface_enable+0x48>
800072da:	48 a8       	lddpc	r8,80007300 <udc_iface_enable+0x5c>
800072dc:	70 08       	ld.w	r8,r8[0x0]
800072de:	70 18       	ld.w	r8,r8[0x4]
800072e0:	f0 05 03 28 	ld.w	r8,r8[r5<<0x2]
800072e4:	70 0c       	ld.w	r12,r8[0x0]
800072e6:	5d 1c       	icall	r12
800072e8:	e3 cd 80 e0 	ldm	sp++,r5-r7,pc
800072ec:	e3 cf 80 e0 	ldm	sp++,r5-r7,pc,r12=0
800072f0:	80 00       	ld.sh	r0,r0[0x0]
800072f2:	71 b8       	ld.w	r8,r8[0x6c]
800072f4:	00 00       	add	r0,r0
800072f6:	01 ec       	ld.ub	r12,r0[0x6]
800072f8:	80 00       	ld.sh	r0,r0[0x0]
800072fa:	72 3c       	ld.w	r12,r9[0xc]
800072fc:	80 00       	ld.sh	r0,r0[0x0]
800072fe:	37 50       	mov	r0,117
80007300:	00 00       	add	r0,r0
80007302:	01 e0       	ld.ub	r0,r0[0x6]

80007304 <udc_iface_disable>:
80007304:	eb cd 40 e0 	pushm	r5-r7,lr
80007308:	18 96       	mov	r6,r12
8000730a:	18 97       	mov	r7,r12
8000730c:	30 0b       	mov	r11,0
8000730e:	f0 1f 00 12 	mcall	80007354 <udc_iface_disable+0x50>
80007312:	c1 e0       	breq	8000734e <udc_iface_disable+0x4a>
80007314:	49 18       	lddpc	r8,80007358 <udc_iface_disable+0x54>
80007316:	70 08       	ld.w	r8,r8[0x0]
80007318:	70 18       	ld.w	r8,r8[0x4]
8000731a:	f0 06 03 25 	ld.w	r5,r8[r6<<0x2]
8000731e:	6a 3c       	ld.w	r12,r5[0xc]
80007320:	5d 1c       	icall	r12
80007322:	18 9b       	mov	r11,r12
80007324:	0c 9c       	mov	r12,r6
80007326:	f0 1f 00 0c 	mcall	80007354 <udc_iface_disable+0x50>
8000732a:	c1 20       	breq	8000734e <udc_iface_disable+0x4a>
8000732c:	48 c8       	lddpc	r8,8000735c <udc_iface_disable+0x58>
8000732e:	70 07       	ld.w	r7,r8[0x0]
80007330:	30 56       	mov	r6,5
80007332:	0c 9b       	mov	r11,r6
80007334:	0e 9c       	mov	r12,r7
80007336:	f0 1f 00 0b 	mcall	80007360 <udc_iface_disable+0x5c>
8000733a:	18 97       	mov	r7,r12
8000733c:	c0 50       	breq	80007346 <udc_iface_disable+0x42>
8000733e:	19 ac       	ld.ub	r12,r12[0x2]
80007340:	f0 1f 00 09 	mcall	80007364 <udc_iface_disable+0x60>
80007344:	cf 7b       	rjmp	80007332 <udc_iface_disable+0x2e>
80007346:	6a 18       	ld.w	r8,r5[0x4]
80007348:	5d 18       	icall	r8
8000734a:	e3 cf 90 e0 	ldm	sp++,r5-r7,pc,r12=1
8000734e:	e3 cf 80 e0 	ldm	sp++,r5-r7,pc,r12=0
80007352:	00 00       	add	r0,r0
80007354:	80 00       	ld.sh	r0,r0[0x0]
80007356:	71 b8       	ld.w	r8,r8[0x6c]
80007358:	00 00       	add	r0,r0
8000735a:	01 e0       	ld.ub	r0,r0[0x6]
8000735c:	00 00       	add	r0,r0
8000735e:	01 ec       	ld.ub	r12,r0[0x6]
80007360:	80 00       	ld.sh	r0,r0[0x0]
80007362:	72 3c       	ld.w	r12,r9[0xc]
80007364:	80 00       	ld.sh	r0,r0[0x0]
80007366:	34 28       	mov	r8,66

80007368 <udc_reset>:
80007368:	eb cd 40 c0 	pushm	r6-r7,lr
8000736c:	49 68       	lddpc	r8,800073c4 <udc_reset+0x5c>
8000736e:	11 89       	ld.ub	r9,r8[0x0]
80007370:	30 08       	mov	r8,0
80007372:	f0 09 18 00 	cp.b	r9,r8
80007376:	c1 70       	breq	800073a4 <udc_reset+0x3c>
80007378:	49 48       	lddpc	r8,800073c8 <udc_reset+0x60>
8000737a:	70 08       	ld.w	r8,r8[0x0]
8000737c:	70 08       	ld.w	r8,r8[0x0]
8000737e:	11 c9       	ld.ub	r9,r8[0x4]
80007380:	30 08       	mov	r8,0
80007382:	f0 09 18 00 	cp.b	r9,r8
80007386:	c0 f0       	breq	800073a4 <udc_reset+0x3c>
80007388:	30 07       	mov	r7,0
8000738a:	49 06       	lddpc	r6,800073c8 <udc_reset+0x60>
8000738c:	0e 9c       	mov	r12,r7
8000738e:	f0 1f 00 10 	mcall	800073cc <udc_reset+0x64>
80007392:	2f f7       	sub	r7,-1
80007394:	5c 57       	castu.b	r7
80007396:	6c 08       	ld.w	r8,r6[0x0]
80007398:	70 08       	ld.w	r8,r8[0x0]
8000739a:	11 c8       	ld.ub	r8,r8[0x4]
8000739c:	ee 08 18 00 	cp.b	r8,r7
800073a0:	fe 9b ff f6 	brhi	8000738c <udc_reset+0x24>
800073a4:	30 09       	mov	r9,0
800073a6:	48 88       	lddpc	r8,800073c4 <udc_reset+0x5c>
800073a8:	b0 89       	st.b	r8[0x0],r9
800073aa:	48 a8       	lddpc	r8,800073d0 <udc_reset+0x68>
800073ac:	90 88       	ld.uh	r8,r8[0x0]
800073ae:	e2 18 02 00 	andl	r8,0x200,COH
800073b2:	c0 30       	breq	800073b8 <udc_reset+0x50>
800073b4:	f0 1f 00 08 	mcall	800073d4 <udc_reset+0x6c>
800073b8:	30 09       	mov	r9,0
800073ba:	48 68       	lddpc	r8,800073d0 <udc_reset+0x68>
800073bc:	b0 09       	st.h	r8[0x0],r9
800073be:	e3 cd 80 c0 	ldm	sp++,r6-r7,pc
800073c2:	00 00       	add	r0,r0
800073c4:	00 00       	add	r0,r0
800073c6:	01 e8       	ld.ub	r8,r0[0x6]
800073c8:	00 00       	add	r0,r0
800073ca:	01 e0       	ld.ub	r0,r0[0x6]
800073cc:	80 00       	ld.sh	r0,r0[0x0]
800073ce:	73 04       	ld.w	r4,r9[0x40]
800073d0:	00 00       	add	r0,r0
800073d2:	01 e6       	ld.ub	r6,r0[0x6]
800073d4:	80 00       	ld.sh	r0,r0[0x0]
800073d6:	78 b8       	ld.w	r8,r12[0x2c]

800073d8 <udc_process_setup>:
800073d8:	eb cd 40 e0 	pushm	r5-r7,lr
800073dc:	fe f8 04 7c 	ld.w	r8,pc[1148]
800073e0:	30 09       	mov	r9,0
800073e2:	b0 69       	st.h	r8[0xc],r9
800073e4:	30 0a       	mov	r10,0
800073e6:	91 4a       	st.w	r8[0x10],r10
800073e8:	91 5a       	st.w	r8[0x14],r10
800073ea:	11 88       	ld.ub	r8,r8[0x0]
800073ec:	10 9a       	mov	r10,r8
800073ee:	f2 08 18 00 	cp.b	r8,r9
800073f2:	c0 94       	brge	80007404 <udc_process_setup+0x2c>
800073f4:	fe f9 04 64 	ld.w	r9,pc[1124]
800073f8:	92 3b       	ld.sh	r11,r9[0x6]
800073fa:	30 09       	mov	r9,0
800073fc:	f2 0b 19 00 	cp.h	r11,r9
80007400:	e0 80 02 2a 	breq	80007854 <udc_process_setup+0x47c>
80007404:	10 99       	mov	r9,r8
80007406:	e2 19 00 60 	andl	r9,0x60,COH
8000740a:	e0 81 01 f9 	brne	800077fc <udc_process_setup+0x424>
8000740e:	f2 0a 18 00 	cp.b	r10,r9
80007412:	e0 84 01 06 	brge	8000761e <udc_process_setup+0x246>
80007416:	fe f9 04 42 	ld.w	r9,pc[1090]
8000741a:	92 39       	ld.sh	r9,r9[0x6]
8000741c:	58 09       	cp.w	r9,0
8000741e:	e0 80 01 ef 	breq	800077fc <udc_process_setup+0x424>
80007422:	f1 d8 c0 05 	bfextu	r8,r8,0x0,0x5
80007426:	e0 81 00 a3 	brne	8000756c <udc_process_setup+0x194>
8000742a:	fe fa 04 2e 	ld.w	r10,pc[1070]
8000742e:	15 9a       	ld.ub	r10,r10[0x1]
80007430:	30 6b       	mov	r11,6
80007432:	f6 0a 18 00 	cp.b	r10,r11
80007436:	c1 a0       	breq	8000746a <udc_process_setup+0x92>
80007438:	30 8b       	mov	r11,8
8000743a:	f6 0a 18 00 	cp.b	r10,r11
8000743e:	e0 80 00 88 	breq	8000754e <udc_process_setup+0x176>
80007442:	30 0b       	mov	r11,0
80007444:	f6 0a 18 00 	cp.b	r10,r11
80007448:	e0 81 00 92 	brne	8000756c <udc_process_setup+0x194>
8000744c:	30 28       	mov	r8,2
8000744e:	f0 09 19 00 	cp.h	r9,r8
80007452:	c0 40       	breq	8000745a <udc_process_setup+0x82>
80007454:	30 0c       	mov	r12,0
80007456:	e0 8f 01 cf 	bral	800077f4 <udc_process_setup+0x41c>
8000745a:	30 2b       	mov	r11,2
8000745c:	fe fc 04 00 	ld.w	r12,pc[1024]
80007460:	f0 1f 01 00 	mcall	80007860 <udc_process_setup+0x488>
80007464:	30 1c       	mov	r12,1
80007466:	e0 8f 01 c7 	bral	800077f4 <udc_process_setup+0x41c>
8000746a:	fe f8 03 ee 	ld.w	r8,pc[1006]
8000746e:	90 19       	ld.sh	r9,r8[0x2]
80007470:	f2 08 16 08 	lsr	r8,r9,0x8
80007474:	30 2a       	mov	r10,2
80007476:	f4 08 18 00 	cp.b	r8,r10
8000747a:	c1 00       	breq	8000749a <udc_process_setup+0xc2>
8000747c:	30 3a       	mov	r10,3
8000747e:	f4 08 18 00 	cp.b	r8,r10
80007482:	c2 a0       	breq	800074d6 <udc_process_setup+0xfe>
80007484:	30 19       	mov	r9,1
80007486:	f2 08 18 00 	cp.b	r8,r9
8000748a:	c5 f1       	brne	80007548 <udc_process_setup+0x170>
8000748c:	fe f8 03 d8 	ld.w	r8,pc[984]
80007490:	70 0c       	ld.w	r12,r8[0x0]
80007492:	19 8b       	ld.ub	r11,r12[0x0]
80007494:	f0 1f 00 f3 	mcall	80007860 <udc_process_setup+0x488>
80007498:	c4 78       	rjmp	80007526 <udc_process_setup+0x14e>
8000749a:	5c 59       	castu.b	r9
8000749c:	fe f8 03 c8 	ld.w	r8,pc[968]
800074a0:	70 08       	ld.w	r8,r8[0x0]
800074a2:	f1 38 00 11 	ld.ub	r8,r8[17]
800074a6:	f2 08 18 00 	cp.b	r8,r9
800074aa:	e0 88 00 4f 	brls	80007548 <udc_process_setup+0x170>
800074ae:	fe f8 03 b6 	ld.w	r8,pc[950]
800074b2:	70 18       	ld.w	r8,r8[0x4]
800074b4:	f0 09 03 3c 	ld.w	r12,r8[r9<<0x3]
800074b8:	19 a9       	ld.ub	r9,r12[0x2]
800074ba:	19 b8       	ld.ub	r8,r12[0x3]
800074bc:	f1 e9 10 88 	or	r8,r8,r9<<0x8
800074c0:	5c c8       	swap.bh	r8
800074c2:	f7 d8 c0 10 	bfextu	r11,r8,0x0,0x10
800074c6:	f0 1f 00 e7 	mcall	80007860 <udc_process_setup+0x488>
800074ca:	fe f8 03 8e 	ld.w	r8,pc[910]
800074ce:	70 28       	ld.w	r8,r8[0x8]
800074d0:	30 29       	mov	r9,2
800074d2:	b0 99       	st.b	r8[0x1],r9
800074d4:	c2 98       	rjmp	80007526 <udc_process_setup+0x14e>
800074d6:	5c 59       	castu.b	r9
800074d8:	58 19       	cp.w	r9,1
800074da:	c1 00       	breq	800074fa <udc_process_setup+0x122>
800074dc:	58 29       	cp.w	r9,2
800074de:	c0 40       	breq	800074e6 <udc_process_setup+0x10e>
800074e0:	58 09       	cp.w	r9,0
800074e2:	c0 60       	breq	800074ee <udc_process_setup+0x116>
800074e4:	c3 28       	rjmp	80007548 <udc_process_setup+0x170>
800074e6:	fe fc 03 82 	ld.w	r12,pc[898]
800074ea:	30 cb       	mov	r11,12
800074ec:	c0 a8       	rjmp	80007500 <udc_process_setup+0x128>
800074ee:	30 4b       	mov	r11,4
800074f0:	fe fc 03 7c 	ld.w	r12,pc[892]
800074f4:	f0 1f 00 db 	mcall	80007860 <udc_process_setup+0x488>
800074f8:	c1 78       	rjmp	80007526 <udc_process_setup+0x14e>
800074fa:	fe fc 03 76 	ld.w	r12,pc[886]
800074fe:	30 9b       	mov	r11,9
80007500:	fe fa 03 74 	ld.w	r10,pc[884]
80007504:	2f ea       	sub	r10,-2
80007506:	18 98       	mov	r8,r12
80007508:	11 39       	ld.ub	r9,r8++
8000750a:	5c c9       	swap.bh	r9
8000750c:	14 b9       	st.h	r10++,r9
8000750e:	f0 0c 01 09 	sub	r9,r8,r12
80007512:	f6 09 18 00 	cp.b	r9,r11
80007516:	cf 93       	brcs	80007508 <udc_process_setup+0x130>
80007518:	a1 7b       	lsl	r11,0x1
8000751a:	2f eb       	sub	r11,-2
8000751c:	fe fc 03 58 	ld.w	r12,pc[856]
80007520:	b8 8b       	st.b	r12[0x0],r11
80007522:	f0 1f 00 d0 	mcall	80007860 <udc_process_setup+0x488>
80007526:	fe f8 03 32 	ld.w	r8,pc[818]
8000752a:	90 39       	ld.sh	r9,r8[0x6]
8000752c:	90 68       	ld.sh	r8,r8[0xc]
8000752e:	f2 08 19 00 	cp.h	r8,r9
80007532:	e0 8b 00 05 	brhi	8000753c <udc_process_setup+0x164>
80007536:	30 1c       	mov	r12,1
80007538:	e0 8f 01 5e 	bral	800077f4 <udc_process_setup+0x41c>
8000753c:	fe f8 03 1c 	ld.w	r8,pc[796]
80007540:	b0 69       	st.h	r8[0xc],r9
80007542:	30 1c       	mov	r12,1
80007544:	e0 8f 01 58 	bral	800077f4 <udc_process_setup+0x41c>
80007548:	30 0c       	mov	r12,0
8000754a:	e0 8f 01 55 	bral	800077f4 <udc_process_setup+0x41c>
8000754e:	30 18       	mov	r8,1
80007550:	f0 09 19 00 	cp.h	r9,r8
80007554:	c0 40       	breq	8000755c <udc_process_setup+0x184>
80007556:	30 0c       	mov	r12,0
80007558:	e0 8f 01 4e 	bral	800077f4 <udc_process_setup+0x41c>
8000755c:	30 1b       	mov	r11,1
8000755e:	fe fc 03 1a 	ld.w	r12,pc[794]
80007562:	f0 1f 00 c0 	mcall	80007860 <udc_process_setup+0x488>
80007566:	30 1c       	mov	r12,1
80007568:	e0 8f 01 46 	bral	800077f4 <udc_process_setup+0x41c>
8000756c:	58 18       	cp.w	r8,1
8000756e:	c3 61       	brne	800075da <udc_process_setup+0x202>
80007570:	fe fa 02 e8 	ld.w	r10,pc[744]
80007574:	15 9b       	ld.ub	r11,r10[0x1]
80007576:	30 aa       	mov	r10,10
80007578:	f4 0b 18 00 	cp.b	r11,r10
8000757c:	c2 f1       	brne	800075da <udc_process_setup+0x202>
8000757e:	f0 09 19 00 	cp.h	r9,r8
80007582:	c2 a1       	brne	800075d6 <udc_process_setup+0x1fe>
80007584:	fe f8 02 f4 	ld.w	r8,pc[756]
80007588:	11 89       	ld.ub	r9,r8[0x0]
8000758a:	30 08       	mov	r8,0
8000758c:	f0 09 18 00 	cp.b	r9,r8
80007590:	c2 30       	breq	800075d6 <udc_process_setup+0x1fe>
80007592:	fe f8 02 c6 	ld.w	r8,pc[710]
80007596:	11 d7       	ld.ub	r7,r8[0x5]
80007598:	fe f8 02 e4 	ld.w	r8,pc[740]
8000759c:	70 08       	ld.w	r8,r8[0x0]
8000759e:	70 08       	ld.w	r8,r8[0x0]
800075a0:	11 c8       	ld.ub	r8,r8[0x4]
800075a2:	ee 08 18 00 	cp.b	r8,r7
800075a6:	e0 88 00 18 	brls	800075d6 <udc_process_setup+0x1fe>
800075aa:	30 0b       	mov	r11,0
800075ac:	0e 9c       	mov	r12,r7
800075ae:	f0 1f 00 b5 	mcall	80007880 <udc_process_setup+0x4a8>
800075b2:	c1 20       	breq	800075d6 <udc_process_setup+0x1fe>
800075b4:	fe f8 02 c8 	ld.w	r8,pc[712]
800075b8:	70 08       	ld.w	r8,r8[0x0]
800075ba:	70 18       	ld.w	r8,r8[0x4]
800075bc:	f0 07 03 28 	ld.w	r8,r8[r7<<0x2]
800075c0:	70 3c       	ld.w	r12,r8[0xc]
800075c2:	5d 1c       	icall	r12
800075c4:	fe f8 02 c0 	ld.w	r8,pc[704]
800075c8:	b0 8c       	st.b	r8[0x0],r12
800075ca:	30 1b       	mov	r11,1
800075cc:	10 9c       	mov	r12,r8
800075ce:	f0 1f 00 a5 	mcall	80007860 <udc_process_setup+0x488>
800075d2:	30 1c       	mov	r12,1
800075d4:	c1 09       	rjmp	800077f4 <udc_process_setup+0x41c>
800075d6:	30 0c       	mov	r12,0
800075d8:	c0 e9       	rjmp	800077f4 <udc_process_setup+0x41c>
800075da:	58 28       	cp.w	r8,2
800075dc:	e0 81 01 10 	brne	800077fc <udc_process_setup+0x424>
800075e0:	fe f8 02 78 	ld.w	r8,pc[632]
800075e4:	11 9a       	ld.ub	r10,r8[0x1]
800075e6:	30 08       	mov	r8,0
800075e8:	f0 0a 18 00 	cp.b	r10,r8
800075ec:	e0 81 01 03 	brne	800077f2 <udc_process_setup+0x41a>
800075f0:	30 28       	mov	r8,2
800075f2:	f0 09 19 00 	cp.h	r9,r8
800075f6:	c0 30       	breq	800075fc <udc_process_setup+0x224>
800075f8:	30 0c       	mov	r12,0
800075fa:	cf d8       	rjmp	800077f4 <udc_process_setup+0x41c>
800075fc:	fe f8 02 5c 	ld.w	r8,pc[604]
80007600:	11 dc       	ld.ub	r12,r8[0x5]
80007602:	f0 1f 00 a2 	mcall	80007888 <udc_process_setup+0x4b0>
80007606:	e0 68 01 00 	mov	r8,256
8000760a:	f9 b8 00 00 	moveq	r8,0
8000760e:	fe fc 02 7e 	ld.w	r12,pc[638]
80007612:	b8 08       	st.h	r12[0x0],r8
80007614:	30 2b       	mov	r11,2
80007616:	f0 1f 00 93 	mcall	80007860 <udc_process_setup+0x488>
8000761a:	30 1c       	mov	r12,1
8000761c:	ce c8       	rjmp	800077f4 <udc_process_setup+0x41c>
8000761e:	f1 d8 c0 05 	bfextu	r8,r8,0x0,0x5
80007622:	e0 81 00 92 	brne	80007746 <udc_process_setup+0x36e>
80007626:	fe f9 02 32 	ld.w	r9,pc[562]
8000762a:	13 99       	ld.ub	r9,r9[0x1]
8000762c:	30 3a       	mov	r10,3
8000762e:	f4 09 18 00 	cp.b	r9,r10
80007632:	c3 70       	breq	800076a0 <udc_process_setup+0x2c8>
80007634:	e0 8b 00 08 	brhi	80007644 <udc_process_setup+0x26c>
80007638:	30 1a       	mov	r10,1
8000763a:	f4 09 18 00 	cp.b	r9,r10
8000763e:	e0 81 00 84 	brne	80007746 <udc_process_setup+0x36e>
80007642:	c1 98       	rjmp	80007674 <udc_process_setup+0x29c>
80007644:	30 5a       	mov	r10,5
80007646:	f4 09 18 00 	cp.b	r9,r10
8000764a:	c0 60       	breq	80007656 <udc_process_setup+0x27e>
8000764c:	30 9a       	mov	r10,9
8000764e:	f4 09 18 00 	cp.b	r9,r10
80007652:	c7 a1       	brne	80007746 <udc_process_setup+0x36e>
80007654:	c3 c8       	rjmp	800076cc <udc_process_setup+0x2f4>
80007656:	fe f8 02 02 	ld.w	r8,pc[514]
8000765a:	90 39       	ld.sh	r9,r8[0x6]
8000765c:	30 08       	mov	r8,0
8000765e:	f0 09 19 00 	cp.h	r9,r8
80007662:	c0 30       	breq	80007668 <udc_process_setup+0x290>
80007664:	30 0c       	mov	r12,0
80007666:	cc 78       	rjmp	800077f4 <udc_process_setup+0x41c>
80007668:	fe f9 02 28 	ld.w	r9,pc[552]
8000766c:	4f b8       	lddpc	r8,80007858 <udc_process_setup+0x480>
8000766e:	91 49       	st.w	r8[0x10],r9
80007670:	30 1c       	mov	r12,1
80007672:	cc 18       	rjmp	800077f4 <udc_process_setup+0x41c>
80007674:	4f 98       	lddpc	r8,80007858 <udc_process_setup+0x480>
80007676:	90 39       	ld.sh	r9,r8[0x6]
80007678:	30 08       	mov	r8,0
8000767a:	f0 09 19 00 	cp.h	r9,r8
8000767e:	c0 f1       	brne	8000769c <udc_process_setup+0x2c4>
80007680:	4f 68       	lddpc	r8,80007858 <udc_process_setup+0x480>
80007682:	90 19       	ld.sh	r9,r8[0x2]
80007684:	30 18       	mov	r8,1
80007686:	f0 09 19 00 	cp.h	r9,r8
8000768a:	c0 91       	brne	8000769c <udc_process_setup+0x2c4>
8000768c:	4f 48       	lddpc	r8,8000785c <udc_process_setup+0x484>
8000768e:	90 09       	ld.sh	r9,r8[0x0]
80007690:	a9 d9       	cbr	r9,0x9
80007692:	b0 09       	st.h	r8[0x0],r9
80007694:	f0 1f 00 80 	mcall	80007894 <udc_process_setup+0x4bc>
80007698:	30 1c       	mov	r12,1
8000769a:	ca d8       	rjmp	800077f4 <udc_process_setup+0x41c>
8000769c:	30 0c       	mov	r12,0
8000769e:	ca b8       	rjmp	800077f4 <udc_process_setup+0x41c>
800076a0:	4e e8       	lddpc	r8,80007858 <udc_process_setup+0x480>
800076a2:	90 39       	ld.sh	r9,r8[0x6]
800076a4:	30 08       	mov	r8,0
800076a6:	f0 09 19 00 	cp.h	r9,r8
800076aa:	c0 f1       	brne	800076c8 <udc_process_setup+0x2f0>
800076ac:	4e b8       	lddpc	r8,80007858 <udc_process_setup+0x480>
800076ae:	90 19       	ld.sh	r9,r8[0x2]
800076b0:	30 18       	mov	r8,1
800076b2:	f0 09 19 00 	cp.h	r9,r8
800076b6:	c0 91       	brne	800076c8 <udc_process_setup+0x2f0>
800076b8:	4e 98       	lddpc	r8,8000785c <udc_process_setup+0x484>
800076ba:	90 09       	ld.sh	r9,r8[0x0]
800076bc:	a9 b9       	sbr	r9,0x9
800076be:	b0 09       	st.h	r8[0x0],r9
800076c0:	f0 1f 00 76 	mcall	80007898 <udc_process_setup+0x4c0>
800076c4:	30 1c       	mov	r12,1
800076c6:	c9 78       	rjmp	800077f4 <udc_process_setup+0x41c>
800076c8:	30 0c       	mov	r12,0
800076ca:	c9 58       	rjmp	800077f4 <udc_process_setup+0x41c>
800076cc:	4e 38       	lddpc	r8,80007858 <udc_process_setup+0x480>
800076ce:	90 39       	ld.sh	r9,r8[0x6]
800076d0:	30 08       	mov	r8,0
800076d2:	f0 09 19 00 	cp.h	r9,r8
800076d6:	c3 41       	brne	8000773e <udc_process_setup+0x366>
800076d8:	f0 1f 00 71 	mcall	8000789c <udc_process_setup+0x4c4>
800076dc:	c3 10       	breq	8000773e <udc_process_setup+0x366>
800076de:	4d f8       	lddpc	r8,80007858 <udc_process_setup+0x480>
800076e0:	11 b9       	ld.ub	r9,r8[0x3]
800076e2:	4e 18       	lddpc	r8,80007864 <udc_process_setup+0x48c>
800076e4:	70 08       	ld.w	r8,r8[0x0]
800076e6:	f1 38 00 11 	ld.ub	r8,r8[17]
800076ea:	10 39       	cp.w	r9,r8
800076ec:	e0 89 00 29 	brgt	8000773e <udc_process_setup+0x366>
800076f0:	f0 1f 00 6c 	mcall	800078a0 <udc_process_setup+0x4c8>
800076f4:	4d 98       	lddpc	r8,80007858 <udc_process_setup+0x480>
800076f6:	11 b8       	ld.ub	r8,r8[0x3]
800076f8:	4e 09       	lddpc	r9,80007878 <udc_process_setup+0x4a0>
800076fa:	b2 88       	st.b	r9[0x0],r8
800076fc:	58 08       	cp.w	r8,0
800076fe:	c2 20       	breq	80007742 <udc_process_setup+0x36a>
80007700:	20 18       	sub	r8,1
80007702:	4d 99       	lddpc	r9,80007864 <udc_process_setup+0x48c>
80007704:	72 19       	ld.w	r9,r9[0x4]
80007706:	f2 08 00 38 	add	r8,r9,r8<<0x3
8000770a:	4d d9       	lddpc	r9,8000787c <udc_process_setup+0x4a4>
8000770c:	93 08       	st.w	r9[0x0],r8
8000770e:	70 08       	ld.w	r8,r8[0x0]
80007710:	11 c9       	ld.ub	r9,r8[0x4]
80007712:	30 08       	mov	r8,0
80007714:	f0 09 18 00 	cp.b	r9,r8
80007718:	c1 50       	breq	80007742 <udc_process_setup+0x36a>
8000771a:	30 07       	mov	r7,0
8000771c:	0e 95       	mov	r5,r7
8000771e:	4d 86       	lddpc	r6,8000787c <udc_process_setup+0x4a4>
80007720:	0a 9b       	mov	r11,r5
80007722:	0e 9c       	mov	r12,r7
80007724:	f0 1f 00 60 	mcall	800078a4 <udc_process_setup+0x4cc>
80007728:	c0 b0       	breq	8000773e <udc_process_setup+0x366>
8000772a:	2f f7       	sub	r7,-1
8000772c:	5c 57       	castu.b	r7
8000772e:	6c 08       	ld.w	r8,r6[0x0]
80007730:	70 08       	ld.w	r8,r8[0x0]
80007732:	11 c8       	ld.ub	r8,r8[0x4]
80007734:	ee 08 18 00 	cp.b	r8,r7
80007738:	fe 9b ff f4 	brhi	80007720 <udc_process_setup+0x348>
8000773c:	c0 38       	rjmp	80007742 <udc_process_setup+0x36a>
8000773e:	30 0c       	mov	r12,0
80007740:	c5 a8       	rjmp	800077f4 <udc_process_setup+0x41c>
80007742:	30 1c       	mov	r12,1
80007744:	c5 88       	rjmp	800077f4 <udc_process_setup+0x41c>
80007746:	58 18       	cp.w	r8,1
80007748:	c2 21       	brne	8000778c <udc_process_setup+0x3b4>
8000774a:	4c 49       	lddpc	r9,80007858 <udc_process_setup+0x480>
8000774c:	13 9a       	ld.ub	r10,r9[0x1]
8000774e:	30 b9       	mov	r9,11
80007750:	f2 0a 18 00 	cp.b	r10,r9
80007754:	c1 c1       	brne	8000778c <udc_process_setup+0x3b4>
80007756:	4c 18       	lddpc	r8,80007858 <udc_process_setup+0x480>
80007758:	90 39       	ld.sh	r9,r8[0x6]
8000775a:	30 08       	mov	r8,0
8000775c:	f0 09 19 00 	cp.h	r9,r8
80007760:	c1 41       	brne	80007788 <udc_process_setup+0x3b0>
80007762:	4c 68       	lddpc	r8,80007878 <udc_process_setup+0x4a0>
80007764:	11 89       	ld.ub	r9,r8[0x0]
80007766:	30 08       	mov	r8,0
80007768:	f0 09 18 00 	cp.b	r9,r8
8000776c:	c0 e0       	breq	80007788 <udc_process_setup+0x3b0>
8000776e:	4b b8       	lddpc	r8,80007858 <udc_process_setup+0x480>
80007770:	90 16       	ld.sh	r6,r8[0x2]
80007772:	11 d7       	ld.ub	r7,r8[0x5]
80007774:	0e 9c       	mov	r12,r7
80007776:	f0 1f 00 4d 	mcall	800078a8 <udc_process_setup+0x4d0>
8000777a:	c0 70       	breq	80007788 <udc_process_setup+0x3b0>
8000777c:	f7 d6 c0 08 	bfextu	r11,r6,0x0,0x8
80007780:	0e 9c       	mov	r12,r7
80007782:	f0 1f 00 49 	mcall	800078a4 <udc_process_setup+0x4cc>
80007786:	c3 78       	rjmp	800077f4 <udc_process_setup+0x41c>
80007788:	30 0c       	mov	r12,0
8000778a:	c3 58       	rjmp	800077f4 <udc_process_setup+0x41c>
8000778c:	58 28       	cp.w	r8,2
8000778e:	c3 71       	brne	800077fc <udc_process_setup+0x424>
80007790:	4b 28       	lddpc	r8,80007858 <udc_process_setup+0x480>
80007792:	11 98       	ld.ub	r8,r8[0x1]
80007794:	30 19       	mov	r9,1
80007796:	f2 08 18 00 	cp.b	r8,r9
8000779a:	c0 60       	breq	800077a6 <udc_process_setup+0x3ce>
8000779c:	30 39       	mov	r9,3
8000779e:	f2 08 18 00 	cp.b	r8,r9
800077a2:	c2 81       	brne	800077f2 <udc_process_setup+0x41a>
800077a4:	c1 48       	rjmp	800077cc <udc_process_setup+0x3f4>
800077a6:	4a d8       	lddpc	r8,80007858 <udc_process_setup+0x480>
800077a8:	90 39       	ld.sh	r9,r8[0x6]
800077aa:	30 08       	mov	r8,0
800077ac:	f0 09 19 00 	cp.h	r9,r8
800077b0:	c0 c1       	brne	800077c8 <udc_process_setup+0x3f0>
800077b2:	4a a8       	lddpc	r8,80007858 <udc_process_setup+0x480>
800077b4:	90 19       	ld.sh	r9,r8[0x2]
800077b6:	30 08       	mov	r8,0
800077b8:	f0 09 19 00 	cp.h	r9,r8
800077bc:	c0 61       	brne	800077c8 <udc_process_setup+0x3f0>
800077be:	4a 78       	lddpc	r8,80007858 <udc_process_setup+0x480>
800077c0:	11 dc       	ld.ub	r12,r8[0x5]
800077c2:	f0 1f 00 3b 	mcall	800078ac <udc_process_setup+0x4d4>
800077c6:	c1 78       	rjmp	800077f4 <udc_process_setup+0x41c>
800077c8:	30 0c       	mov	r12,0
800077ca:	c1 58       	rjmp	800077f4 <udc_process_setup+0x41c>
800077cc:	4a 38       	lddpc	r8,80007858 <udc_process_setup+0x480>
800077ce:	90 39       	ld.sh	r9,r8[0x6]
800077d0:	30 08       	mov	r8,0
800077d2:	f0 09 19 00 	cp.h	r9,r8
800077d6:	c0 c1       	brne	800077ee <udc_process_setup+0x416>
800077d8:	4a 08       	lddpc	r8,80007858 <udc_process_setup+0x480>
800077da:	90 19       	ld.sh	r9,r8[0x2]
800077dc:	30 08       	mov	r8,0
800077de:	f0 09 19 00 	cp.h	r9,r8
800077e2:	c0 61       	brne	800077ee <udc_process_setup+0x416>
800077e4:	49 d8       	lddpc	r8,80007858 <udc_process_setup+0x480>
800077e6:	11 dc       	ld.ub	r12,r8[0x5]
800077e8:	f0 1f 00 32 	mcall	800078b0 <udc_process_setup+0x4d8>
800077ec:	c0 48       	rjmp	800077f4 <udc_process_setup+0x41c>
800077ee:	30 0c       	mov	r12,0
800077f0:	c0 28       	rjmp	800077f4 <udc_process_setup+0x41c>
800077f2:	30 0c       	mov	r12,0
800077f4:	58 0c       	cp.w	r12,0
800077f6:	c0 30       	breq	800077fc <udc_process_setup+0x424>
800077f8:	e3 cf 90 e0 	ldm	sp++,r5-r7,pc,r12=1
800077fc:	49 78       	lddpc	r8,80007858 <udc_process_setup+0x480>
800077fe:	11 88       	ld.ub	r8,r8[0x0]
80007800:	f1 d8 c0 05 	bfextu	r8,r8,0x0,0x5
80007804:	58 18       	cp.w	r8,1
80007806:	c2 71       	brne	80007854 <udc_process_setup+0x47c>
80007808:	49 c8       	lddpc	r8,80007878 <udc_process_setup+0x4a0>
8000780a:	11 89       	ld.ub	r9,r8[0x0]
8000780c:	30 08       	mov	r8,0
8000780e:	f0 09 18 00 	cp.b	r9,r8
80007812:	c2 10       	breq	80007854 <udc_process_setup+0x47c>
80007814:	49 18       	lddpc	r8,80007858 <udc_process_setup+0x480>
80007816:	11 d7       	ld.ub	r7,r8[0x5]
80007818:	49 98       	lddpc	r8,8000787c <udc_process_setup+0x4a4>
8000781a:	70 08       	ld.w	r8,r8[0x0]
8000781c:	70 08       	ld.w	r8,r8[0x0]
8000781e:	11 c8       	ld.ub	r8,r8[0x4]
80007820:	ee 08 18 00 	cp.b	r8,r7
80007824:	e0 88 00 18 	brls	80007854 <udc_process_setup+0x47c>
80007828:	0e 96       	mov	r6,r7
8000782a:	30 0b       	mov	r11,0
8000782c:	0e 9c       	mov	r12,r7
8000782e:	f0 1f 00 15 	mcall	80007880 <udc_process_setup+0x4a8>
80007832:	c1 10       	breq	80007854 <udc_process_setup+0x47c>
80007834:	49 28       	lddpc	r8,8000787c <udc_process_setup+0x4a4>
80007836:	70 08       	ld.w	r8,r8[0x0]
80007838:	70 18       	ld.w	r8,r8[0x4]
8000783a:	f0 07 03 27 	ld.w	r7,r8[r7<<0x2]
8000783e:	6e 3c       	ld.w	r12,r7[0xc]
80007840:	5d 1c       	icall	r12
80007842:	18 9b       	mov	r11,r12
80007844:	0c 9c       	mov	r12,r6
80007846:	f0 1f 00 0f 	mcall	80007880 <udc_process_setup+0x4a8>
8000784a:	c0 50       	breq	80007854 <udc_process_setup+0x47c>
8000784c:	6e 2c       	ld.w	r12,r7[0x8]
8000784e:	5d 1c       	icall	r12
80007850:	e3 cd 80 e0 	ldm	sp++,r5-r7,pc
80007854:	e3 cf 80 e0 	ldm	sp++,r5-r7,pc,r12=0
80007858:	00 00       	add	r0,r0
8000785a:	04 90       	mov	r0,r2
8000785c:	00 00       	add	r0,r0
8000785e:	01 e6       	ld.ub	r6,r0[0x6]
80007860:	80 00       	ld.sh	r0,r0[0x0]
80007862:	32 dc       	mov	r12,45
80007864:	00 00       	add	r0,r0
80007866:	00 88       	andn	r8,r0
80007868:	00 00       	add	r0,r0
8000786a:	00 a4       	st.w	r0++,r4
8000786c:	00 00       	add	r0,r0
8000786e:	00 da       	st.w	--r0,r10
80007870:	00 00       	add	r0,r0
80007872:	00 b4       	st.h	r0++,r4
80007874:	00 00       	add	r0,r0
80007876:	00 c0       	st.b	r0++,r0
80007878:	00 00       	add	r0,r0
8000787a:	01 e8       	ld.ub	r8,r0[0x6]
8000787c:	00 00       	add	r0,r0
8000787e:	01 e0       	ld.ub	r0,r0[0x6]
80007880:	80 00       	ld.sh	r0,r0[0x0]
80007882:	71 b8       	ld.w	r8,r8[0x6c]
80007884:	00 00       	add	r0,r0
80007886:	01 f0       	ld.ub	r0,r0[0x7]
80007888:	80 00       	ld.sh	r0,r0[0x0]
8000788a:	32 e8       	mov	r8,46
8000788c:	00 00       	add	r0,r0
8000788e:	01 e4       	ld.ub	r4,r0[0x6]
80007890:	80 00       	ld.sh	r0,r0[0x0]
80007892:	72 8c       	ld.w	r12,r9[0x20]
80007894:	80 00       	ld.sh	r0,r0[0x0]
80007896:	78 b8       	ld.w	r8,r12[0x2c]
80007898:	80 00       	ld.sh	r0,r0[0x0]
8000789a:	78 b6       	ld.w	r6,r12[0x2c]
8000789c:	80 00       	ld.sh	r0,r0[0x0]
8000789e:	32 c4       	mov	r4,44
800078a0:	80 00       	ld.sh	r0,r0[0x0]
800078a2:	73 68       	ld.w	r8,r9[0x58]
800078a4:	80 00       	ld.sh	r0,r0[0x0]
800078a6:	72 a4       	ld.w	r4,r9[0x28]
800078a8:	80 00       	ld.sh	r0,r0[0x0]
800078aa:	73 04       	ld.w	r4,r9[0x40]
800078ac:	80 00       	ld.sh	r0,r0[0x0]
800078ae:	32 fc       	mov	r12,47
800078b0:	80 00       	ld.sh	r0,r0[0x0]
800078b2:	33 cc       	mov	r12,60

800078b4 <main_resume_action>:
}

//-------------------------------------------------------------------
void main_resume_action(void)
{
}
800078b4:	5e fc       	retal	r12

800078b6 <main_remotewakeup_enable>:

//-------------------------------------------------------------------
// If remote wakeup enable/disable is supported insert code below
void main_remotewakeup_enable(void)
{
}
800078b6:	5e fc       	retal	r12

800078b8 <main_remotewakeup_disable>:

//-------------------------------------------------------------------
void main_remotewakeup_disable(void)
{
}
800078b8:	5e fc       	retal	r12

800078ba <main_kbd_enable>:
//-------------------------------------------------------------------
bool main_kbd_enable(void)
{
	//main_b_kbd_enable = true;
	return true;
}
800078ba:	5e ff       	retal	1

800078bc <main_kbd_disable>:
//-------------------------------------------------------------------
bool main_kbd_disable(void)
{
	//main_b_kbd_enable = false; mod 
	return false;
}
800078bc:	5e fd       	retal	0

800078be <main_kbd_change>:

//-------------------------------------------------------------------
void main_kbd_change(uint8_t value) 
{	
	//no use in this firmware
}
800078be:	5e fc       	retal	r12

800078c0 <main_suspend_action>:
	}
}

//-------------------------------------------------------------------
void main_suspend_action(void)
{
800078c0:	d4 01       	pushm	lr
	LED_Off(LED0);
800078c2:	30 1c       	mov	r12,1
800078c4:	f0 1f 00 03 	mcall	800078d0 <main_suspend_action+0x10>
	LED_Off(LED1);
800078c8:	30 2c       	mov	r12,2
800078ca:	f0 1f 00 02 	mcall	800078d0 <main_suspend_action+0x10>
}
800078ce:	d8 02       	popm	pc
800078d0:	80 00       	ld.sh	r0,r0[0x0]
800078d2:	21 4c       	sub	r12,20

800078d4 <main>:
	}
}

// Main Method - IRQ, CLCK, INIT setup
//-------------------------------------------------------------------
int main(void) {
800078d4:	eb cd 40 e0 	pushm	r5-r7,lr
800078d8:	20 5d       	sub	sp,20
	
	uint32_t sizeTemp;
	
	// init cpu
	irq_initialize_vectors();
800078da:	f0 1f 00 52 	mcall	80007a20 <main+0x14c>
	cpu_irq_enable();
800078de:	d5 03       	csrf	0x10
{
#ifdef CONFIG_SLEEPMGR_ENABLE
	uint8_t i;

	for (i = 0; i < SLEEPMGR_NR_OF_MODES - 1; i++) {
		sleepmgr_locks[i] = 0;
800078e0:	4d 18       	lddpc	r8,80007a24 <main+0x150>
800078e2:	30 09       	mov	r9,0
800078e4:	b0 89       	st.b	r8[0x0],r9
800078e6:	b0 99       	st.b	r8[0x1],r9
800078e8:	b0 a9       	st.b	r8[0x2],r9
800078ea:	b0 b9       	st.b	r8[0x3],r9
800078ec:	b0 c9       	st.b	r8[0x4],r9
800078ee:	b0 d9       	st.b	r8[0x5],r9
	}
	sleepmgr_locks[SLEEPMGR_NR_OF_MODES - 1] = 1;
800078f0:	30 19       	mov	r9,1
800078f2:	b0 e9       	st.b	r8[0x6],r9

	// init board
	sleepmgr_init();
	sysclk_init();
800078f4:	f0 1f 00 4d 	mcall	80007a28 <main+0x154>
	board_init();
800078f8:	f0 1f 00 4d 	mcall	80007a2c <main+0x158>
		.spck_delay   = 0,
		.trans_delay  = 0,
		.stay_act     = 1,
		.spi_mode     = 0,
		.modfdis      = 1
	};
800078fc:	4c d8       	lddpc	r8,80007a30 <main+0x15c>
800078fe:	1a 97       	mov	r7,sp
80007900:	f0 ea 00 00 	ld.d	r10,r8[0]
80007904:	fa eb 00 00 	st.d	sp[0],r10
80007908:	f0 e8 00 08 	ld.d	r8,r8[8]
8000790c:	fa e9 00 08 	st.d	sp[8],r8

	// assign I/Os to SPI.
	gpio_enable_module(SD_MMC_SPI_GPIO_MAP,
80007910:	30 4b       	mov	r11,4
80007912:	4c 9c       	lddpc	r12,80007a34 <main+0x160>
80007914:	f0 1f 00 49 	mcall	80007a38 <main+0x164>
						sizeof(SD_MMC_SPI_GPIO_MAP) / sizeof(SD_MMC_SPI_GPIO_MAP[0]));

	// initialize as master.
	spi_initMaster(SD_MMC_SPI, &spiOptions);
80007918:	1a 9b       	mov	r11,sp
8000791a:	fe 7c 24 00 	mov	r12,-56320
8000791e:	f0 1f 00 48 	mcall	80007a3c <main+0x168>

	// set SPI selection mode: variable_ps, pcs_decode, delay.
	spi_selectionMode(SD_MMC_SPI, 0, 0, 0);
80007922:	30 09       	mov	r9,0
80007924:	12 9a       	mov	r10,r9
80007926:	12 9b       	mov	r11,r9
80007928:	fe 7c 24 00 	mov	r12,-56320
8000792c:	f0 1f 00 45 	mcall	80007a40 <main+0x16c>

	// enable SPI module.
	spi_enable(SD_MMC_SPI);
80007930:	fe 7c 24 00 	mov	r12,-56320
80007934:	f0 1f 00 44 	mcall	80007a44 <main+0x170>

	// Initialize SD/MMC driver with SPI clock (PBA).
	sd_mmc_spi_init(spiOptions, pba_hz);
80007938:	20 4d       	sub	sp,16
8000793a:	ee e8 00 00 	ld.d	r8,r7[0]
8000793e:	fa e9 00 00 	st.d	sp[0],r8
80007942:	ee e8 00 08 	ld.d	r8,r7[8]
80007946:	fa e9 00 08 	st.d	sp[8],r8
8000794a:	e0 6c 1b 00 	mov	r12,6912
8000794e:	ea 1c 00 b7 	orh	r12,0xb7
80007952:	f0 1f 00 3e 	mcall	80007a48 <main+0x174>

	// initialize SD/MMC resources: GPIO, SPI.
	sd_mmc_resources_init(FOSC0);
	
	// test if the memory is ready - using the control access memory abstraction layer (/SERVICES/MEMORY/CTRL_ACCESS/)
	if (mem_test_unit_ready(LUN_ID_SD_MMC_SPI_MEM) == CTRL_GOOD) {
80007956:	30 0c       	mov	r12,0
80007958:	f0 1f 00 3d 	mcall	80007a4c <main+0x178>
8000795c:	2f cd       	sub	sp,-16
8000795e:	58 0c       	cp.w	r12,0
80007960:	c0 f1       	brne	8000797e <main+0xaa>
		// Get and display the capacity
		mem_read_capacity(LUN_ID_SD_MMC_SPI_MEM, &sizeTemp);
80007962:	fa cb ff f0 	sub	r11,sp,-16
80007966:	f0 1f 00 3b 	mcall	80007a50 <main+0x17c>
	else {
		//  error - we can't proceed - sit and spin...
		while(true) { LED_On( LED1 ); }
	}
	
 nav_reset();
8000796a:	f0 1f 00 3b 	mcall	80007a54 <main+0x180>
 if( nav_setcwd( vidpidFile, false, false ) ) {
8000796e:	30 0a       	mov	r10,0
80007970:	14 9b       	mov	r11,r10
80007972:	4b a8       	lddpc	r8,80007a58 <main+0x184>
80007974:	70 0c       	ld.w	r12,r8[0x0]
80007976:	f0 1f 00 3a 	mcall	80007a5c <main+0x188>
8000797a:	c3 c0       	breq	800079f2 <main+0x11e>
8000797c:	c0 68       	rjmp	80007988 <main+0xb4>
		// Get and display the capacity
		mem_read_capacity(LUN_ID_SD_MMC_SPI_MEM, &sizeTemp);
	}
	else {
		//  error - we can't proceed - sit and spin...
		while(true) { LED_On( LED1 ); }
8000797e:	30 27       	mov	r7,2
80007980:	0e 9c       	mov	r12,r7
80007982:	f0 1f 00 38 	mcall	80007a60 <main+0x18c>
80007986:	cf db       	rjmp	80007980 <main+0xac>
	}
	
 nav_reset();
 if( nav_setcwd( vidpidFile, false, false ) ) {
	 file_open(FOPEN_MODE_R);
80007988:	30 9c       	mov	r12,9
8000798a:	f0 1f 00 37 	mcall	80007a64 <main+0x190>
	 file_bof();
8000798e:	f0 1f 00 37 	mcall	80007a68 <main+0x194>
	 
	 vid =  file_getc() | (file_getc() << 8);
80007992:	f0 1f 00 37 	mcall	80007a6c <main+0x198>
80007996:	ef dc b0 10 	bfexts	r7,r12,0x0,0x10
8000799a:	f0 1f 00 35 	mcall	80007a6c <main+0x198>
8000799e:	4b 56       	lddpc	r6,80007a70 <main+0x19c>
800079a0:	5c 7c       	castu.h	r12
800079a2:	ef ec 10 87 	or	r7,r7,r12<<0x8
800079a6:	ac 07       	st.h	r6[0x0],r7
	 pid =  file_getc() | (file_getc() << 8);
800079a8:	f0 1f 00 31 	mcall	80007a6c <main+0x198>
800079ac:	eb dc b0 10 	bfexts	r5,r12,0x0,0x10
800079b0:	f0 1f 00 2f 	mcall	80007a6c <main+0x198>
800079b4:	4b 07       	lddpc	r7,80007a74 <main+0x1a0>
800079b6:	5c 7c       	castu.h	r12
800079b8:	eb ec 10 85 	or	r5,r5,r12<<0x8
800079bc:	ae 05       	st.h	r7[0x0],r5
	 serial_len = file_getc();
800079be:	f0 1f 00 2c 	mcall	80007a6c <main+0x198>
800079c2:	5c 7c       	castu.h	r12
800079c4:	4a d8       	lddpc	r8,80007a78 <main+0x1a4>
800079c6:	91 0c       	st.w	r8[0x0],r12
	 //serial = (uint8_t *)dlmalloc(serial_len);
	 file_read_buf(serial,sizeof(serial_len));
800079c8:	30 4b       	mov	r11,4
800079ca:	4a dc       	lddpc	r12,80007a7c <main+0x1a8>
800079cc:	f0 1f 00 2d 	mcall	80007a80 <main+0x1ac>
	 //serial[serial_len]='\0';
	 udc_device_desc.idVendor = (vid);
800079d0:	4a d8       	lddpc	r8,80007a84 <main+0x1b0>
800079d2:	8c 89       	ld.uh	r9,r6[0x0]
800079d4:	f2 0a 16 08 	lsr	r10,r9,0x8
800079d8:	f1 6a 00 08 	st.b	r8[8],r10
800079dc:	f1 69 00 09 	st.b	r8[9],r9
	 udc_device_desc.idProduct = (pid);
800079e0:	8e 89       	ld.uh	r9,r7[0x0]
800079e2:	f2 0a 16 08 	lsr	r10,r9,0x8
800079e6:	f1 6a 00 0a 	st.b	r8[10],r10
800079ea:	f1 69 00 0b 	st.b	r8[11],r9
	 if (serial_len > 0){
		 //#define USB_DEVICE_GET_SERIAL_NAME_LENGTH serial_len;
		 #define USB_DEVICE_SERIAL_NAME serial;
	 }
	 file_close();
800079ee:	f0 1f 00 27 	mcall	80007a88 <main+0x1b4>
 }

	nav_reset();
800079f2:	f0 1f 00 19 	mcall	80007a54 <main+0x180>
	if( !nav_setcwd( injectFile, true, false ) ) {
800079f6:	30 0a       	mov	r10,0
800079f8:	30 1b       	mov	r11,1
800079fa:	4a 58       	lddpc	r8,80007a8c <main+0x1b8>
800079fc:	70 0c       	ld.w	r12,r8[0x0]
800079fe:	f0 1f 00 18 	mcall	80007a5c <main+0x188>
80007a02:	c0 91       	brne	80007a14 <main+0x140>
		//try to open a://inject.bin else sit here 
		while(true) { 
			LED_On( LED1 );
80007a04:	30 27       	mov	r7,2
80007a06:	0e 9c       	mov	r12,r7
80007a08:	f0 1f 00 16 	mcall	80007a60 <main+0x18c>
			for (int i=0; i<10000; i++){}
			LED_Off(LED1); 
80007a0c:	0e 9c       	mov	r12,r7
80007a0e:	f0 1f 00 21 	mcall	80007a90 <main+0x1bc>
80007a12:	cf ab       	rjmp	80007a06 <main+0x132>

/*! \brief Start the USB Device stack
 */
static inline void udc_start(void)
{
	udd_enable();
80007a14:	f0 1f 00 20 	mcall	80007a94 <main+0x1c0>
 * then it will attach device when an acceptable Vbus
 * level from the host is detected.
 */
static inline void udc_attach(void)
{
	udd_attach();
80007a18:	f0 1f 00 20 	mcall	80007a98 <main+0x1c4>
80007a1c:	c0 08       	rjmp	80007a1c <main+0x148>
80007a1e:	00 00       	add	r0,r0
80007a20:	80 00       	ld.sh	r0,r0[0x0]
80007a22:	30 28       	mov	r8,2
80007a24:	00 00       	add	r0,r0
80007a26:	07 b8       	ld.ub	r8,r3[0x3]
80007a28:	80 00       	ld.sh	r0,r0[0x0]
80007a2a:	6b e0       	ld.w	r0,r5[0x78]
80007a2c:	80 00       	ld.sh	r0,r0[0x0]
80007a2e:	20 04       	sub	r4,0
80007a30:	80 00       	ld.sh	r0,r0[0x0]
80007a32:	81 50       	st.w	r0[0x14],r0
80007a34:	80 00       	ld.sh	r0,r0[0x0]
80007a36:	81 44       	st.w	r0[0x10],r4
80007a38:	80 00       	ld.sh	r0,r0[0x0]
80007a3a:	2e f8       	sub	r8,-17
80007a3c:	80 00       	ld.sh	r0,r0[0x0]
80007a3e:	30 ce       	mov	lr,12
80007a40:	80 00       	ld.sh	r0,r0[0x0]
80007a42:	31 06       	mov	r6,16
80007a44:	80 00       	ld.sh	r0,r0[0x0]
80007a46:	32 60       	mov	r0,38
80007a48:	80 00       	ld.sh	r0,r0[0x0]
80007a4a:	2c a8       	sub	r8,-54
80007a4c:	80 00       	ld.sh	r0,r0[0x0]
80007a4e:	6d 14       	ld.w	r4,r6[0x44]
80007a50:	80 00       	ld.sh	r0,r0[0x0]
80007a52:	6d 28       	ld.w	r8,r6[0x48]
80007a54:	80 00       	ld.sh	r0,r0[0x0]
80007a56:	6b 28       	ld.w	r8,r5[0x48]
80007a58:	80 00       	ld.sh	r0,r0[0x0]
80007a5a:	81 60       	st.w	r0[0x18],r0
80007a5c:	80 00       	ld.sh	r0,r0[0x0]
80007a5e:	69 18       	ld.w	r8,r4[0x44]
80007a60:	80 00       	ld.sh	r0,r0[0x0]
80007a62:	20 fc       	sub	r12,15
80007a64:	80 00       	ld.sh	r0,r0[0x0]
80007a66:	61 d8       	ld.w	r8,r0[0x74]
80007a68:	80 00       	ld.sh	r0,r0[0x0]
80007a6a:	5f 7c       	srpl	r12
80007a6c:	80 00       	ld.sh	r0,r0[0x0]
80007a6e:	5f d8       	srvc	r8
80007a70:	00 00       	add	r0,r0
80007a72:	07 c2       	ld.ub	r2,r3[0x4]
80007a74:	00 00       	add	r0,r0
80007a76:	07 c0       	ld.ub	r0,r3[0x4]
80007a78:	00 00       	add	r0,r0
80007a7a:	01 f4       	ld.ub	r4,r0[0x7]
80007a7c:	00 00       	add	r0,r0
80007a7e:	02 00       	add	r0,r1
80007a80:	80 00       	ld.sh	r0,r0[0x0]
80007a82:	60 44       	ld.w	r4,r0[0x10]
80007a84:	00 00       	add	r0,r0
80007a86:	00 90       	mov	r0,r0
80007a88:	80 00       	ld.sh	r0,r0[0x0]
80007a8a:	5f 9c       	srgt	r12
80007a8c:	80 00       	ld.sh	r0,r0[0x0]
80007a8e:	81 4c       	st.w	r0[0x10],r12
80007a90:	80 00       	ld.sh	r0,r0[0x0]
80007a92:	21 4c       	sub	r12,20
80007a94:	80 00       	ld.sh	r0,r0[0x0]
80007a96:	39 34       	mov	r4,-109
80007a98:	80 00       	ld.sh	r0,r0[0x0]
80007a9a:	38 bc       	mov	r12,-117

80007a9c <process_frame>:
}

// process a USB frame
//-------------------------------------------------------------------
void process_frame(uint16_t framenumber)
{
80007a9c:	eb cd 40 80 	pushm	r7,lr
	static uint8_t wait = 0;
	static uint16_t debounce = 0;
	static uint16_t injectToken = 0x0000;
	
	// scan process running each 2ms
	cpt_sof++;
80007aa0:	4e 19       	lddpc	r9,80007c24 <process_frame+0x188>
80007aa2:	13 88       	ld.ub	r8,r9[0x0]
80007aa4:	2f f8       	sub	r8,-1
80007aa6:	b2 88       	st.b	r9[0x0],r8
	if( 2 > cpt_sof )
80007aa8:	30 19       	mov	r9,1
80007aaa:	f2 08 18 00 	cp.b	r8,r9
80007aae:	e0 88 00 b9 	brls	80007c20 <process_frame+0x184>
		return;
	cpt_sof = 0;	
80007ab2:	30 09       	mov	r9,0
80007ab4:	4d c8       	lddpc	r8,80007c24 <process_frame+0x188>
80007ab6:	b0 89       	st.b	r8[0x0],r9
	
	// pulse led
	LED_Set_Intensity( LED0, framenumber >> 1 );
80007ab8:	f7 dc c0 28 	bfextu	r11,r12,0x1,0x8
80007abc:	30 1c       	mov	r12,1
80007abe:	f0 1f 00 5b 	mcall	80007c28 <process_frame+0x18c>
	
	// debounce switch
	if( debounce > 0 ) --debounce;
80007ac2:	4d b8       	lddpc	r8,80007c2c <process_frame+0x190>
80007ac4:	90 08       	ld.sh	r8,r8[0x0]
80007ac6:	58 08       	cp.w	r8,0
80007ac8:	c0 40       	breq	80007ad0 <process_frame+0x34>
80007aca:	20 18       	sub	r8,1
80007acc:	4d 89       	lddpc	r9,80007c2c <process_frame+0x190>
80007ace:	b2 08       	st.h	r9[0x0],r8
		
	// injection state machine
	switch(state) {
80007ad0:	4d 88       	lddpc	r8,80007c30 <process_frame+0x194>
80007ad2:	70 08       	ld.w	r8,r8[0x0]
80007ad4:	58 98       	cp.w	r8,9
80007ad6:	e0 8b 00 a2 	brhi	80007c1a <process_frame+0x17e>
80007ada:	4d 79       	lddpc	r9,80007c34 <process_frame+0x198>
80007adc:	f2 08 03 2f 	ld.w	pc,r9[r8<<0x2]

		case state_IDLE:
			// check switch
			LED_Off(LED1);
80007ae0:	30 2c       	mov	r12,2
80007ae2:	f0 1f 00 56 	mcall	80007c38 <process_frame+0x19c>
			if( gpio_get_pin_value(GPIO_JOYSTICK_PUSH) == GPIO_JOYSTICK_PUSH_PRESSED ) {
80007ae6:	30 dc       	mov	r12,13
80007ae8:	f0 1f 00 55 	mcall	80007c3c <process_frame+0x1a0>
80007aec:	e0 81 00 9a 	brne	80007c20 <process_frame+0x184>
	
				// debounce
				if( debounce == 0 ) {
80007af0:	4c f8       	lddpc	r8,80007c2c <process_frame+0x190>
80007af2:	90 09       	ld.sh	r9,r8[0x0]
80007af4:	30 08       	mov	r8,0
80007af6:	f0 09 19 00 	cp.h	r9,r8
80007afa:	e0 81 00 93 	brne	80007c20 <process_frame+0x184>
					state = state_START_INJECT;
80007afe:	30 19       	mov	r9,1
80007b00:	4c c8       	lddpc	r8,80007c30 <process_frame+0x194>
80007b02:	91 09       	st.w	r8[0x0],r9
					debounce = 250;
80007b04:	e0 69 00 fa 	mov	r9,250
80007b08:	4c 98       	lddpc	r8,80007c2c <process_frame+0x190>
80007b0a:	b0 09       	st.h	r8[0x0],r9
80007b0c:	e3 cd 80 80 	ldm	sp++,r7,pc
				}			
			}		
			break;		
			
		case state_START_INJECT:
			LED_On(LED1);
80007b10:	30 2c       	mov	r12,2
80007b12:	f0 1f 00 4c 	mcall	80007c40 <process_frame+0x1a4>
			if(file_open(FOPEN_MODE_R)) {		
80007b16:	30 9c       	mov	r12,9
80007b18:	f0 1f 00 4b 	mcall	80007c44 <process_frame+0x1a8>
80007b1c:	c0 60       	breq	80007b28 <process_frame+0x8c>
				state = state_INJECTING;
80007b1e:	30 29       	mov	r9,2
80007b20:	4c 48       	lddpc	r8,80007c30 <process_frame+0x194>
80007b22:	91 09       	st.w	r8[0x0],r9
			} else {
				LED_Off(LED0);
				while(true) { LED_On(LED1); }
			}
			break;
80007b24:	e3 cd 80 80 	ldm	sp++,r7,pc
		case state_START_INJECT:
			LED_On(LED1);
			if(file_open(FOPEN_MODE_R)) {		
				state = state_INJECTING;
			} else {
				LED_Off(LED0);
80007b28:	30 1c       	mov	r12,1
80007b2a:	f0 1f 00 44 	mcall	80007c38 <process_frame+0x19c>
				while(true) { LED_On(LED1); }
80007b2e:	30 27       	mov	r7,2
80007b30:	0e 9c       	mov	r12,r7
80007b32:	f0 1f 00 44 	mcall	80007c40 <process_frame+0x1a4>
80007b36:	cf db       	rjmp	80007b30 <process_frame+0x94>
			}
			break;
			
		case state_INJECTING:				
			
			if( file_eof() ) {
80007b38:	f0 1f 00 44 	mcall	80007c48 <process_frame+0x1ac>
80007b3c:	c0 80       	breq	80007b4c <process_frame+0xb0>
				file_close();	
80007b3e:	f0 1f 00 44 	mcall	80007c4c <process_frame+0x1b0>
				state = state_IDLE;
80007b42:	30 09       	mov	r9,0
80007b44:	4b b8       	lddpc	r8,80007c30 <process_frame+0x194>
80007b46:	91 09       	st.w	r8[0x0],r9
				break;
80007b48:	e3 cd 80 80 	ldm	sp++,r7,pc
			}
			
			injectToken = ( file_getc() | ( file_getc() << 8 ) );			
80007b4c:	f0 1f 00 41 	mcall	80007c50 <process_frame+0x1b4>
80007b50:	ef dc b0 10 	bfexts	r7,r12,0x0,0x10
80007b54:	f0 1f 00 3f 	mcall	80007c50 <process_frame+0x1b4>
80007b58:	f1 dc c0 10 	bfextu	r8,r12,0x0,0x10
80007b5c:	ef e8 10 88 	or	r8,r7,r8<<0x8
80007b60:	5c 88       	casts.h	r8
80007b62:	4b d9       	lddpc	r9,80007c54 <process_frame+0x1b8>
80007b64:	b2 08       	st.h	r9[0x0],r8
						
			if( ( injectToken&0xff ) == 0x00 ) {				
80007b66:	f3 d8 c0 08 	bfextu	r9,r8,0x0,0x8
80007b6a:	c0 a1       	brne	80007b7e <process_frame+0xe2>
				wait = injectToken>>8;
80007b6c:	f1 d8 c1 08 	bfextu	r8,r8,0x8,0x8
80007b70:	4b a9       	lddpc	r9,80007c58 <process_frame+0x1bc>
80007b72:	b2 88       	st.b	r9[0x0],r8
				state = state_WAIT;
80007b74:	30 99       	mov	r9,9
80007b76:	4a f8       	lddpc	r8,80007c30 <process_frame+0x194>
80007b78:	91 09       	st.w	r8[0x0],r9
80007b7a:	e3 cd 80 80 	ldm	sp++,r7,pc
			}
			else if( ( injectToken>>8 ) == 0x00 ) {
80007b7e:	f1 d8 c1 08 	bfextu	r8,r8,0x8,0x8
80007b82:	c0 61       	brne	80007b8e <process_frame+0xf2>
				state = state_KEY_DOWN;
80007b84:	30 39       	mov	r9,3
80007b86:	4a b8       	lddpc	r8,80007c30 <process_frame+0x194>
80007b88:	91 09       	st.w	r8[0x0],r9
80007b8a:	e3 cd 80 80 	ldm	sp++,r7,pc
			}				
			else {
				state = state_MOD_DOWN;					
80007b8e:	30 59       	mov	r9,5
80007b90:	4a 88       	lddpc	r8,80007c30 <process_frame+0x194>
80007b92:	91 09       	st.w	r8[0x0],r9
80007b94:	e3 cd 80 80 	ldm	sp++,r7,pc
			}					
			break;
			
		case state_KEY_DOWN:
			udi_hid_kbd_down(injectToken&0xff);
80007b98:	4a f8       	lddpc	r8,80007c54 <process_frame+0x1b8>
80007b9a:	11 9c       	ld.ub	r12,r8[0x1]
80007b9c:	f0 1f 00 30 	mcall	80007c5c <process_frame+0x1c0>
			state = state_KEY_UP;
80007ba0:	30 49       	mov	r9,4
80007ba2:	4a 48       	lddpc	r8,80007c30 <process_frame+0x194>
80007ba4:	91 09       	st.w	r8[0x0],r9
			break;
80007ba6:	e3 cd 80 80 	ldm	sp++,r7,pc

		case state_KEY_UP:
			udi_hid_kbd_up(injectToken&0xff);
80007baa:	4a b8       	lddpc	r8,80007c54 <process_frame+0x1b8>
80007bac:	11 9c       	ld.ub	r12,r8[0x1]
80007bae:	f0 1f 00 2d 	mcall	80007c60 <process_frame+0x1c4>
			state = state_INJECTING;
80007bb2:	30 29       	mov	r9,2
80007bb4:	49 f8       	lddpc	r8,80007c30 <process_frame+0x194>
80007bb6:	91 09       	st.w	r8[0x0],r9
			break;			
80007bb8:	e3 cd 80 80 	ldm	sp++,r7,pc
			
		case state_MOD_DOWN:
			udi_hid_kbd_modifier_down(injectToken>>8);
80007bbc:	4a 68       	lddpc	r8,80007c54 <process_frame+0x1b8>
80007bbe:	11 8c       	ld.ub	r12,r8[0x0]
80007bc0:	f0 1f 00 29 	mcall	80007c64 <process_frame+0x1c8>
			state = state_MOD_KEY_DOWN;
80007bc4:	30 69       	mov	r9,6
80007bc6:	49 b8       	lddpc	r8,80007c30 <process_frame+0x194>
80007bc8:	91 09       	st.w	r8[0x0],r9
			break;
80007bca:	e3 cd 80 80 	ldm	sp++,r7,pc

		case state_MOD_KEY_DOWN:
			udi_hid_kbd_down(injectToken&0xff);
80007bce:	4a 28       	lddpc	r8,80007c54 <process_frame+0x1b8>
80007bd0:	11 9c       	ld.ub	r12,r8[0x1]
80007bd2:	f0 1f 00 23 	mcall	80007c5c <process_frame+0x1c0>
			state = state_MOD_KEY_UP;
80007bd6:	30 79       	mov	r9,7
80007bd8:	49 68       	lddpc	r8,80007c30 <process_frame+0x194>
80007bda:	91 09       	st.w	r8[0x0],r9
			break;
80007bdc:	e3 cd 80 80 	ldm	sp++,r7,pc

		case state_MOD_KEY_UP:
			udi_hid_kbd_up(injectToken&0xff);
80007be0:	49 d8       	lddpc	r8,80007c54 <process_frame+0x1b8>
80007be2:	11 9c       	ld.ub	r12,r8[0x1]
80007be4:	f0 1f 00 1f 	mcall	80007c60 <process_frame+0x1c4>
			state = state_MOD_UP;		
80007be8:	30 89       	mov	r9,8
80007bea:	49 28       	lddpc	r8,80007c30 <process_frame+0x194>
80007bec:	91 09       	st.w	r8[0x0],r9
			break;
80007bee:	e3 cd 80 80 	ldm	sp++,r7,pc
			
		case state_MOD_UP:
			udi_hid_kbd_modifier_up(injectToken>>8);
80007bf2:	49 98       	lddpc	r8,80007c54 <process_frame+0x1b8>
80007bf4:	11 8c       	ld.ub	r12,r8[0x0]
80007bf6:	f0 1f 00 1d 	mcall	80007c68 <process_frame+0x1cc>
			state = state_INJECTING;
80007bfa:	30 29       	mov	r9,2
80007bfc:	48 d8       	lddpc	r8,80007c30 <process_frame+0x194>
80007bfe:	91 09       	st.w	r8[0x0],r9
			break;	
80007c00:	e3 cd 80 80 	ldm	sp++,r7,pc
			
		case state_WAIT:
			if( --wait == 0 ) {
80007c04:	49 59       	lddpc	r9,80007c58 <process_frame+0x1bc>
80007c06:	13 88       	ld.ub	r8,r9[0x0]
80007c08:	20 18       	sub	r8,1
80007c0a:	5c 58       	castu.b	r8
80007c0c:	b2 88       	st.b	r9[0x0],r8
80007c0e:	c0 91       	brne	80007c20 <process_frame+0x184>
				state = state_INJECTING;
80007c10:	30 29       	mov	r9,2
80007c12:	48 88       	lddpc	r8,80007c30 <process_frame+0x194>
80007c14:	91 09       	st.w	r8[0x0],r9
80007c16:	e3 cd 80 80 	ldm	sp++,r7,pc
			}
			break;
			
		default:
			state = state_IDLE;
80007c1a:	30 09       	mov	r9,0
80007c1c:	48 58       	lddpc	r8,80007c30 <process_frame+0x194>
80007c1e:	91 09       	st.w	r8[0x0],r9
80007c20:	e3 cd 80 80 	ldm	sp++,r7,pc
80007c24:	00 00       	add	r0,r0
80007c26:	02 64       	and	r4,r1
80007c28:	80 00       	ld.sh	r0,r0[0x0]
80007c2a:	20 5c       	sub	r12,5
80007c2c:	00 00       	add	r0,r0
80007c2e:	01 f8       	ld.ub	r8,r0[0x7]
80007c30:	00 00       	add	r0,r0
80007c32:	00 e0       	st.h	--r0,r0
80007c34:	80 00       	ld.sh	r0,r0[0x0]
80007c36:	81 1c       	st.w	r0[0x4],r12
80007c38:	80 00       	ld.sh	r0,r0[0x0]
80007c3a:	21 4c       	sub	r12,20
80007c3c:	80 00       	ld.sh	r0,r0[0x0]
80007c3e:	2f e0       	sub	r0,-2
80007c40:	80 00       	ld.sh	r0,r0[0x0]
80007c42:	20 fc       	sub	r12,15
80007c44:	80 00       	ld.sh	r0,r0[0x0]
80007c46:	61 d8       	ld.w	r8,r0[0x74]
80007c48:	80 00       	ld.sh	r0,r0[0x0]
80007c4a:	5f 58       	srlt	r8
80007c4c:	80 00       	ld.sh	r0,r0[0x0]
80007c4e:	5f 9c       	srgt	r12
80007c50:	80 00       	ld.sh	r0,r0[0x0]
80007c52:	5f d8       	srvc	r8
80007c54:	00 00       	add	r0,r0
80007c56:	01 fc       	ld.ub	r12,r0[0x7]
80007c58:	00 00       	add	r0,r0
80007c5a:	01 fa       	ld.ub	r10,r0[0x7]
80007c5c:	80 00       	ld.sh	r0,r0[0x0]
80007c5e:	6e 8c       	ld.w	r12,r7[0x20]
80007c60:	80 00       	ld.sh	r0,r0[0x0]
80007c62:	6f 04       	ld.w	r4,r7[0x40]
80007c64:	80 00       	ld.sh	r0,r0[0x0]
80007c66:	6f 9c       	ld.w	r12,r7[0x64]
80007c68:	80 00       	ld.sh	r0,r0[0x0]
80007c6a:	6f cc       	ld.w	r12,r7[0x70]

80007c6c <main_sof_action>:
{
}
 
//-------------------------------------------------------------------
void main_sof_action(void)
{
80007c6c:	d4 01       	pushm	lr
		process_frame( udd_get_frame_number() );
80007c6e:	f0 1f 00 04 	mcall	80007c7c <main_sof_action+0x10>
80007c72:	5c 7c       	castu.h	r12
80007c74:	f0 1f 00 03 	mcall	80007c80 <main_sof_action+0x14>

}
80007c78:	d8 02       	popm	pc
80007c7a:	00 00       	add	r0,r0
80007c7c:	80 00       	ld.sh	r0,r0[0x0]
80007c7e:	32 d0       	mov	r0,45
80007c80:	80 00       	ld.sh	r0,r0[0x0]
80007c82:	7a 9c       	ld.w	r12,sp[0x24]

80007c84 <memcmp>:
80007c84:	d4 01       	pushm	lr
80007c86:	30 08       	mov	r8,0
80007c88:	c0 d8       	rjmp	80007ca2 <memcmp+0x1e>
80007c8a:	f8 08 07 0e 	ld.ub	lr,r12[r8]
80007c8e:	f6 08 07 09 	ld.ub	r9,r11[r8]
80007c92:	20 1a       	sub	r10,1
80007c94:	2f f8       	sub	r8,-1
80007c96:	f2 0e 18 00 	cp.b	lr,r9
80007c9a:	c0 40       	breq	80007ca2 <memcmp+0x1e>
80007c9c:	fc 09 01 0c 	sub	r12,lr,r9
80007ca0:	d8 02       	popm	pc
80007ca2:	58 0a       	cp.w	r10,0
80007ca4:	cf 31       	brne	80007c8a <memcmp+0x6>
80007ca6:	14 9c       	mov	r12,r10
80007ca8:	d8 02       	popm	pc

80007caa <memcpy>:
80007caa:	58 8a       	cp.w	r10,8
80007cac:	c2 f5       	brlt	80007d0a <memcpy+0x60>
80007cae:	f9 eb 10 09 	or	r9,r12,r11
80007cb2:	e2 19 00 03 	andl	r9,0x3,COH
80007cb6:	e0 81 00 97 	brne	80007de4 <memcpy+0x13a>
80007cba:	e0 4a 00 20 	cp.w	r10,32
80007cbe:	c3 b4       	brge	80007d34 <memcpy+0x8a>
80007cc0:	f4 08 14 02 	asr	r8,r10,0x2
80007cc4:	f0 09 11 08 	rsub	r9,r8,8
80007cc8:	fe 09 00 2f 	add	pc,pc,r9<<0x2
80007ccc:	76 69       	ld.w	r9,r11[0x18]
80007cce:	99 69       	st.w	r12[0x18],r9
80007cd0:	76 59       	ld.w	r9,r11[0x14]
80007cd2:	99 59       	st.w	r12[0x14],r9
80007cd4:	76 49       	ld.w	r9,r11[0x10]
80007cd6:	99 49       	st.w	r12[0x10],r9
80007cd8:	76 39       	ld.w	r9,r11[0xc]
80007cda:	99 39       	st.w	r12[0xc],r9
80007cdc:	76 29       	ld.w	r9,r11[0x8]
80007cde:	99 29       	st.w	r12[0x8],r9
80007ce0:	76 19       	ld.w	r9,r11[0x4]
80007ce2:	99 19       	st.w	r12[0x4],r9
80007ce4:	76 09       	ld.w	r9,r11[0x0]
80007ce6:	99 09       	st.w	r12[0x0],r9
80007ce8:	f6 08 00 2b 	add	r11,r11,r8<<0x2
80007cec:	f8 08 00 28 	add	r8,r12,r8<<0x2
80007cf0:	e0 1a 00 03 	andl	r10,0x3
80007cf4:	f4 0a 11 04 	rsub	r10,r10,4
80007cf8:	fe 0a 00 2f 	add	pc,pc,r10<<0x2
80007cfc:	17 a9       	ld.ub	r9,r11[0x2]
80007cfe:	b0 a9       	st.b	r8[0x2],r9
80007d00:	17 99       	ld.ub	r9,r11[0x1]
80007d02:	b0 99       	st.b	r8[0x1],r9
80007d04:	17 89       	ld.ub	r9,r11[0x0]
80007d06:	b0 89       	st.b	r8[0x0],r9
80007d08:	5e fc       	retal	r12
80007d0a:	f4 0a 11 09 	rsub	r10,r10,9
80007d0e:	fe 0a 00 2f 	add	pc,pc,r10<<0x2
80007d12:	17 f9       	ld.ub	r9,r11[0x7]
80007d14:	b8 f9       	st.b	r12[0x7],r9
80007d16:	17 e9       	ld.ub	r9,r11[0x6]
80007d18:	b8 e9       	st.b	r12[0x6],r9
80007d1a:	17 d9       	ld.ub	r9,r11[0x5]
80007d1c:	b8 d9       	st.b	r12[0x5],r9
80007d1e:	17 c9       	ld.ub	r9,r11[0x4]
80007d20:	b8 c9       	st.b	r12[0x4],r9
80007d22:	17 b9       	ld.ub	r9,r11[0x3]
80007d24:	b8 b9       	st.b	r12[0x3],r9
80007d26:	17 a9       	ld.ub	r9,r11[0x2]
80007d28:	b8 a9       	st.b	r12[0x2],r9
80007d2a:	17 99       	ld.ub	r9,r11[0x1]
80007d2c:	b8 99       	st.b	r12[0x1],r9
80007d2e:	17 89       	ld.ub	r9,r11[0x0]
80007d30:	b8 89       	st.b	r12[0x0],r9
80007d32:	5e fc       	retal	r12
80007d34:	eb cd 40 c0 	pushm	r6-r7,lr
80007d38:	18 99       	mov	r9,r12
80007d3a:	22 0a       	sub	r10,32
80007d3c:	b7 07       	ld.d	r6,r11++
80007d3e:	b3 26       	st.d	r9++,r6
80007d40:	b7 07       	ld.d	r6,r11++
80007d42:	b3 26       	st.d	r9++,r6
80007d44:	b7 07       	ld.d	r6,r11++
80007d46:	b3 26       	st.d	r9++,r6
80007d48:	b7 07       	ld.d	r6,r11++
80007d4a:	b3 26       	st.d	r9++,r6
80007d4c:	22 0a       	sub	r10,32
80007d4e:	cf 74       	brge	80007d3c <memcpy+0x92>
80007d50:	2f 0a       	sub	r10,-16
80007d52:	c0 65       	brlt	80007d5e <memcpy+0xb4>
80007d54:	b7 07       	ld.d	r6,r11++
80007d56:	b3 26       	st.d	r9++,r6
80007d58:	b7 07       	ld.d	r6,r11++
80007d5a:	b3 26       	st.d	r9++,r6
80007d5c:	21 0a       	sub	r10,16
80007d5e:	5c 3a       	neg	r10
80007d60:	fe 0a 00 3f 	add	pc,pc,r10<<0x3
80007d64:	d7 03       	nop
80007d66:	d7 03       	nop
80007d68:	f7 36 00 0e 	ld.ub	r6,r11[14]
80007d6c:	f3 66 00 0e 	st.b	r9[14],r6
80007d70:	f7 36 00 0d 	ld.ub	r6,r11[13]
80007d74:	f3 66 00 0d 	st.b	r9[13],r6
80007d78:	f7 36 00 0c 	ld.ub	r6,r11[12]
80007d7c:	f3 66 00 0c 	st.b	r9[12],r6
80007d80:	f7 36 00 0b 	ld.ub	r6,r11[11]
80007d84:	f3 66 00 0b 	st.b	r9[11],r6
80007d88:	f7 36 00 0a 	ld.ub	r6,r11[10]
80007d8c:	f3 66 00 0a 	st.b	r9[10],r6
80007d90:	f7 36 00 09 	ld.ub	r6,r11[9]
80007d94:	f3 66 00 09 	st.b	r9[9],r6
80007d98:	f7 36 00 08 	ld.ub	r6,r11[8]
80007d9c:	f3 66 00 08 	st.b	r9[8],r6
80007da0:	f7 36 00 07 	ld.ub	r6,r11[7]
80007da4:	f3 66 00 07 	st.b	r9[7],r6
80007da8:	f7 36 00 06 	ld.ub	r6,r11[6]
80007dac:	f3 66 00 06 	st.b	r9[6],r6
80007db0:	f7 36 00 05 	ld.ub	r6,r11[5]
80007db4:	f3 66 00 05 	st.b	r9[5],r6
80007db8:	f7 36 00 04 	ld.ub	r6,r11[4]
80007dbc:	f3 66 00 04 	st.b	r9[4],r6
80007dc0:	f7 36 00 03 	ld.ub	r6,r11[3]
80007dc4:	f3 66 00 03 	st.b	r9[3],r6
80007dc8:	f7 36 00 02 	ld.ub	r6,r11[2]
80007dcc:	f3 66 00 02 	st.b	r9[2],r6
80007dd0:	f7 36 00 01 	ld.ub	r6,r11[1]
80007dd4:	f3 66 00 01 	st.b	r9[1],r6
80007dd8:	f7 36 00 00 	ld.ub	r6,r11[0]
80007ddc:	f3 66 00 00 	st.b	r9[0],r6
80007de0:	e3 cd 80 c0 	ldm	sp++,r6-r7,pc
80007de4:	20 1a       	sub	r10,1
80007de6:	f6 0a 07 09 	ld.ub	r9,r11[r10]
80007dea:	f8 0a 0b 09 	st.b	r12[r10],r9
80007dee:	cf b1       	brne	80007de4 <memcpy+0x13a>
80007df0:	5e fc       	retal	r12

80007df2 <memset>:
80007df2:	18 98       	mov	r8,r12
80007df4:	c0 38       	rjmp	80007dfa <memset+0x8>
80007df6:	10 cb       	st.b	r8++,r11
80007df8:	20 1a       	sub	r10,1
80007dfa:	58 0a       	cp.w	r10,0
80007dfc:	cf d1       	brne	80007df6 <memset+0x4>
80007dfe:	5e fc       	retal	r12

Disassembly of section .exception:

80007e00 <_evba>:
80007e00:	c0 08       	rjmp	80007e00 <_evba>
	...

80007e04 <_handle_TLB_Multiple_Hit>:
80007e04:	c0 08       	rjmp	80007e04 <_handle_TLB_Multiple_Hit>
	...

80007e08 <_handle_Bus_Error_Data_Fetch>:
80007e08:	c0 08       	rjmp	80007e08 <_handle_Bus_Error_Data_Fetch>
	...

80007e0c <_handle_Bus_Error_Instruction_Fetch>:
80007e0c:	c0 08       	rjmp	80007e0c <_handle_Bus_Error_Instruction_Fetch>
	...

80007e10 <_handle_NMI>:
80007e10:	c0 08       	rjmp	80007e10 <_handle_NMI>
	...

80007e14 <_handle_Instruction_Address>:
80007e14:	c0 08       	rjmp	80007e14 <_handle_Instruction_Address>
	...

80007e18 <_handle_ITLB_Protection>:
80007e18:	c0 08       	rjmp	80007e18 <_handle_ITLB_Protection>
	...

80007e1c <_handle_Breakpoint>:
80007e1c:	c0 08       	rjmp	80007e1c <_handle_Breakpoint>
	...

80007e20 <_handle_Illegal_Opcode>:
80007e20:	c0 08       	rjmp	80007e20 <_handle_Illegal_Opcode>
	...

80007e24 <_handle_Unimplemented_Instruction>:
80007e24:	c0 08       	rjmp	80007e24 <_handle_Unimplemented_Instruction>
	...

80007e28 <_handle_Privilege_Violation>:
80007e28:	c0 08       	rjmp	80007e28 <_handle_Privilege_Violation>
	...

80007e2c <_handle_Floating_Point>:
80007e2c:	c0 08       	rjmp	80007e2c <_handle_Floating_Point>
	...

80007e30 <_handle_Coprocessor_Absent>:
80007e30:	c0 08       	rjmp	80007e30 <_handle_Coprocessor_Absent>
	...

80007e34 <_handle_Data_Address_Read>:
80007e34:	c0 08       	rjmp	80007e34 <_handle_Data_Address_Read>
	...

80007e38 <_handle_Data_Address_Write>:
80007e38:	c0 08       	rjmp	80007e38 <_handle_Data_Address_Write>
	...

80007e3c <_handle_DTLB_Protection_Read>:
80007e3c:	c0 08       	rjmp	80007e3c <_handle_DTLB_Protection_Read>
	...

80007e40 <_handle_DTLB_Protection_Write>:
80007e40:	c0 08       	rjmp	80007e40 <_handle_DTLB_Protection_Write>
	...

80007e44 <_handle_DTLB_Modified>:
80007e44:	c0 08       	rjmp	80007e44 <_handle_DTLB_Modified>
	...

80007e50 <_handle_ITLB_Miss>:
80007e50:	c0 08       	rjmp	80007e50 <_handle_ITLB_Miss>
	...

80007e60 <_handle_DTLB_Miss_Read>:
80007e60:	c0 08       	rjmp	80007e60 <_handle_DTLB_Miss_Read>
	...

80007e70 <_handle_DTLB_Miss_Write>:
80007e70:	c0 08       	rjmp	80007e70 <_handle_DTLB_Miss_Write>
	...

80007f00 <_handle_Supervisor_Call>:
80007f00:	c0 08       	rjmp	80007f00 <_handle_Supervisor_Call>
80007f02:	d7 03       	nop

80007f04 <_int0>:
80007f04:	30 0c       	mov	r12,0
80007f06:	fe b0 d8 bb 	rcall	8000307c <_get_interrupt_handler>
80007f0a:	58 0c       	cp.w	r12,0
80007f0c:	f8 0f 17 10 	movne	pc,r12
80007f10:	d6 03       	rete

80007f12 <_int1>:
80007f12:	30 1c       	mov	r12,1
80007f14:	fe b0 d8 b4 	rcall	8000307c <_get_interrupt_handler>
80007f18:	58 0c       	cp.w	r12,0
80007f1a:	f8 0f 17 10 	movne	pc,r12
80007f1e:	d6 03       	rete

80007f20 <_int2>:
80007f20:	30 2c       	mov	r12,2
80007f22:	fe b0 d8 ad 	rcall	8000307c <_get_interrupt_handler>
80007f26:	58 0c       	cp.w	r12,0
80007f28:	f8 0f 17 10 	movne	pc,r12
80007f2c:	d6 03       	rete

80007f2e <_int3>:
80007f2e:	30 3c       	mov	r12,3
80007f30:	fe b0 d8 a6 	rcall	8000307c <_get_interrupt_handler>
80007f34:	58 0c       	cp.w	r12,0
80007f36:	f8 0f 17 10 	movne	pc,r12
80007f3a:	d6 03       	rete

80007f3c <ipr_val>:
80007f3c:	00 00 01 04 40 00 01 12 80 00 01 20 c0 00 01 2e     ....@...... ....
80007f4c:	d7 03 d7 03 d7 03 d7 03 d7 03 d7 03 d7 03 d7 03     ................
80007f5c:	d7 03 d7 03 d7 03 d7 03 d7 03 d7 03 d7 03 d7 03     ................
80007f6c:	d7 03 d7 03 d7 03 d7 03 d7 03 d7 03 d7 03 d7 03     ................
80007f7c:	d7 03 d7 03 d7 03 d7 03 d7 03 d7 03 d7 03 d7 03     ................
80007f8c:	d7 03 d7 03 d7 03 d7 03 d7 03 d7 03 d7 03 d7 03     ................
80007f9c:	d7 03 d7 03 d7 03 d7 03 d7 03 d7 03 d7 03 d7 03     ................
80007fac:	d7 03 d7 03 d7 03 d7 03 d7 03 d7 03 d7 03 d7 03     ................
80007fbc:	d7 03 d7 03 d7 03 d7 03 d7 03 d7 03 d7 03 d7 03     ................
80007fcc:	d7 03 d7 03 d7 03 d7 03 d7 03 d7 03 d7 03 d7 03     ................
80007fdc:	d7 03 d7 03 d7 03 d7 03 d7 03 d7 03 d7 03 d7 03     ................
80007fec:	d7 03 d7 03 d7 03 d7 03 d7 03 d7 03 d7 03 d7 03     ................
80007ffc:	d7 03 d7 03                                         ....
